
/Users/la25/NOVA/pico/build/pico.elf:     file format elf32-littlearm

Sections:
Idx Name          Size      VMA       LMA       File off  Algn
  0 .boot2        00000100  10000000  10000000  00001000  2**0
                  CONTENTS, ALLOC, LOAD, READONLY, CODE
  1 .text         00006178  10000100  10000100  00001100  2**4
                  CONTENTS, ALLOC, LOAD, READONLY, CODE
  2 .rodata       000003e8  10006278  10006278  00007278  2**3
                  CONTENTS, ALLOC, LOAD, READONLY, DATA
  3 .binary_info  00000028  10006660  10006660  00007660  2**2
                  CONTENTS, ALLOC, LOAD, READONLY, DATA
  4 .ram_vector_table 000000c0  20000000  20000000  00009000  2**2
                  ALLOC
  5 .uninitialized_data 00000000  200000c0  200000c0  00008460  2**0
                  CONTENTS
  6 .data         000003a0  200000c0  10006688  000080c0  2**4
                  CONTENTS, ALLOC, LOAD, READONLY, CODE
  7 .tdata        00000000  20000460  20000460  00008460  2**0
                  CONTENTS, ALLOC, LOAD, DATA, THREAD_LOCAL
  8 .tbss         00000000  20000460  20000460  00000000  2**0
                  ALLOC, THREAD_LOCAL
  9 .bss          000086f0  20000460  10006a28  00008460  2**3
                  ALLOC
 10 .heap         00000800  20008b50  10006a28  00008b50  2**2
                  ALLOC, READONLY
 11 .scratch_x    00000000  20040000  20040000  00008460  2**0
                  CONTENTS
 12 .scratch_y    00000000  20041000  20041000  00008460  2**0
                  CONTENTS
 13 .stack_dummy  00000800  20041000  20041000  00009000  2**5
                  ALLOC, READONLY
 14 .ARM.attributes 00000028  00000000  00000000  00008460  2**0
                  CONTENTS, READONLY
 15 .comment      00000046  00000000  00000000  00008488  2**0
                  CONTENTS, READONLY
 16 .debug_info   0002e373  00000000  00000000  000084ce  2**0
                  CONTENTS, READONLY, DEBUGGING, OCTETS
 17 .debug_abbrev 000078bf  00000000  00000000  00036841  2**0
                  CONTENTS, READONLY, DEBUGGING, OCTETS
 18 .debug_loclists 0001b19c  00000000  00000000  0003e100  2**0
                  CONTENTS, READONLY, DEBUGGING, OCTETS
 19 .debug_aranges 00001540  00000000  00000000  000592a0  2**3
                  CONTENTS, READONLY, DEBUGGING, OCTETS
 20 .debug_rnglists 000043c3  00000000  00000000  0005a7e0  2**0
                  CONTENTS, READONLY, DEBUGGING, OCTETS
 21 .debug_line   00024a98  00000000  00000000  0005eba3  2**0
                  CONTENTS, READONLY, DEBUGGING, OCTETS
 22 .debug_str    00007ff0  00000000  00000000  0008363b  2**0
                  CONTENTS, READONLY, DEBUGGING, OCTETS
 23 .debug_frame  000030c8  00000000  00000000  0008b62c  2**2
                  CONTENTS, READONLY, DEBUGGING, OCTETS
 24 .debug_line_str 000002cb  00000000  00000000  0008e6f4  2**0
                  CONTENTS, READONLY, DEBUGGING, OCTETS

/Users/la25/NOVA/pico/build/pico.elf:     file format elf32-littlearm


Disassembly of section .boot2:

10000000 <__boot2_start__>:
10000000:	4b32b500 	.word	0x4b32b500
10000004:	60582021 	.word	0x60582021
10000008:	21026898 	.word	0x21026898
1000000c:	60984388 	.word	0x60984388
10000010:	611860d8 	.word	0x611860d8
10000014:	4b2e6158 	.word	0x4b2e6158
10000018:	60992100 	.word	0x60992100
1000001c:	61592102 	.word	0x61592102
10000020:	22f02101 	.word	0x22f02101
10000024:	492b5099 	.word	0x492b5099
10000028:	21016019 	.word	0x21016019
1000002c:	20356099 	.word	0x20356099
10000030:	f844f000 	.word	0xf844f000
10000034:	42902202 	.word	0x42902202
10000038:	2106d014 	.word	0x2106d014
1000003c:	f0006619 	.word	0xf0006619
10000040:	6e19f834 	.word	0x6e19f834
10000044:	66192101 	.word	0x66192101
10000048:	66182000 	.word	0x66182000
1000004c:	f000661a 	.word	0xf000661a
10000050:	6e19f82c 	.word	0x6e19f82c
10000054:	6e196e19 	.word	0x6e196e19
10000058:	f0002005 	.word	0xf0002005
1000005c:	2101f82f 	.word	0x2101f82f
10000060:	d1f94208 	.word	0xd1f94208
10000064:	60992100 	.word	0x60992100
10000068:	6019491b 	.word	0x6019491b
1000006c:	60592100 	.word	0x60592100
10000070:	481b491a 	.word	0x481b491a
10000074:	21016001 	.word	0x21016001
10000078:	21eb6099 	.word	0x21eb6099
1000007c:	21a06619 	.word	0x21a06619
10000080:	f0006619 	.word	0xf0006619
10000084:	2100f812 	.word	0x2100f812
10000088:	49166099 	.word	0x49166099
1000008c:	60014814 	.word	0x60014814
10000090:	60992101 	.word	0x60992101
10000094:	2800bc01 	.word	0x2800bc01
10000098:	4700d000 	.word	0x4700d000
1000009c:	49134812 	.word	0x49134812
100000a0:	c8036008 	.word	0xc8036008
100000a4:	8808f380 	.word	0x8808f380
100000a8:	b5034708 	.word	0xb5034708
100000ac:	20046a99 	.word	0x20046a99
100000b0:	d0fb4201 	.word	0xd0fb4201
100000b4:	42012001 	.word	0x42012001
100000b8:	bd03d1f8 	.word	0xbd03d1f8
100000bc:	6618b502 	.word	0x6618b502
100000c0:	f7ff6618 	.word	0xf7ff6618
100000c4:	6e18fff2 	.word	0x6e18fff2
100000c8:	bd026e18 	.word	0xbd026e18
100000cc:	40020000 	.word	0x40020000
100000d0:	18000000 	.word	0x18000000
100000d4:	00070000 	.word	0x00070000
100000d8:	005f0300 	.word	0x005f0300
100000dc:	00002221 	.word	0x00002221
100000e0:	180000f4 	.word	0x180000f4
100000e4:	a0002022 	.word	0xa0002022
100000e8:	10000100 	.word	0x10000100
100000ec:	e000ed08 	.word	0xe000ed08
	...
100000fc:	7a4eb274 	.word	0x7a4eb274

Disassembly of section .text:

10000100 <__VECTOR_TABLE>:
10000100:	20042000 	.word	0x20042000
10000104:	100001f7 	.word	0x100001f7
10000108:	100001cb 	.word	0x100001cb
1000010c:	100001cd 	.word	0x100001cd
10000110:	100001c9 	.word	0x100001c9
10000114:	100001c9 	.word	0x100001c9
10000118:	100001c9 	.word	0x100001c9
1000011c:	100001c9 	.word	0x100001c9
10000120:	100001c9 	.word	0x100001c9
10000124:	100001c9 	.word	0x100001c9
10000128:	100001c9 	.word	0x100001c9
1000012c:	1000248d 	.word	0x1000248d
10000130:	100001c9 	.word	0x100001c9
10000134:	100001c9 	.word	0x100001c9
10000138:	10002421 	.word	0x10002421
1000013c:	10002505 	.word	0x10002505
10000140:	100001c1 	.word	0x100001c1
10000144:	100001c1 	.word	0x100001c1
10000148:	100001c1 	.word	0x100001c1
1000014c:	100001c1 	.word	0x100001c1
10000150:	100001c1 	.word	0x100001c1
10000154:	100001c1 	.word	0x100001c1
10000158:	100001c1 	.word	0x100001c1
1000015c:	100001c1 	.word	0x100001c1
10000160:	100001c1 	.word	0x100001c1
10000164:	100001c1 	.word	0x100001c1
10000168:	100001c1 	.word	0x100001c1
1000016c:	100001c1 	.word	0x100001c1
10000170:	100001c1 	.word	0x100001c1
10000174:	100001c1 	.word	0x100001c1
10000178:	100001c1 	.word	0x100001c1
1000017c:	100001c1 	.word	0x100001c1
10000180:	100001c1 	.word	0x100001c1
10000184:	100001c1 	.word	0x100001c1
10000188:	100001c1 	.word	0x100001c1
1000018c:	100001c1 	.word	0x100001c1
10000190:	100001c1 	.word	0x100001c1
10000194:	100001c1 	.word	0x100001c1
10000198:	100001c1 	.word	0x100001c1
1000019c:	100001c1 	.word	0x100001c1
100001a0:	100001c1 	.word	0x100001c1
100001a4:	100001c1 	.word	0x100001c1
100001a8:	100001c1 	.word	0x100001c1
100001ac:	100001c1 	.word	0x100001c1
100001b0:	100001c1 	.word	0x100001c1
100001b4:	100001c1 	.word	0x100001c1
100001b8:	100001c1 	.word	0x100001c1
100001bc:	100001c1 	.word	0x100001c1

100001c0 <__unhandled_user_irq>:
100001c0:	f3ef 8005 	mrs	r0, IPSR
100001c4:	3810      	subs	r0, #16

100001c6 <unhandled_user_irq_num_in_r0>:
100001c6:	be00      	bkpt	0x0000

100001c8 <isr_invalid>:
100001c8:	be00      	bkpt	0x0000

100001ca <isr_nmi>:
100001ca:	be00      	bkpt	0x0000

100001cc <isr_hardfault>:
100001cc:	be00      	bkpt	0x0000
100001ce:	be00      	bkpt	0x0000
100001d0:	be00      	bkpt	0x0000
100001d2:	be00      	bkpt	0x0000

100001d4 <__default_isrs_end>:
100001d4:	7188ebf2 	.word	0x7188ebf2
100001d8:	10006660 	.word	0x10006660
100001dc:	10006688 	.word	0x10006688
100001e0:	10000238 	.word	0x10000238
100001e4:	e71aa390 	.word	0xe71aa390

100001e8 <_entry_point>:
100001e8:	481e      	ldr	r0, [pc, #120]	@ (10000264 <data_cpy_table+0x2c>)

100001ea <_enter_vtable_in_r0>:
100001ea:	491f      	ldr	r1, [pc, #124]	@ (10000268 <data_cpy_table+0x30>)
100001ec:	6008      	str	r0, [r1, #0]
100001ee:	c806      	ldmia	r0!, {r1, r2}
100001f0:	f381 8808 	msr	MSP, r1
100001f4:	4710      	bx	r2

100001f6 <_reset_handler>:
100001f6:	481d      	ldr	r0, [pc, #116]	@ (1000026c <data_cpy_table+0x34>)
100001f8:	6800      	ldr	r0, [r0, #0]
100001fa:	2800      	cmp	r0, #0
100001fc:	d001      	beq.n	10000202 <hold_non_core0_in_bootrom+0x4>

100001fe <hold_non_core0_in_bootrom>:
100001fe:	4819      	ldr	r0, [pc, #100]	@ (10000264 <data_cpy_table+0x2c>)
10000200:	e7f3      	b.n	100001ea <_enter_vtable_in_r0>
10000202:	a40d      	add	r4, pc, #52	@ (adr r4, 10000238 <data_cpy_table>)
10000204:	cc0e      	ldmia	r4!, {r1, r2, r3}
10000206:	2900      	cmp	r1, #0
10000208:	d002      	beq.n	10000210 <hold_non_core0_in_bootrom+0x12>
1000020a:	f000 f812 	bl	10000232 <data_cpy>
1000020e:	e7f9      	b.n	10000204 <hold_non_core0_in_bootrom+0x6>
10000210:	4917      	ldr	r1, [pc, #92]	@ (10000270 <data_cpy_table+0x38>)
10000212:	4a18      	ldr	r2, [pc, #96]	@ (10000274 <data_cpy_table+0x3c>)
10000214:	2000      	movs	r0, #0
10000216:	e000      	b.n	1000021a <bss_fill_test>

10000218 <bss_fill_loop>:
10000218:	c101      	stmia	r1!, {r0}

1000021a <bss_fill_test>:
1000021a:	4291      	cmp	r1, r2
1000021c:	d1fc      	bne.n	10000218 <bss_fill_loop>

1000021e <platform_entry>:
1000021e:	4916      	ldr	r1, [pc, #88]	@ (10000278 <data_cpy_table+0x40>)
10000220:	4788      	blx	r1
10000222:	4916      	ldr	r1, [pc, #88]	@ (1000027c <data_cpy_table+0x44>)
10000224:	4788      	blx	r1
10000226:	4916      	ldr	r1, [pc, #88]	@ (10000280 <data_cpy_table+0x48>)
10000228:	4788      	blx	r1
1000022a:	be00      	bkpt	0x0000
1000022c:	e7fd      	b.n	1000022a <platform_entry+0xc>

1000022e <data_cpy_loop>:
1000022e:	c901      	ldmia	r1!, {r0}
10000230:	c201      	stmia	r2!, {r0}

10000232 <data_cpy>:
10000232:	429a      	cmp	r2, r3
10000234:	d3fb      	bcc.n	1000022e <data_cpy_loop>
10000236:	4770      	bx	lr

10000238 <data_cpy_table>:
10000238:	10006688 	.word	0x10006688
1000023c:	200000c0 	.word	0x200000c0
10000240:	20000460 	.word	0x20000460
10000244:	10006a28 	.word	0x10006a28
10000248:	20040000 	.word	0x20040000
1000024c:	20040000 	.word	0x20040000
10000250:	10006a28 	.word	0x10006a28
10000254:	20041000 	.word	0x20041000
10000258:	20041000 	.word	0x20041000
1000025c:	00000000 	.word	0x00000000
10000260:	4770      	bx	lr
10000262:	0000      	.short	0x0000
10000264:	00000000 	.word	0x00000000
10000268:	e000ed08 	.word	0xe000ed08
1000026c:	d0000000 	.word	0xd0000000
10000270:	20000460 	.word	0x20000460
10000274:	20008b50 	.word	0x20008b50
10000278:	10005ac1 	.word	0x10005ac1
1000027c:	10000509 	.word	0x10000509
10000280:	10005ab9 	.word	0x10005ab9

10000284 <_init>:
10000284:	b5f8      	push	{r3, r4, r5, r6, r7, lr}
10000286:	46c0      	nop			@ (mov r8, r8)

10000288 <register_tm_clones>:
10000288:	4806      	ldr	r0, [pc, #24]	@ (100002a4 <register_tm_clones+0x1c>)
1000028a:	4907      	ldr	r1, [pc, #28]	@ (100002a8 <register_tm_clones+0x20>)
1000028c:	1a09      	subs	r1, r1, r0
1000028e:	108b      	asrs	r3, r1, #2
10000290:	0fc9      	lsrs	r1, r1, #31
10000292:	18c9      	adds	r1, r1, r3
10000294:	b510      	push	{r4, lr}
10000296:	1049      	asrs	r1, r1, #1
10000298:	d003      	beq.n	100002a2 <register_tm_clones+0x1a>
1000029a:	4b04      	ldr	r3, [pc, #16]	@ (100002ac <register_tm_clones+0x24>)
1000029c:	2b00      	cmp	r3, #0
1000029e:	d000      	beq.n	100002a2 <register_tm_clones+0x1a>
100002a0:	4798      	blx	r3
100002a2:	bd10      	pop	{r4, pc}
100002a4:	20000460 	.word	0x20000460
100002a8:	20000460 	.word	0x20000460
100002ac:	00000000 	.word	0x00000000

100002b0 <frame_dummy>:
100002b0:	4b05      	ldr	r3, [pc, #20]	@ (100002c8 <frame_dummy+0x18>)
100002b2:	b510      	push	{r4, lr}
100002b4:	2b00      	cmp	r3, #0
100002b6:	d003      	beq.n	100002c0 <frame_dummy+0x10>
100002b8:	4904      	ldr	r1, [pc, #16]	@ (100002cc <frame_dummy+0x1c>)
100002ba:	4805      	ldr	r0, [pc, #20]	@ (100002d0 <frame_dummy+0x20>)
100002bc:	e000      	b.n	100002c0 <frame_dummy+0x10>
100002be:	bf00      	nop
100002c0:	f7ff ffe2 	bl	10000288 <register_tm_clones>
100002c4:	bd10      	pop	{r4, pc}
100002c6:	46c0      	nop			@ (mov r8, r8)
100002c8:	00000000 	.word	0x00000000
100002cc:	20000b1c 	.word	0x20000b1c
100002d0:	10006278 	.word	0x10006278

100002d4 <head_task>:
100002d4:	b5f8      	push	{r3, r4, r5, r6, r7, lr}
100002d6:	0007      	movs	r7, r0
100002d8:	2201      	movs	r2, #1
100002da:	2101      	movs	r1, #1
100002dc:	4252      	negs	r2, r2
100002de:	2000      	movs	r0, #0
100002e0:	f001 fd7c 	bl	10001ddc <ulTaskGenericNotifyTake>
100002e4:	69bc      	ldr	r4, [r7, #24]
100002e6:	f001 fbc5 	bl	10001a74 <xTaskGetTickCount>
100002ea:	0006      	movs	r6, r0
100002ec:	1c20      	adds	r0, r4, #0
100002ee:	f003 ff19 	bl	10004124 <__wrap___aeabi_f2uiz>
100002f2:	1e04      	subs	r4, r0, #0
100002f4:	d100      	bne.n	100002f8 <head_task+0x24>
100002f6:	3401      	adds	r4, #1
100002f8:	2301      	movs	r3, #1
100002fa:	6aba      	ldr	r2, [r7, #40]	@ 0x28
100002fc:	2101      	movs	r1, #1
100002fe:	6053      	str	r3, [r2, #4]
10000300:	6afa      	ldr	r2, [r7, #44]	@ 0x2c
10000302:	2000      	movs	r0, #0
10000304:	6053      	str	r3, [r2, #4]
10000306:	6b3a      	ldr	r2, [r7, #48]	@ 0x30
10000308:	0035      	movs	r5, r6
1000030a:	6053      	str	r3, [r2, #4]
1000030c:	2200      	movs	r2, #0
1000030e:	f001 fd65 	bl	10001ddc <ulTaskGenericNotifyTake>
10000312:	2800      	cmp	r0, #0
10000314:	d016      	beq.n	10000344 <head_task+0x70>
10000316:	69b8      	ldr	r0, [r7, #24]
10000318:	f003 ff04 	bl	10004124 <__wrap___aeabi_f2uiz>
1000031c:	1e04      	subs	r4, r0, #0
1000031e:	d100      	bne.n	10000322 <head_task+0x4e>
10000320:	3401      	adds	r4, #1
10000322:	2005      	movs	r0, #5
10000324:	f001 fb68 	bl	100019f8 <vTaskDelay>
10000328:	f001 fba4 	bl	10001a74 <xTaskGetTickCount>
1000032c:	1b43      	subs	r3, r0, r5
1000032e:	42a3      	cmp	r3, r4
10000330:	d210      	bcs.n	10000354 <head_task+0x80>
10000332:	002e      	movs	r6, r5
10000334:	0005      	movs	r5, r0
10000336:	2200      	movs	r2, #0
10000338:	2101      	movs	r1, #1
1000033a:	2000      	movs	r0, #0
1000033c:	f001 fd4e 	bl	10001ddc <ulTaskGenericNotifyTake>
10000340:	2800      	cmp	r0, #0
10000342:	d1e8      	bne.n	10000316 <head_task+0x42>
10000344:	2005      	movs	r0, #5
10000346:	f001 fb57 	bl	100019f8 <vTaskDelay>
1000034a:	f001 fb93 	bl	10001a74 <xTaskGetTickCount>
1000034e:	1b83      	subs	r3, r0, r6
10000350:	42a3      	cmp	r3, r4
10000352:	d3ef      	bcc.n	10000334 <head_task+0x60>
10000354:	2300      	movs	r3, #0
10000356:	6aba      	ldr	r2, [r7, #40]	@ 0x28
10000358:	6053      	str	r3, [r2, #4]
1000035a:	6afa      	ldr	r2, [r7, #44]	@ 0x2c
1000035c:	6053      	str	r3, [r2, #4]
1000035e:	6b3a      	ldr	r2, [r7, #48]	@ 0x30
10000360:	6053      	str	r3, [r2, #4]
10000362:	e7b9      	b.n	100002d8 <head_task+0x4>

10000364 <stepper_test_task>:
10000364:	b5f0      	push	{r4, r5, r6, r7, lr}
10000366:	0005      	movs	r5, r0
10000368:	4647      	mov	r7, r8
1000036a:	46ce      	mov	lr, r9
1000036c:	2300      	movs	r3, #0
1000036e:	350c      	adds	r5, #12
10000370:	b580      	push	{r7, lr}
10000372:	46a9      	mov	r9, r5
10000374:	0007      	movs	r7, r0
10000376:	4698      	mov	r8, r3
10000378:	b089      	sub	sp, #36	@ 0x24
1000037a:	4e0d      	ldr	r6, [pc, #52]	@ (100003b0 <stepper_test_task+0x4c>)
1000037c:	ac03      	add	r4, sp, #12
1000037e:	0023      	movs	r3, r4
10000380:	0032      	movs	r2, r6
10000382:	ca23      	ldmia	r2!, {r0, r1, r5}
10000384:	c323      	stmia	r3!, {r0, r1, r5}
10000386:	ca03      	ldmia	r2!, {r0, r1}
10000388:	c303      	stmia	r3!, {r0, r1}
1000038a:	464b      	mov	r3, r9
1000038c:	0022      	movs	r2, r4
1000038e:	ca23      	ldmia	r2!, {r0, r1, r5}
10000390:	c323      	stmia	r3!, {r0, r1, r5}
10000392:	ca03      	ldmia	r2!, {r0, r1}
10000394:	c303      	stmia	r3!, {r0, r1}
10000396:	4643      	mov	r3, r8
10000398:	6a38      	ldr	r0, [r7, #32]
1000039a:	2200      	movs	r2, #0
1000039c:	9300      	str	r3, [sp, #0]
1000039e:	2100      	movs	r1, #0
100003a0:	2302      	movs	r3, #2
100003a2:	f001 fd71 	bl	10001e88 <xTaskGenericNotify>
100003a6:	4803      	ldr	r0, [pc, #12]	@ (100003b4 <stepper_test_task+0x50>)
100003a8:	f001 fb26 	bl	100019f8 <vTaskDelay>
100003ac:	e7e7      	b.n	1000037e <stepper_test_task+0x1a>
100003ae:	46c0      	nop			@ (mov r8, r8)
100003b0:	100063c0 	.word	0x100063c0
100003b4:	00001388 	.word	0x00001388

100003b8 <stepper_task>:
100003b8:	b5f0      	push	{r4, r5, r6, r7, lr}
100003ba:	46de      	mov	lr, fp
100003bc:	4657      	mov	r7, sl
100003be:	464e      	mov	r6, r9
100003c0:	4645      	mov	r5, r8
100003c2:	b5e0      	push	{r5, r6, r7, lr}
100003c4:	2501      	movs	r5, #1
100003c6:	7843      	ldrb	r3, [r0, #1]
100003c8:	7804      	ldrb	r4, [r0, #0]
100003ca:	4699      	mov	r9, r3
100003cc:	7883      	ldrb	r3, [r0, #2]
100003ce:	78c7      	ldrb	r7, [r0, #3]
100003d0:	b085      	sub	sp, #20
100003d2:	0006      	movs	r6, r0
100003d4:	0020      	movs	r0, r4
100003d6:	4698      	mov	r8, r3
100003d8:	f002 fa0c 	bl	100027f4 <gpio_init>
100003dc:	002b      	movs	r3, r5
100003de:	40a3      	lsls	r3, r4
100003e0:	24d0      	movs	r4, #208	@ 0xd0
100003e2:	0624      	lsls	r4, r4, #24
100003e4:	4648      	mov	r0, r9
100003e6:	6263      	str	r3, [r4, #36]	@ 0x24
100003e8:	469b      	mov	fp, r3
100003ea:	f002 fa03 	bl	100027f4 <gpio_init>
100003ee:	464a      	mov	r2, r9
100003f0:	002b      	movs	r3, r5
100003f2:	4093      	lsls	r3, r2
100003f4:	4640      	mov	r0, r8
100003f6:	6263      	str	r3, [r4, #36]	@ 0x24
100003f8:	469a      	mov	sl, r3
100003fa:	f002 f9fb 	bl	100027f4 <gpio_init>
100003fe:	4642      	mov	r2, r8
10000400:	002b      	movs	r3, r5
10000402:	4093      	lsls	r3, r2
10000404:	0038      	movs	r0, r7
10000406:	6263      	str	r3, [r4, #36]	@ 0x24
10000408:	40bd      	lsls	r5, r7
1000040a:	4699      	mov	r9, r3
1000040c:	f002 f9f2 	bl	100027f4 <gpio_init>
10000410:	2300      	movs	r3, #0
10000412:	6265      	str	r5, [r4, #36]	@ 0x24
10000414:	60f3      	str	r3, [r6, #12]
10000416:	465b      	mov	r3, fp
10000418:	6163      	str	r3, [r4, #20]
1000041a:	4653      	mov	r3, sl
1000041c:	6163      	str	r3, [r4, #20]
1000041e:	464b      	mov	r3, r9
10000420:	21fa      	movs	r1, #250	@ 0xfa
10000422:	61a3      	str	r3, [r4, #24]
10000424:	61a5      	str	r5, [r4, #24]
10000426:	68b0      	ldr	r0, [r6, #8]
10000428:	0089      	lsls	r1, r1, #2
1000042a:	f003 fb01 	bl	10003a30 <__wrap___aeabi_uidiv>
1000042e:	46a8      	mov	r8, r5
10000430:	1e07      	subs	r7, r0, #0
10000432:	d100      	bne.n	10000436 <stepper_task+0x7e>
10000434:	3701      	adds	r7, #1
10000436:	f001 fb1d 	bl	10001a74 <xTaskGetTickCount>
1000043a:	24d0      	movs	r4, #208	@ 0xd0
1000043c:	4b1d      	ldr	r3, [pc, #116]	@ (100004b4 <stepper_task+0xfc>)
1000043e:	2501      	movs	r5, #1
10000440:	9003      	str	r0, [sp, #12]
10000442:	9301      	str	r3, [sp, #4]
10000444:	0624      	lsls	r4, r4, #24
10000446:	e013      	b.n	10000470 <stepper_task+0xb8>
10000448:	465a      	mov	r2, fp
1000044a:	6162      	str	r2, [r4, #20]
1000044c:	089a      	lsrs	r2, r3, #2
1000044e:	4215      	tst	r5, r2
10000450:	d024      	beq.n	1000049c <stepper_task+0xe4>
10000452:	4652      	mov	r2, sl
10000454:	6162      	str	r2, [r4, #20]
10000456:	085a      	lsrs	r2, r3, #1
10000458:	4215      	tst	r5, r2
1000045a:	d024      	beq.n	100004a6 <stepper_task+0xee>
1000045c:	464a      	mov	r2, r9
1000045e:	6162      	str	r2, [r4, #20]
10000460:	421d      	tst	r5, r3
10000462:	d024      	beq.n	100004ae <stepper_task+0xf6>
10000464:	4643      	mov	r3, r8
10000466:	6163      	str	r3, [r4, #20]
10000468:	0039      	movs	r1, r7
1000046a:	a803      	add	r0, sp, #12
1000046c:	f001 fa6e 	bl	1000194c <xTaskDelayUntil>
10000470:	6872      	ldr	r2, [r6, #4]
10000472:	2a00      	cmp	r2, #0
10000474:	d0f8      	beq.n	10000468 <stepper_task+0xb0>
10000476:	2103      	movs	r1, #3
10000478:	68f3      	ldr	r3, [r6, #12]
1000047a:	2a00      	cmp	r2, #0
1000047c:	dd00      	ble.n	10000480 <stepper_task+0xc8>
1000047e:	3902      	subs	r1, #2
10000480:	2203      	movs	r2, #3
10000482:	185b      	adds	r3, r3, r1
10000484:	4013      	ands	r3, r2
10000486:	9a01      	ldr	r2, [sp, #4]
10000488:	60f3      	str	r3, [r6, #12]
1000048a:	5cd3      	ldrb	r3, [r2, r3]
1000048c:	08da      	lsrs	r2, r3, #3
1000048e:	4215      	tst	r5, r2
10000490:	d1da      	bne.n	10000448 <stepper_task+0x90>
10000492:	465a      	mov	r2, fp
10000494:	61a2      	str	r2, [r4, #24]
10000496:	089a      	lsrs	r2, r3, #2
10000498:	4215      	tst	r5, r2
1000049a:	d1da      	bne.n	10000452 <stepper_task+0x9a>
1000049c:	4652      	mov	r2, sl
1000049e:	61a2      	str	r2, [r4, #24]
100004a0:	085a      	lsrs	r2, r3, #1
100004a2:	4215      	tst	r5, r2
100004a4:	d1da      	bne.n	1000045c <stepper_task+0xa4>
100004a6:	464a      	mov	r2, r9
100004a8:	61a2      	str	r2, [r4, #24]
100004aa:	421d      	tst	r5, r3
100004ac:	d1da      	bne.n	10000464 <stepper_task+0xac>
100004ae:	4643      	mov	r3, r8
100004b0:	61a3      	str	r3, [r4, #24]
100004b2:	e7d9      	b.n	10000468 <stepper_task+0xb0>
100004b4:	100063bc 	.word	0x100063bc

100004b8 <vApplicationGetIdleTaskMemory>:
100004b8:	4b03      	ldr	r3, [pc, #12]	@ (100004c8 <vApplicationGetIdleTaskMemory+0x10>)
100004ba:	6003      	str	r3, [r0, #0]
100004bc:	4b03      	ldr	r3, [pc, #12]	@ (100004cc <vApplicationGetIdleTaskMemory+0x14>)
100004be:	600b      	str	r3, [r1, #0]
100004c0:	2380      	movs	r3, #128	@ 0x80
100004c2:	8013      	strh	r3, [r2, #0]
100004c4:	4770      	bx	lr
100004c6:	46c0      	nop			@ (mov r8, r8)
100004c8:	20000aa0 	.word	0x20000aa0
100004cc:	200008a0 	.word	0x200008a0

100004d0 <vApplicationGetTimerTaskMemory>:
100004d0:	4b03      	ldr	r3, [pc, #12]	@ (100004e0 <vApplicationGetTimerTaskMemory+0x10>)
100004d2:	6003      	str	r3, [r0, #0]
100004d4:	4b03      	ldr	r3, [pc, #12]	@ (100004e4 <vApplicationGetTimerTaskMemory+0x14>)
100004d6:	600b      	str	r3, [r1, #0]
100004d8:	2380      	movs	r3, #128	@ 0x80
100004da:	005b      	lsls	r3, r3, #1
100004dc:	8013      	strh	r3, [r2, #0]
100004de:	4770      	bx	lr
100004e0:	200010d4 	.word	0x200010d4
100004e4:	20000cd4 	.word	0x20000cd4

100004e8 <vApplicationStackOverflowHook>:
100004e8:	b510      	push	{r4, lr}
100004ea:	4802      	ldr	r0, [pc, #8]	@ (100004f4 <vApplicationStackOverflowHook+0xc>)
100004ec:	f005 fcfa 	bl	10005ee4 <__wrap_printf>
100004f0:	e7fe      	b.n	100004f0 <vApplicationStackOverflowHook+0x8>
100004f2:	46c0      	nop			@ (mov r8, r8)
100004f4:	10006278 	.word	0x10006278

100004f8 <vApplicationMallocFailedHook>:
100004f8:	b510      	push	{r4, lr}
100004fa:	4802      	ldr	r0, [pc, #8]	@ (10000504 <vApplicationMallocFailedHook+0xc>)
100004fc:	f005 fc6e 	bl	10005ddc <__wrap_puts>
10000500:	e7fe      	b.n	10000500 <vApplicationMallocFailedHook+0x8>
10000502:	46c0      	nop			@ (mov r8, r8)
10000504:	1000628c 	.word	0x1000628c

10000508 <main>:
10000508:	b5f0      	push	{r4, r5, r6, r7, lr}
1000050a:	46ce      	mov	lr, r9
1000050c:	4647      	mov	r7, r8
1000050e:	b580      	push	{r7, lr}
10000510:	b083      	sub	sp, #12
10000512:	f005 fc13 	bl	10005d3c <stdio_init_all>
10000516:	4c25      	ldr	r4, [pc, #148]	@ (100005ac <main+0xa4>)
10000518:	2214      	movs	r2, #20
1000051a:	0020      	movs	r0, r4
1000051c:	2100      	movs	r1, #0
1000051e:	300c      	adds	r0, #12
10000520:	f003 fe42 	bl	100041a8 <__wrap_memset>
10000524:	2300      	movs	r3, #0
10000526:	2001      	movs	r0, #1
10000528:	6023      	str	r3, [r4, #0]
1000052a:	6063      	str	r3, [r4, #4]
1000052c:	60a3      	str	r3, [r4, #8]
1000052e:	f000 fa91 	bl	10000a54 <xQueueCreateMutex>
10000532:	4a1f      	ldr	r2, [pc, #124]	@ (100005b0 <main+0xa8>)
10000534:	2502      	movs	r5, #2
10000536:	62e2      	str	r2, [r4, #44]	@ 0x2c
10000538:	4691      	mov	r9, r2
1000053a:	4a1e      	ldr	r2, [pc, #120]	@ (100005b4 <main+0xac>)
1000053c:	2700      	movs	r7, #0
1000053e:	6322      	str	r2, [r4, #48]	@ 0x30
10000540:	4690      	mov	r8, r2
10000542:	2280      	movs	r2, #128	@ 0x80
10000544:	4e1c      	ldr	r6, [pc, #112]	@ (100005b8 <main+0xb0>)
10000546:	4b1d      	ldr	r3, [pc, #116]	@ (100005bc <main+0xb4>)
10000548:	6260      	str	r0, [r4, #36]	@ 0x24
1000054a:	62a3      	str	r3, [r4, #40]	@ 0x28
1000054c:	491c      	ldr	r1, [pc, #112]	@ (100005c0 <main+0xb8>)
1000054e:	0052      	lsls	r2, r2, #1
10000550:	0030      	movs	r0, r6
10000552:	9701      	str	r7, [sp, #4]
10000554:	9500      	str	r5, [sp, #0]
10000556:	f001 f821 	bl	1000159c <xTaskCreate>
1000055a:	2280      	movs	r2, #128	@ 0x80
1000055c:	464b      	mov	r3, r9
1000055e:	4919      	ldr	r1, [pc, #100]	@ (100005c4 <main+0xbc>)
10000560:	0052      	lsls	r2, r2, #1
10000562:	0030      	movs	r0, r6
10000564:	9701      	str	r7, [sp, #4]
10000566:	9500      	str	r5, [sp, #0]
10000568:	f001 f818 	bl	1000159c <xTaskCreate>
1000056c:	2280      	movs	r2, #128	@ 0x80
1000056e:	4643      	mov	r3, r8
10000570:	4915      	ldr	r1, [pc, #84]	@ (100005c8 <main+0xc0>)
10000572:	0052      	lsls	r2, r2, #1
10000574:	0030      	movs	r0, r6
10000576:	9701      	str	r7, [sp, #4]
10000578:	9500      	str	r5, [sp, #0]
1000057a:	f001 f80f 	bl	1000159c <xTaskCreate>
1000057e:	0023      	movs	r3, r4
10000580:	2280      	movs	r2, #128	@ 0x80
10000582:	3320      	adds	r3, #32
10000584:	4911      	ldr	r1, [pc, #68]	@ (100005cc <main+0xc4>)
10000586:	9301      	str	r3, [sp, #4]
10000588:	0052      	lsls	r2, r2, #1
1000058a:	0023      	movs	r3, r4
1000058c:	4810      	ldr	r0, [pc, #64]	@ (100005d0 <main+0xc8>)
1000058e:	9500      	str	r5, [sp, #0]
10000590:	f001 f804 	bl	1000159c <xTaskCreate>
10000594:	2280      	movs	r2, #128	@ 0x80
10000596:	0023      	movs	r3, r4
10000598:	490e      	ldr	r1, [pc, #56]	@ (100005d4 <main+0xcc>)
1000059a:	0052      	lsls	r2, r2, #1
1000059c:	480e      	ldr	r0, [pc, #56]	@ (100005d8 <main+0xd0>)
1000059e:	9701      	str	r7, [sp, #4]
100005a0:	9500      	str	r5, [sp, #0]
100005a2:	f000 fffb 	bl	1000159c <xTaskCreate>
100005a6:	f001 f895 	bl	100016d4 <vTaskStartScheduler>
100005aa:	e7fe      	b.n	100005aa <main+0xa2>
100005ac:	2000086c 	.word	0x2000086c
100005b0:	20000398 	.word	0x20000398
100005b4:	20000388 	.word	0x20000388
100005b8:	100003b9 	.word	0x100003b9
100005bc:	200003a8 	.word	0x200003a8
100005c0:	1000629c 	.word	0x1000629c
100005c4:	100062a0 	.word	0x100062a0
100005c8:	100062a4 	.word	0x100062a4
100005cc:	100062a8 	.word	0x100062a8
100005d0:	100002d5 	.word	0x100002d5
100005d4:	100062b0 	.word	0x100062b0
100005d8:	10000365 	.word	0x10000365

100005dc <vListInitialise>:
100005dc:	0003      	movs	r3, r0
100005de:	3308      	adds	r3, #8
100005e0:	2201      	movs	r2, #1
100005e2:	6043      	str	r3, [r0, #4]
100005e4:	60c3      	str	r3, [r0, #12]
100005e6:	6103      	str	r3, [r0, #16]
100005e8:	2300      	movs	r3, #0
100005ea:	4252      	negs	r2, r2
100005ec:	6082      	str	r2, [r0, #8]
100005ee:	6003      	str	r3, [r0, #0]
100005f0:	4770      	bx	lr
100005f2:	46c0      	nop			@ (mov r8, r8)

100005f4 <vListInitialiseItem>:
100005f4:	2300      	movs	r3, #0
100005f6:	6103      	str	r3, [r0, #16]
100005f8:	4770      	bx	lr
100005fa:	46c0      	nop			@ (mov r8, r8)

100005fc <vListInsert>:
100005fc:	0003      	movs	r3, r0
100005fe:	b530      	push	{r4, r5, lr}
10000600:	680d      	ldr	r5, [r1, #0]
10000602:	3308      	adds	r3, #8
10000604:	1c6a      	adds	r2, r5, #1
10000606:	d00d      	beq.n	10000624 <vListInsert+0x28>
10000608:	001c      	movs	r4, r3
1000060a:	685b      	ldr	r3, [r3, #4]
1000060c:	681a      	ldr	r2, [r3, #0]
1000060e:	42aa      	cmp	r2, r5
10000610:	d9fa      	bls.n	10000608 <vListInsert+0xc>
10000612:	604b      	str	r3, [r1, #4]
10000614:	6099      	str	r1, [r3, #8]
10000616:	6803      	ldr	r3, [r0, #0]
10000618:	608c      	str	r4, [r1, #8]
1000061a:	3301      	adds	r3, #1
1000061c:	6061      	str	r1, [r4, #4]
1000061e:	6108      	str	r0, [r1, #16]
10000620:	6003      	str	r3, [r0, #0]
10000622:	bd30      	pop	{r4, r5, pc}
10000624:	6904      	ldr	r4, [r0, #16]
10000626:	6863      	ldr	r3, [r4, #4]
10000628:	e7f3      	b.n	10000612 <vListInsert+0x16>
1000062a:	46c0      	nop			@ (mov r8, r8)

1000062c <uxListRemove>:
1000062c:	6903      	ldr	r3, [r0, #16]
1000062e:	6841      	ldr	r1, [r0, #4]
10000630:	6882      	ldr	r2, [r0, #8]
10000632:	608a      	str	r2, [r1, #8]
10000634:	6051      	str	r1, [r2, #4]
10000636:	6859      	ldr	r1, [r3, #4]
10000638:	4281      	cmp	r1, r0
1000063a:	d005      	beq.n	10000648 <uxListRemove+0x1c>
1000063c:	2200      	movs	r2, #0
1000063e:	6102      	str	r2, [r0, #16]
10000640:	6818      	ldr	r0, [r3, #0]
10000642:	3801      	subs	r0, #1
10000644:	6018      	str	r0, [r3, #0]
10000646:	4770      	bx	lr
10000648:	605a      	str	r2, [r3, #4]
1000064a:	e7f7      	b.n	1000063c <uxListRemove+0x10>

1000064c <xQueueGenericCreateStatic>:
1000064c:	b570      	push	{r4, r5, r6, lr}
1000064e:	b082      	sub	sp, #8
10000650:	001c      	movs	r4, r3
10000652:	466b      	mov	r3, sp
10000654:	7e1d      	ldrb	r5, [r3, #24]
10000656:	2800      	cmp	r0, #0
10000658:	d035      	beq.n	100006c6 <xQueueGenericCreateStatic+0x7a>
1000065a:	2c00      	cmp	r4, #0
1000065c:	d033      	beq.n	100006c6 <xQueueGenericCreateStatic+0x7a>
1000065e:	2a00      	cmp	r2, #0
10000660:	d034      	beq.n	100006cc <xQueueGenericCreateStatic+0x80>
10000662:	2900      	cmp	r1, #0
10000664:	d02f      	beq.n	100006c6 <xQueueGenericCreateStatic+0x7a>
10000666:	2350      	movs	r3, #80	@ 0x50
10000668:	9301      	str	r3, [sp, #4]
1000066a:	9b01      	ldr	r3, [sp, #4]
1000066c:	2346      	movs	r3, #70	@ 0x46
1000066e:	2601      	movs	r6, #1
10000670:	54e6      	strb	r6, [r4, r3]
10000672:	6022      	str	r2, [r4, #0]
10000674:	63e0      	str	r0, [r4, #60]	@ 0x3c
10000676:	6421      	str	r1, [r4, #64]	@ 0x40
10000678:	0c03      	lsrs	r3, r0, #16
1000067a:	0c0a      	lsrs	r2, r1, #16
1000067c:	2b00      	cmp	r3, #0
1000067e:	d12c      	bne.n	100006da <xQueueGenericCreateStatic+0x8e>
10000680:	2a00      	cmp	r2, #0
10000682:	d138      	bne.n	100006f6 <xQueueGenericCreateStatic+0xaa>
10000684:	f001 ff20 	bl	100024c8 <vPortEnterCritical>
10000688:	6c21      	ldr	r1, [r4, #64]	@ 0x40
1000068a:	6be3      	ldr	r3, [r4, #60]	@ 0x3c
1000068c:	6822      	ldr	r2, [r4, #0]
1000068e:	434b      	muls	r3, r1
10000690:	18d0      	adds	r0, r2, r3
10000692:	60a0      	str	r0, [r4, #8]
10000694:	2000      	movs	r0, #0
10000696:	1a5b      	subs	r3, r3, r1
10000698:	6062      	str	r2, [r4, #4]
1000069a:	18d2      	adds	r2, r2, r3
1000069c:	60e2      	str	r2, [r4, #12]
1000069e:	23ff      	movs	r3, #255	@ 0xff
100006a0:	2244      	movs	r2, #68	@ 0x44
100006a2:	63a0      	str	r0, [r4, #56]	@ 0x38
100006a4:	0020      	movs	r0, r4
100006a6:	54a3      	strb	r3, [r4, r2]
100006a8:	3201      	adds	r2, #1
100006aa:	54a3      	strb	r3, [r4, r2]
100006ac:	3010      	adds	r0, #16
100006ae:	f7ff ff95 	bl	100005dc <vListInitialise>
100006b2:	0020      	movs	r0, r4
100006b4:	3024      	adds	r0, #36	@ 0x24
100006b6:	f7ff ff91 	bl	100005dc <vListInitialise>
100006ba:	f001 ff11 	bl	100024e0 <vPortExitCritical>
100006be:	234c      	movs	r3, #76	@ 0x4c
100006c0:	0020      	movs	r0, r4
100006c2:	54e5      	strb	r5, [r4, r3]
100006c4:	e000      	b.n	100006c8 <xQueueGenericCreateStatic+0x7c>
100006c6:	2000      	movs	r0, #0
100006c8:	b002      	add	sp, #8
100006ca:	bd70      	pop	{r4, r5, r6, pc}
100006cc:	2900      	cmp	r1, #0
100006ce:	d1fa      	bne.n	100006c6 <xQueueGenericCreateStatic+0x7a>
100006d0:	2350      	movs	r3, #80	@ 0x50
100006d2:	9301      	str	r3, [sp, #4]
100006d4:	0022      	movs	r2, r4
100006d6:	9b01      	ldr	r3, [sp, #4]
100006d8:	e7c8      	b.n	1000066c <xQueueGenericCreateStatic+0x20>
100006da:	2a00      	cmp	r2, #0
100006dc:	d1ef      	bne.n	100006be <xQueueGenericCreateStatic+0x72>
100006de:	1c0a      	adds	r2, r1, #0
100006e0:	b280      	uxth	r0, r0
100006e2:	b289      	uxth	r1, r1
100006e4:	4341      	muls	r1, r0
100006e6:	b292      	uxth	r2, r2
100006e8:	b29b      	uxth	r3, r3
100006ea:	4353      	muls	r3, r2
100006ec:	0c09      	lsrs	r1, r1, #16
100006ee:	185b      	adds	r3, r3, r1
100006f0:	0c1b      	lsrs	r3, r3, #16
100006f2:	d0c7      	beq.n	10000684 <xQueueGenericCreateStatic+0x38>
100006f4:	e7e3      	b.n	100006be <xQueueGenericCreateStatic+0x72>
100006f6:	1c13      	adds	r3, r2, #0
100006f8:	1c02      	adds	r2, r0, #0
100006fa:	e7f1      	b.n	100006e0 <xQueueGenericCreateStatic+0x94>

100006fc <xQueueGenericSend>:
100006fc:	b5f0      	push	{r4, r5, r6, r7, lr}
100006fe:	46ce      	mov	lr, r9
10000700:	4647      	mov	r7, r8
10000702:	0004      	movs	r4, r0
10000704:	b580      	push	{r7, lr}
10000706:	b085      	sub	sp, #20
10000708:	4699      	mov	r9, r3
1000070a:	9201      	str	r2, [sp, #4]
1000070c:	4688      	mov	r8, r1
1000070e:	f001 fedb 	bl	100024c8 <vPortEnterCritical>
10000712:	6ba2      	ldr	r2, [r4, #56]	@ 0x38
10000714:	6be3      	ldr	r3, [r4, #60]	@ 0x3c
10000716:	429a      	cmp	r2, r3
10000718:	d200      	bcs.n	1000071c <xQueueGenericSend+0x20>
1000071a:	e080      	b.n	1000081e <xQueueGenericSend+0x122>
1000071c:	464a      	mov	r2, r9
1000071e:	2300      	movs	r3, #0
10000720:	2a02      	cmp	r2, #2
10000722:	d100      	bne.n	10000726 <xQueueGenericSend+0x2a>
10000724:	e0f4      	b.n	10000910 <xQueueGenericSend+0x214>
10000726:	0026      	movs	r6, r4
10000728:	3624      	adds	r6, #36	@ 0x24
1000072a:	9a01      	ldr	r2, [sp, #4]
1000072c:	2a00      	cmp	r2, #0
1000072e:	d100      	bne.n	10000732 <xQueueGenericSend+0x36>
10000730:	e104      	b.n	1000093c <xQueueGenericSend+0x240>
10000732:	2b00      	cmp	r3, #0
10000734:	d100      	bne.n	10000738 <xQueueGenericSend+0x3c>
10000736:	e0e7      	b.n	10000908 <xQueueGenericSend+0x20c>
10000738:	f001 fed2 	bl	100024e0 <vPortExitCritical>
1000073c:	f001 f838 	bl	100017b0 <vTaskSuspendAll>
10000740:	f001 fec2 	bl	100024c8 <vPortEnterCritical>
10000744:	2244      	movs	r2, #68	@ 0x44
10000746:	5ca3      	ldrb	r3, [r4, r2]
10000748:	b25b      	sxtb	r3, r3
1000074a:	3301      	adds	r3, #1
1000074c:	d101      	bne.n	10000752 <xQueueGenericSend+0x56>
1000074e:	2300      	movs	r3, #0
10000750:	54a3      	strb	r3, [r4, r2]
10000752:	2245      	movs	r2, #69	@ 0x45
10000754:	5ca3      	ldrb	r3, [r4, r2]
10000756:	b25b      	sxtb	r3, r3
10000758:	3301      	adds	r3, #1
1000075a:	d101      	bne.n	10000760 <xQueueGenericSend+0x64>
1000075c:	2300      	movs	r3, #0
1000075e:	54a3      	strb	r3, [r4, r2]
10000760:	f001 febe 	bl	100024e0 <vPortExitCritical>
10000764:	a901      	add	r1, sp, #4
10000766:	a802      	add	r0, sp, #8
10000768:	f001 fad2 	bl	10001d10 <xTaskCheckForTimeOut>
1000076c:	2800      	cmp	r0, #0
1000076e:	d000      	beq.n	10000772 <xQueueGenericSend+0x76>
10000770:	e0e8      	b.n	10000944 <xQueueGenericSend+0x248>
10000772:	f001 fea9 	bl	100024c8 <vPortEnterCritical>
10000776:	6ba2      	ldr	r2, [r4, #56]	@ 0x38
10000778:	6be3      	ldr	r3, [r4, #60]	@ 0x3c
1000077a:	429a      	cmp	r2, r3
1000077c:	d100      	bne.n	10000780 <xQueueGenericSend+0x84>
1000077e:	e071      	b.n	10000864 <xQueueGenericSend+0x168>
10000780:	f001 feae 	bl	100024e0 <vPortExitCritical>
10000784:	f001 fea0 	bl	100024c8 <vPortEnterCritical>
10000788:	2345      	movs	r3, #69	@ 0x45
1000078a:	5ce5      	ldrb	r5, [r4, r3]
1000078c:	b26d      	sxtb	r5, r5
1000078e:	2d00      	cmp	r5, #0
10000790:	dc05      	bgt.n	1000079e <xQueueGenericSend+0xa2>
10000792:	e013      	b.n	100007bc <xQueueGenericSend+0xc0>
10000794:	3d01      	subs	r5, #1
10000796:	b2eb      	uxtb	r3, r5
10000798:	b26d      	sxtb	r5, r5
1000079a:	2b00      	cmp	r3, #0
1000079c:	d00e      	beq.n	100007bc <xQueueGenericSend+0xc0>
1000079e:	6a63      	ldr	r3, [r4, #36]	@ 0x24
100007a0:	2b00      	cmp	r3, #0
100007a2:	d00b      	beq.n	100007bc <xQueueGenericSend+0xc0>
100007a4:	0030      	movs	r0, r6
100007a6:	f001 fa3b 	bl	10001c20 <xTaskRemoveFromEventList>
100007aa:	2800      	cmp	r0, #0
100007ac:	d0f2      	beq.n	10000794 <xQueueGenericSend+0x98>
100007ae:	3d01      	subs	r5, #1
100007b0:	f001 fadc 	bl	10001d6c <vTaskMissedYield>
100007b4:	b2eb      	uxtb	r3, r5
100007b6:	b26d      	sxtb	r5, r5
100007b8:	2b00      	cmp	r3, #0
100007ba:	d1f0      	bne.n	1000079e <xQueueGenericSend+0xa2>
100007bc:	2345      	movs	r3, #69	@ 0x45
100007be:	22ff      	movs	r2, #255	@ 0xff
100007c0:	54e2      	strb	r2, [r4, r3]
100007c2:	f001 fe8d 	bl	100024e0 <vPortExitCritical>
100007c6:	f001 fe7f 	bl	100024c8 <vPortEnterCritical>
100007ca:	2344      	movs	r3, #68	@ 0x44
100007cc:	0027      	movs	r7, r4
100007ce:	5ce5      	ldrb	r5, [r4, r3]
100007d0:	3710      	adds	r7, #16
100007d2:	b26d      	sxtb	r5, r5
100007d4:	2d00      	cmp	r5, #0
100007d6:	dc05      	bgt.n	100007e4 <xQueueGenericSend+0xe8>
100007d8:	e013      	b.n	10000802 <xQueueGenericSend+0x106>
100007da:	3d01      	subs	r5, #1
100007dc:	b2eb      	uxtb	r3, r5
100007de:	b26d      	sxtb	r5, r5
100007e0:	2b00      	cmp	r3, #0
100007e2:	d00e      	beq.n	10000802 <xQueueGenericSend+0x106>
100007e4:	6923      	ldr	r3, [r4, #16]
100007e6:	2b00      	cmp	r3, #0
100007e8:	d00b      	beq.n	10000802 <xQueueGenericSend+0x106>
100007ea:	0038      	movs	r0, r7
100007ec:	f001 fa18 	bl	10001c20 <xTaskRemoveFromEventList>
100007f0:	2800      	cmp	r0, #0
100007f2:	d0f2      	beq.n	100007da <xQueueGenericSend+0xde>
100007f4:	3d01      	subs	r5, #1
100007f6:	f001 fab9 	bl	10001d6c <vTaskMissedYield>
100007fa:	b2eb      	uxtb	r3, r5
100007fc:	b26d      	sxtb	r5, r5
100007fe:	2b00      	cmp	r3, #0
10000800:	d1f0      	bne.n	100007e4 <xQueueGenericSend+0xe8>
10000802:	2344      	movs	r3, #68	@ 0x44
10000804:	22ff      	movs	r2, #255	@ 0xff
10000806:	54e2      	strb	r2, [r4, r3]
10000808:	f001 fe6a 	bl	100024e0 <vPortExitCritical>
1000080c:	f000 ffd8 	bl	100017c0 <xTaskResumeAll>
10000810:	f001 fe5a 	bl	100024c8 <vPortEnterCritical>
10000814:	6ba2      	ldr	r2, [r4, #56]	@ 0x38
10000816:	6be1      	ldr	r1, [r4, #60]	@ 0x3c
10000818:	2301      	movs	r3, #1
1000081a:	4291      	cmp	r1, r2
1000081c:	d985      	bls.n	1000072a <xQueueGenericSend+0x2e>
1000081e:	6c22      	ldr	r2, [r4, #64]	@ 0x40
10000820:	6ba5      	ldr	r5, [r4, #56]	@ 0x38
10000822:	2a00      	cmp	r2, #0
10000824:	d100      	bne.n	10000828 <xQueueGenericSend+0x12c>
10000826:	e077      	b.n	10000918 <xQueueGenericSend+0x21c>
10000828:	464b      	mov	r3, r9
1000082a:	2b00      	cmp	r3, #0
1000082c:	d000      	beq.n	10000830 <xQueueGenericSend+0x134>
1000082e:	e0fb      	b.n	10000a28 <xQueueGenericSend+0x32c>
10000830:	4641      	mov	r1, r8
10000832:	6860      	ldr	r0, [r4, #4]
10000834:	f003 fcbe 	bl	100041b4 <__wrap___aeabi_memcpy>
10000838:	6863      	ldr	r3, [r4, #4]
1000083a:	6c22      	ldr	r2, [r4, #64]	@ 0x40
1000083c:	68a1      	ldr	r1, [r4, #8]
1000083e:	189b      	adds	r3, r3, r2
10000840:	6063      	str	r3, [r4, #4]
10000842:	6a62      	ldr	r2, [r4, #36]	@ 0x24
10000844:	3501      	adds	r5, #1
10000846:	428b      	cmp	r3, r1
10000848:	d301      	bcc.n	1000084e <xQueueGenericSend+0x152>
1000084a:	6823      	ldr	r3, [r4, #0]
1000084c:	6063      	str	r3, [r4, #4]
1000084e:	63a5      	str	r5, [r4, #56]	@ 0x38
10000850:	2a00      	cmp	r2, #0
10000852:	d169      	bne.n	10000928 <xQueueGenericSend+0x22c>
10000854:	f001 fe44 	bl	100024e0 <vPortExitCritical>
10000858:	2001      	movs	r0, #1
1000085a:	b005      	add	sp, #20
1000085c:	bcc0      	pop	{r6, r7}
1000085e:	46b9      	mov	r9, r7
10000860:	46b0      	mov	r8, r6
10000862:	bdf0      	pop	{r4, r5, r6, r7, pc}
10000864:	0027      	movs	r7, r4
10000866:	3710      	adds	r7, #16
10000868:	f001 fe3a 	bl	100024e0 <vPortExitCritical>
1000086c:	0038      	movs	r0, r7
1000086e:	9901      	ldr	r1, [sp, #4]
10000870:	f001 f928 	bl	10001ac4 <vTaskPlaceOnEventList>
10000874:	f001 fe28 	bl	100024c8 <vPortEnterCritical>
10000878:	2345      	movs	r3, #69	@ 0x45
1000087a:	5ce5      	ldrb	r5, [r4, r3]
1000087c:	b26d      	sxtb	r5, r5
1000087e:	2d00      	cmp	r5, #0
10000880:	dc05      	bgt.n	1000088e <xQueueGenericSend+0x192>
10000882:	e013      	b.n	100008ac <xQueueGenericSend+0x1b0>
10000884:	3d01      	subs	r5, #1
10000886:	b2ea      	uxtb	r2, r5
10000888:	b26d      	sxtb	r5, r5
1000088a:	2a00      	cmp	r2, #0
1000088c:	d00e      	beq.n	100008ac <xQueueGenericSend+0x1b0>
1000088e:	6a63      	ldr	r3, [r4, #36]	@ 0x24
10000890:	2b00      	cmp	r3, #0
10000892:	d00b      	beq.n	100008ac <xQueueGenericSend+0x1b0>
10000894:	0030      	movs	r0, r6
10000896:	f001 f9c3 	bl	10001c20 <xTaskRemoveFromEventList>
1000089a:	2800      	cmp	r0, #0
1000089c:	d0f2      	beq.n	10000884 <xQueueGenericSend+0x188>
1000089e:	3d01      	subs	r5, #1
100008a0:	f001 fa64 	bl	10001d6c <vTaskMissedYield>
100008a4:	b2ea      	uxtb	r2, r5
100008a6:	b26d      	sxtb	r5, r5
100008a8:	2a00      	cmp	r2, #0
100008aa:	d1f0      	bne.n	1000088e <xQueueGenericSend+0x192>
100008ac:	2345      	movs	r3, #69	@ 0x45
100008ae:	22ff      	movs	r2, #255	@ 0xff
100008b0:	54e2      	strb	r2, [r4, r3]
100008b2:	f001 fe15 	bl	100024e0 <vPortExitCritical>
100008b6:	f001 fe07 	bl	100024c8 <vPortEnterCritical>
100008ba:	2344      	movs	r3, #68	@ 0x44
100008bc:	5ce5      	ldrb	r5, [r4, r3]
100008be:	b26d      	sxtb	r5, r5
100008c0:	2d00      	cmp	r5, #0
100008c2:	dc05      	bgt.n	100008d0 <xQueueGenericSend+0x1d4>
100008c4:	e013      	b.n	100008ee <xQueueGenericSend+0x1f2>
100008c6:	3d01      	subs	r5, #1
100008c8:	b2ea      	uxtb	r2, r5
100008ca:	b26d      	sxtb	r5, r5
100008cc:	2a00      	cmp	r2, #0
100008ce:	d00e      	beq.n	100008ee <xQueueGenericSend+0x1f2>
100008d0:	6923      	ldr	r3, [r4, #16]
100008d2:	2b00      	cmp	r3, #0
100008d4:	d00b      	beq.n	100008ee <xQueueGenericSend+0x1f2>
100008d6:	0038      	movs	r0, r7
100008d8:	f001 f9a2 	bl	10001c20 <xTaskRemoveFromEventList>
100008dc:	2800      	cmp	r0, #0
100008de:	d0f2      	beq.n	100008c6 <xQueueGenericSend+0x1ca>
100008e0:	3d01      	subs	r5, #1
100008e2:	f001 fa43 	bl	10001d6c <vTaskMissedYield>
100008e6:	b2ea      	uxtb	r2, r5
100008e8:	b26d      	sxtb	r5, r5
100008ea:	2a00      	cmp	r2, #0
100008ec:	d1f0      	bne.n	100008d0 <xQueueGenericSend+0x1d4>
100008ee:	2344      	movs	r3, #68	@ 0x44
100008f0:	22ff      	movs	r2, #255	@ 0xff
100008f2:	54e2      	strb	r2, [r4, r3]
100008f4:	f001 fdf4 	bl	100024e0 <vPortExitCritical>
100008f8:	f000 ff62 	bl	100017c0 <xTaskResumeAll>
100008fc:	2800      	cmp	r0, #0
100008fe:	d000      	beq.n	10000902 <xQueueGenericSend+0x206>
10000900:	e786      	b.n	10000810 <xQueueGenericSend+0x114>
10000902:	f001 fdd5 	bl	100024b0 <vPortYield>
10000906:	e783      	b.n	10000810 <xQueueGenericSend+0x114>
10000908:	a802      	add	r0, sp, #8
1000090a:	f001 f9f5 	bl	10001cf8 <vTaskInternalSetTimeOutState>
1000090e:	e713      	b.n	10000738 <xQueueGenericSend+0x3c>
10000910:	6c22      	ldr	r2, [r4, #64]	@ 0x40
10000912:	6ba5      	ldr	r5, [r4, #56]	@ 0x38
10000914:	2a00      	cmp	r2, #0
10000916:	d15f      	bne.n	100009d8 <xQueueGenericSend+0x2dc>
10000918:	6826      	ldr	r6, [r4, #0]
1000091a:	3501      	adds	r5, #1
1000091c:	2e00      	cmp	r6, #0
1000091e:	d078      	beq.n	10000a12 <xQueueGenericSend+0x316>
10000920:	6a63      	ldr	r3, [r4, #36]	@ 0x24
10000922:	63a5      	str	r5, [r4, #56]	@ 0x38
10000924:	2b00      	cmp	r3, #0
10000926:	d095      	beq.n	10000854 <xQueueGenericSend+0x158>
10000928:	0020      	movs	r0, r4
1000092a:	3024      	adds	r0, #36	@ 0x24
1000092c:	f001 f978 	bl	10001c20 <xTaskRemoveFromEventList>
10000930:	2800      	cmp	r0, #0
10000932:	d100      	bne.n	10000936 <xQueueGenericSend+0x23a>
10000934:	e78e      	b.n	10000854 <xQueueGenericSend+0x158>
10000936:	f001 fdbb 	bl	100024b0 <vPortYield>
1000093a:	e78b      	b.n	10000854 <xQueueGenericSend+0x158>
1000093c:	f001 fdd0 	bl	100024e0 <vPortExitCritical>
10000940:	2000      	movs	r0, #0
10000942:	e78a      	b.n	1000085a <xQueueGenericSend+0x15e>
10000944:	f001 fdc0 	bl	100024c8 <vPortEnterCritical>
10000948:	2345      	movs	r3, #69	@ 0x45
1000094a:	0026      	movs	r6, r4
1000094c:	5ce5      	ldrb	r5, [r4, r3]
1000094e:	3624      	adds	r6, #36	@ 0x24
10000950:	b26d      	sxtb	r5, r5
10000952:	2d00      	cmp	r5, #0
10000954:	dc05      	bgt.n	10000962 <xQueueGenericSend+0x266>
10000956:	e013      	b.n	10000980 <xQueueGenericSend+0x284>
10000958:	3d01      	subs	r5, #1
1000095a:	b2ea      	uxtb	r2, r5
1000095c:	b26d      	sxtb	r5, r5
1000095e:	2a00      	cmp	r2, #0
10000960:	d00e      	beq.n	10000980 <xQueueGenericSend+0x284>
10000962:	6a63      	ldr	r3, [r4, #36]	@ 0x24
10000964:	2b00      	cmp	r3, #0
10000966:	d00b      	beq.n	10000980 <xQueueGenericSend+0x284>
10000968:	0030      	movs	r0, r6
1000096a:	f001 f959 	bl	10001c20 <xTaskRemoveFromEventList>
1000096e:	2800      	cmp	r0, #0
10000970:	d0f2      	beq.n	10000958 <xQueueGenericSend+0x25c>
10000972:	3d01      	subs	r5, #1
10000974:	f001 f9fa 	bl	10001d6c <vTaskMissedYield>
10000978:	b2ea      	uxtb	r2, r5
1000097a:	b26d      	sxtb	r5, r5
1000097c:	2a00      	cmp	r2, #0
1000097e:	d1f0      	bne.n	10000962 <xQueueGenericSend+0x266>
10000980:	2345      	movs	r3, #69	@ 0x45
10000982:	22ff      	movs	r2, #255	@ 0xff
10000984:	54e2      	strb	r2, [r4, r3]
10000986:	f001 fdab 	bl	100024e0 <vPortExitCritical>
1000098a:	f001 fd9d 	bl	100024c8 <vPortEnterCritical>
1000098e:	2344      	movs	r3, #68	@ 0x44
10000990:	0026      	movs	r6, r4
10000992:	5ce5      	ldrb	r5, [r4, r3]
10000994:	3610      	adds	r6, #16
10000996:	b26d      	sxtb	r5, r5
10000998:	2d00      	cmp	r5, #0
1000099a:	dc05      	bgt.n	100009a8 <xQueueGenericSend+0x2ac>
1000099c:	e013      	b.n	100009c6 <xQueueGenericSend+0x2ca>
1000099e:	3d01      	subs	r5, #1
100009a0:	b2ea      	uxtb	r2, r5
100009a2:	b26d      	sxtb	r5, r5
100009a4:	2a00      	cmp	r2, #0
100009a6:	d00e      	beq.n	100009c6 <xQueueGenericSend+0x2ca>
100009a8:	6923      	ldr	r3, [r4, #16]
100009aa:	2b00      	cmp	r3, #0
100009ac:	d00b      	beq.n	100009c6 <xQueueGenericSend+0x2ca>
100009ae:	0030      	movs	r0, r6
100009b0:	f001 f936 	bl	10001c20 <xTaskRemoveFromEventList>
100009b4:	2800      	cmp	r0, #0
100009b6:	d0f2      	beq.n	1000099e <xQueueGenericSend+0x2a2>
100009b8:	3d01      	subs	r5, #1
100009ba:	f001 f9d7 	bl	10001d6c <vTaskMissedYield>
100009be:	b2ea      	uxtb	r2, r5
100009c0:	b26d      	sxtb	r5, r5
100009c2:	2a00      	cmp	r2, #0
100009c4:	d1f0      	bne.n	100009a8 <xQueueGenericSend+0x2ac>
100009c6:	2344      	movs	r3, #68	@ 0x44
100009c8:	22ff      	movs	r2, #255	@ 0xff
100009ca:	54e2      	strb	r2, [r4, r3]
100009cc:	f001 fd88 	bl	100024e0 <vPortExitCritical>
100009d0:	f000 fef6 	bl	100017c0 <xTaskResumeAll>
100009d4:	2000      	movs	r0, #0
100009d6:	e740      	b.n	1000085a <xQueueGenericSend+0x15e>
100009d8:	4641      	mov	r1, r8
100009da:	68e0      	ldr	r0, [r4, #12]
100009dc:	f003 fbea 	bl	100041b4 <__wrap___aeabi_memcpy>
100009e0:	6c22      	ldr	r2, [r4, #64]	@ 0x40
100009e2:	68e3      	ldr	r3, [r4, #12]
100009e4:	4251      	negs	r1, r2
100009e6:	1a9b      	subs	r3, r3, r2
100009e8:	6822      	ldr	r2, [r4, #0]
100009ea:	60e3      	str	r3, [r4, #12]
100009ec:	4293      	cmp	r3, r2
100009ee:	d202      	bcs.n	100009f6 <xQueueGenericSend+0x2fa>
100009f0:	68a3      	ldr	r3, [r4, #8]
100009f2:	185b      	adds	r3, r3, r1
100009f4:	60e3      	str	r3, [r4, #12]
100009f6:	6a63      	ldr	r3, [r4, #36]	@ 0x24
100009f8:	2d00      	cmp	r5, #0
100009fa:	d004      	beq.n	10000a06 <xQueueGenericSend+0x30a>
100009fc:	63a5      	str	r5, [r4, #56]	@ 0x38
100009fe:	2b00      	cmp	r3, #0
10000a00:	d100      	bne.n	10000a04 <xQueueGenericSend+0x308>
10000a02:	e727      	b.n	10000854 <xQueueGenericSend+0x158>
10000a04:	e790      	b.n	10000928 <xQueueGenericSend+0x22c>
10000a06:	2201      	movs	r2, #1
10000a08:	63a2      	str	r2, [r4, #56]	@ 0x38
10000a0a:	2b00      	cmp	r3, #0
10000a0c:	d100      	bne.n	10000a10 <xQueueGenericSend+0x314>
10000a0e:	e721      	b.n	10000854 <xQueueGenericSend+0x158>
10000a10:	e78a      	b.n	10000928 <xQueueGenericSend+0x22c>
10000a12:	68a0      	ldr	r0, [r4, #8]
10000a14:	f001 f9b0 	bl	10001d78 <xTaskPriorityDisinherit>
10000a18:	6a63      	ldr	r3, [r4, #36]	@ 0x24
10000a1a:	60a6      	str	r6, [r4, #8]
10000a1c:	63a5      	str	r5, [r4, #56]	@ 0x38
10000a1e:	2b00      	cmp	r3, #0
10000a20:	d182      	bne.n	10000928 <xQueueGenericSend+0x22c>
10000a22:	2800      	cmp	r0, #0
10000a24:	d187      	bne.n	10000936 <xQueueGenericSend+0x23a>
10000a26:	e715      	b.n	10000854 <xQueueGenericSend+0x158>
10000a28:	4641      	mov	r1, r8
10000a2a:	68e0      	ldr	r0, [r4, #12]
10000a2c:	f003 fbc2 	bl	100041b4 <__wrap___aeabi_memcpy>
10000a30:	6c22      	ldr	r2, [r4, #64]	@ 0x40
10000a32:	68e3      	ldr	r3, [r4, #12]
10000a34:	4251      	negs	r1, r2
10000a36:	1a9b      	subs	r3, r3, r2
10000a38:	6822      	ldr	r2, [r4, #0]
10000a3a:	60e3      	str	r3, [r4, #12]
10000a3c:	4293      	cmp	r3, r2
10000a3e:	d305      	bcc.n	10000a4c <xQueueGenericSend+0x350>
10000a40:	464a      	mov	r2, r9
10000a42:	6a63      	ldr	r3, [r4, #36]	@ 0x24
10000a44:	2a02      	cmp	r2, #2
10000a46:	d0d7      	beq.n	100009f8 <xQueueGenericSend+0x2fc>
10000a48:	3501      	adds	r5, #1
10000a4a:	e7d7      	b.n	100009fc <xQueueGenericSend+0x300>
10000a4c:	68a3      	ldr	r3, [r4, #8]
10000a4e:	185b      	adds	r3, r3, r1
10000a50:	60e3      	str	r3, [r4, #12]
10000a52:	e7f5      	b.n	10000a40 <xQueueGenericSend+0x344>

10000a54 <xQueueCreateMutex>:
10000a54:	b570      	push	{r4, r5, r6, lr}
10000a56:	0006      	movs	r6, r0
10000a58:	2050      	movs	r0, #80	@ 0x50
10000a5a:	f001 fdcb 	bl	100025f4 <pvPortMalloc>
10000a5e:	1e04      	subs	r4, r0, #0
10000a60:	d02d      	beq.n	10000abe <xQueueCreateMutex+0x6a>
10000a62:	2500      	movs	r5, #0
10000a64:	2346      	movs	r3, #70	@ 0x46
10000a66:	54c5      	strb	r5, [r0, r3]
10000a68:	3b45      	subs	r3, #69	@ 0x45
10000a6a:	63c3      	str	r3, [r0, #60]	@ 0x3c
10000a6c:	6000      	str	r0, [r0, #0]
10000a6e:	6405      	str	r5, [r0, #64]	@ 0x40
10000a70:	f001 fd2a 	bl	100024c8 <vPortEnterCritical>
10000a74:	6c21      	ldr	r1, [r4, #64]	@ 0x40
10000a76:	6be3      	ldr	r3, [r4, #60]	@ 0x3c
10000a78:	6822      	ldr	r2, [r4, #0]
10000a7a:	434b      	muls	r3, r1
10000a7c:	18d0      	adds	r0, r2, r3
10000a7e:	1a5b      	subs	r3, r3, r1
10000a80:	6062      	str	r2, [r4, #4]
10000a82:	18d2      	adds	r2, r2, r3
10000a84:	60e2      	str	r2, [r4, #12]
10000a86:	23ff      	movs	r3, #255	@ 0xff
10000a88:	2244      	movs	r2, #68	@ 0x44
10000a8a:	60a0      	str	r0, [r4, #8]
10000a8c:	0020      	movs	r0, r4
10000a8e:	63a5      	str	r5, [r4, #56]	@ 0x38
10000a90:	54a3      	strb	r3, [r4, r2]
10000a92:	3201      	adds	r2, #1
10000a94:	54a3      	strb	r3, [r4, r2]
10000a96:	3010      	adds	r0, #16
10000a98:	f7ff fda0 	bl	100005dc <vListInitialise>
10000a9c:	0020      	movs	r0, r4
10000a9e:	3024      	adds	r0, #36	@ 0x24
10000aa0:	f7ff fd9c 	bl	100005dc <vListInitialise>
10000aa4:	f001 fd1c 	bl	100024e0 <vPortExitCritical>
10000aa8:	234c      	movs	r3, #76	@ 0x4c
10000aaa:	2200      	movs	r2, #0
10000aac:	54e6      	strb	r6, [r4, r3]
10000aae:	2100      	movs	r1, #0
10000ab0:	2300      	movs	r3, #0
10000ab2:	0020      	movs	r0, r4
10000ab4:	60a5      	str	r5, [r4, #8]
10000ab6:	6025      	str	r5, [r4, #0]
10000ab8:	60e5      	str	r5, [r4, #12]
10000aba:	f7ff fe1f 	bl	100006fc <xQueueGenericSend>
10000abe:	0020      	movs	r0, r4
10000ac0:	bd70      	pop	{r4, r5, r6, pc}
10000ac2:	46c0      	nop			@ (mov r8, r8)

10000ac4 <xQueueReceive>:
10000ac4:	b5f0      	push	{r4, r5, r6, r7, lr}
10000ac6:	46ce      	mov	lr, r9
10000ac8:	4647      	mov	r7, r8
10000aca:	0004      	movs	r4, r0
10000acc:	b580      	push	{r7, lr}
10000ace:	b085      	sub	sp, #20
10000ad0:	4688      	mov	r8, r1
10000ad2:	9201      	str	r2, [sp, #4]
10000ad4:	f001 fcf8 	bl	100024c8 <vPortEnterCritical>
10000ad8:	6ba5      	ldr	r5, [r4, #56]	@ 0x38
10000ada:	2d00      	cmp	r5, #0
10000adc:	d000      	beq.n	10000ae0 <xQueueReceive+0x1c>
10000ade:	e129      	b.n	10000d34 <xQueueReceive+0x270>
10000ae0:	9b01      	ldr	r3, [sp, #4]
10000ae2:	2b00      	cmp	r3, #0
10000ae4:	d100      	bne.n	10000ae8 <xQueueReceive+0x24>
10000ae6:	e0d0      	b.n	10000c8a <xQueueReceive+0x1c6>
10000ae8:	0026      	movs	r6, r4
10000aea:	a802      	add	r0, sp, #8
10000aec:	f001 f904 	bl	10001cf8 <vTaskInternalSetTimeOutState>
10000af0:	2744      	movs	r7, #68	@ 0x44
10000af2:	3624      	adds	r6, #36	@ 0x24
10000af4:	f001 fcf4 	bl	100024e0 <vPortExitCritical>
10000af8:	f000 fe5a 	bl	100017b0 <vTaskSuspendAll>
10000afc:	f001 fce4 	bl	100024c8 <vPortEnterCritical>
10000b00:	5de3      	ldrb	r3, [r4, r7]
10000b02:	b25b      	sxtb	r3, r3
10000b04:	3301      	adds	r3, #1
10000b06:	d101      	bne.n	10000b0c <xQueueReceive+0x48>
10000b08:	2300      	movs	r3, #0
10000b0a:	55e3      	strb	r3, [r4, r7]
10000b0c:	2245      	movs	r2, #69	@ 0x45
10000b0e:	5ca3      	ldrb	r3, [r4, r2]
10000b10:	b25b      	sxtb	r3, r3
10000b12:	3301      	adds	r3, #1
10000b14:	d101      	bne.n	10000b1a <xQueueReceive+0x56>
10000b16:	2300      	movs	r3, #0
10000b18:	54a3      	strb	r3, [r4, r2]
10000b1a:	f001 fce1 	bl	100024e0 <vPortExitCritical>
10000b1e:	a901      	add	r1, sp, #4
10000b20:	a802      	add	r0, sp, #8
10000b22:	f001 f8f5 	bl	10001d10 <xTaskCheckForTimeOut>
10000b26:	2800      	cmp	r0, #0
10000b28:	d15a      	bne.n	10000be0 <xQueueReceive+0x11c>
10000b2a:	f001 fccd 	bl	100024c8 <vPortEnterCritical>
10000b2e:	6ba3      	ldr	r3, [r4, #56]	@ 0x38
10000b30:	2b00      	cmp	r3, #0
10000b32:	d000      	beq.n	10000b36 <xQueueReceive+0x72>
10000b34:	e0b1      	b.n	10000c9a <xQueueReceive+0x1d6>
10000b36:	f001 fcd3 	bl	100024e0 <vPortExitCritical>
10000b3a:	2324      	movs	r3, #36	@ 0x24
10000b3c:	4699      	mov	r9, r3
10000b3e:	44a1      	add	r9, r4
10000b40:	4648      	mov	r0, r9
10000b42:	9901      	ldr	r1, [sp, #4]
10000b44:	f000 ffbe 	bl	10001ac4 <vTaskPlaceOnEventList>
10000b48:	f001 fcbe 	bl	100024c8 <vPortEnterCritical>
10000b4c:	2345      	movs	r3, #69	@ 0x45
10000b4e:	5ce5      	ldrb	r5, [r4, r3]
10000b50:	b26d      	sxtb	r5, r5
10000b52:	2d00      	cmp	r5, #0
10000b54:	dc05      	bgt.n	10000b62 <xQueueReceive+0x9e>
10000b56:	e013      	b.n	10000b80 <xQueueReceive+0xbc>
10000b58:	3d01      	subs	r5, #1
10000b5a:	b2ea      	uxtb	r2, r5
10000b5c:	b26d      	sxtb	r5, r5
10000b5e:	2a00      	cmp	r2, #0
10000b60:	d00e      	beq.n	10000b80 <xQueueReceive+0xbc>
10000b62:	6a63      	ldr	r3, [r4, #36]	@ 0x24
10000b64:	2b00      	cmp	r3, #0
10000b66:	d00b      	beq.n	10000b80 <xQueueReceive+0xbc>
10000b68:	4648      	mov	r0, r9
10000b6a:	f001 f859 	bl	10001c20 <xTaskRemoveFromEventList>
10000b6e:	2800      	cmp	r0, #0
10000b70:	d0f2      	beq.n	10000b58 <xQueueReceive+0x94>
10000b72:	3d01      	subs	r5, #1
10000b74:	f001 f8fa 	bl	10001d6c <vTaskMissedYield>
10000b78:	b2ea      	uxtb	r2, r5
10000b7a:	b26d      	sxtb	r5, r5
10000b7c:	2a00      	cmp	r2, #0
10000b7e:	d1f0      	bne.n	10000b62 <xQueueReceive+0x9e>
10000b80:	2345      	movs	r3, #69	@ 0x45
10000b82:	22ff      	movs	r2, #255	@ 0xff
10000b84:	54e2      	strb	r2, [r4, r3]
10000b86:	f001 fcab 	bl	100024e0 <vPortExitCritical>
10000b8a:	f001 fc9d 	bl	100024c8 <vPortEnterCritical>
10000b8e:	2344      	movs	r3, #68	@ 0x44
10000b90:	5ce5      	ldrb	r5, [r4, r3]
10000b92:	3b34      	subs	r3, #52	@ 0x34
10000b94:	4699      	mov	r9, r3
10000b96:	b26d      	sxtb	r5, r5
10000b98:	44a1      	add	r9, r4
10000b9a:	2d00      	cmp	r5, #0
10000b9c:	dc05      	bgt.n	10000baa <xQueueReceive+0xe6>
10000b9e:	e013      	b.n	10000bc8 <xQueueReceive+0x104>
10000ba0:	3d01      	subs	r5, #1
10000ba2:	b2ea      	uxtb	r2, r5
10000ba4:	b26d      	sxtb	r5, r5
10000ba6:	2a00      	cmp	r2, #0
10000ba8:	d00e      	beq.n	10000bc8 <xQueueReceive+0x104>
10000baa:	6923      	ldr	r3, [r4, #16]
10000bac:	2b00      	cmp	r3, #0
10000bae:	d00b      	beq.n	10000bc8 <xQueueReceive+0x104>
10000bb0:	4648      	mov	r0, r9
10000bb2:	f001 f835 	bl	10001c20 <xTaskRemoveFromEventList>
10000bb6:	2800      	cmp	r0, #0
10000bb8:	d0f2      	beq.n	10000ba0 <xQueueReceive+0xdc>
10000bba:	3d01      	subs	r5, #1
10000bbc:	f001 f8d6 	bl	10001d6c <vTaskMissedYield>
10000bc0:	b2ea      	uxtb	r2, r5
10000bc2:	b26d      	sxtb	r5, r5
10000bc4:	2a00      	cmp	r2, #0
10000bc6:	d1f0      	bne.n	10000baa <xQueueReceive+0xe6>
10000bc8:	2344      	movs	r3, #68	@ 0x44
10000bca:	22ff      	movs	r2, #255	@ 0xff
10000bcc:	54e2      	strb	r2, [r4, r3]
10000bce:	f001 fc87 	bl	100024e0 <vPortExitCritical>
10000bd2:	f000 fdf5 	bl	100017c0 <xTaskResumeAll>
10000bd6:	2800      	cmp	r0, #0
10000bd8:	d14e      	bne.n	10000c78 <xQueueReceive+0x1b4>
10000bda:	f001 fc69 	bl	100024b0 <vPortYield>
10000bde:	e04b      	b.n	10000c78 <xQueueReceive+0x1b4>
10000be0:	f001 fc72 	bl	100024c8 <vPortEnterCritical>
10000be4:	2345      	movs	r3, #69	@ 0x45
10000be6:	5ce5      	ldrb	r5, [r4, r3]
10000be8:	b26d      	sxtb	r5, r5
10000bea:	2d00      	cmp	r5, #0
10000bec:	dc05      	bgt.n	10000bfa <xQueueReceive+0x136>
10000bee:	e013      	b.n	10000c18 <xQueueReceive+0x154>
10000bf0:	3d01      	subs	r5, #1
10000bf2:	b2ea      	uxtb	r2, r5
10000bf4:	b26d      	sxtb	r5, r5
10000bf6:	2a00      	cmp	r2, #0
10000bf8:	d00e      	beq.n	10000c18 <xQueueReceive+0x154>
10000bfa:	6a63      	ldr	r3, [r4, #36]	@ 0x24
10000bfc:	2b00      	cmp	r3, #0
10000bfe:	d00b      	beq.n	10000c18 <xQueueReceive+0x154>
10000c00:	0030      	movs	r0, r6
10000c02:	f001 f80d 	bl	10001c20 <xTaskRemoveFromEventList>
10000c06:	2800      	cmp	r0, #0
10000c08:	d0f2      	beq.n	10000bf0 <xQueueReceive+0x12c>
10000c0a:	3d01      	subs	r5, #1
10000c0c:	f001 f8ae 	bl	10001d6c <vTaskMissedYield>
10000c10:	b2ea      	uxtb	r2, r5
10000c12:	b26d      	sxtb	r5, r5
10000c14:	2a00      	cmp	r2, #0
10000c16:	d1f0      	bne.n	10000bfa <xQueueReceive+0x136>
10000c18:	2345      	movs	r3, #69	@ 0x45
10000c1a:	22ff      	movs	r2, #255	@ 0xff
10000c1c:	54e2      	strb	r2, [r4, r3]
10000c1e:	f001 fc5f 	bl	100024e0 <vPortExitCritical>
10000c22:	f001 fc51 	bl	100024c8 <vPortEnterCritical>
10000c26:	2310      	movs	r3, #16
10000c28:	4699      	mov	r9, r3
10000c2a:	5de5      	ldrb	r5, [r4, r7]
10000c2c:	44a1      	add	r9, r4
10000c2e:	b26d      	sxtb	r5, r5
10000c30:	2d00      	cmp	r5, #0
10000c32:	dc05      	bgt.n	10000c40 <xQueueReceive+0x17c>
10000c34:	e013      	b.n	10000c5e <xQueueReceive+0x19a>
10000c36:	3d01      	subs	r5, #1
10000c38:	b2ea      	uxtb	r2, r5
10000c3a:	b26d      	sxtb	r5, r5
10000c3c:	2a00      	cmp	r2, #0
10000c3e:	d00e      	beq.n	10000c5e <xQueueReceive+0x19a>
10000c40:	6923      	ldr	r3, [r4, #16]
10000c42:	2b00      	cmp	r3, #0
10000c44:	d00b      	beq.n	10000c5e <xQueueReceive+0x19a>
10000c46:	4648      	mov	r0, r9
10000c48:	f000 ffea 	bl	10001c20 <xTaskRemoveFromEventList>
10000c4c:	2800      	cmp	r0, #0
10000c4e:	d0f2      	beq.n	10000c36 <xQueueReceive+0x172>
10000c50:	3d01      	subs	r5, #1
10000c52:	f001 f88b 	bl	10001d6c <vTaskMissedYield>
10000c56:	b2ea      	uxtb	r2, r5
10000c58:	b26d      	sxtb	r5, r5
10000c5a:	2a00      	cmp	r2, #0
10000c5c:	d1f0      	bne.n	10000c40 <xQueueReceive+0x17c>
10000c5e:	23ff      	movs	r3, #255	@ 0xff
10000c60:	55e3      	strb	r3, [r4, r7]
10000c62:	f001 fc3d 	bl	100024e0 <vPortExitCritical>
10000c66:	f000 fdab 	bl	100017c0 <xTaskResumeAll>
10000c6a:	f001 fc2d 	bl	100024c8 <vPortEnterCritical>
10000c6e:	6ba3      	ldr	r3, [r4, #56]	@ 0x38
10000c70:	2b00      	cmp	r3, #0
10000c72:	d00a      	beq.n	10000c8a <xQueueReceive+0x1c6>
10000c74:	f001 fc34 	bl	100024e0 <vPortExitCritical>
10000c78:	f001 fc26 	bl	100024c8 <vPortEnterCritical>
10000c7c:	6ba5      	ldr	r5, [r4, #56]	@ 0x38
10000c7e:	2d00      	cmp	r5, #0
10000c80:	d158      	bne.n	10000d34 <xQueueReceive+0x270>
10000c82:	9b01      	ldr	r3, [sp, #4]
10000c84:	2b00      	cmp	r3, #0
10000c86:	d000      	beq.n	10000c8a <xQueueReceive+0x1c6>
10000c88:	e734      	b.n	10000af4 <xQueueReceive+0x30>
10000c8a:	f001 fc29 	bl	100024e0 <vPortExitCritical>
10000c8e:	2000      	movs	r0, #0
10000c90:	b005      	add	sp, #20
10000c92:	bcc0      	pop	{r6, r7}
10000c94:	46b9      	mov	r9, r7
10000c96:	46b0      	mov	r8, r6
10000c98:	bdf0      	pop	{r4, r5, r6, r7, pc}
10000c9a:	f001 fc21 	bl	100024e0 <vPortExitCritical>
10000c9e:	f001 fc13 	bl	100024c8 <vPortEnterCritical>
10000ca2:	2345      	movs	r3, #69	@ 0x45
10000ca4:	5ce5      	ldrb	r5, [r4, r3]
10000ca6:	3b21      	subs	r3, #33	@ 0x21
10000ca8:	4699      	mov	r9, r3
10000caa:	b26d      	sxtb	r5, r5
10000cac:	44a1      	add	r9, r4
10000cae:	2d00      	cmp	r5, #0
10000cb0:	dc05      	bgt.n	10000cbe <xQueueReceive+0x1fa>
10000cb2:	e013      	b.n	10000cdc <xQueueReceive+0x218>
10000cb4:	3d01      	subs	r5, #1
10000cb6:	b2ea      	uxtb	r2, r5
10000cb8:	b26d      	sxtb	r5, r5
10000cba:	2a00      	cmp	r2, #0
10000cbc:	d00e      	beq.n	10000cdc <xQueueReceive+0x218>
10000cbe:	6a63      	ldr	r3, [r4, #36]	@ 0x24
10000cc0:	2b00      	cmp	r3, #0
10000cc2:	d00b      	beq.n	10000cdc <xQueueReceive+0x218>
10000cc4:	4648      	mov	r0, r9
10000cc6:	f000 ffab 	bl	10001c20 <xTaskRemoveFromEventList>
10000cca:	2800      	cmp	r0, #0
10000ccc:	d0f2      	beq.n	10000cb4 <xQueueReceive+0x1f0>
10000cce:	3d01      	subs	r5, #1
10000cd0:	f001 f84c 	bl	10001d6c <vTaskMissedYield>
10000cd4:	b2ea      	uxtb	r2, r5
10000cd6:	b26d      	sxtb	r5, r5
10000cd8:	2a00      	cmp	r2, #0
10000cda:	d1f0      	bne.n	10000cbe <xQueueReceive+0x1fa>
10000cdc:	2345      	movs	r3, #69	@ 0x45
10000cde:	22ff      	movs	r2, #255	@ 0xff
10000ce0:	54e2      	strb	r2, [r4, r3]
10000ce2:	f001 fbfd 	bl	100024e0 <vPortExitCritical>
10000ce6:	f001 fbef 	bl	100024c8 <vPortEnterCritical>
10000cea:	2344      	movs	r3, #68	@ 0x44
10000cec:	5ce5      	ldrb	r5, [r4, r3]
10000cee:	3b34      	subs	r3, #52	@ 0x34
10000cf0:	4699      	mov	r9, r3
10000cf2:	b26d      	sxtb	r5, r5
10000cf4:	44a1      	add	r9, r4
10000cf6:	2d00      	cmp	r5, #0
10000cf8:	dc05      	bgt.n	10000d06 <xQueueReceive+0x242>
10000cfa:	e013      	b.n	10000d24 <xQueueReceive+0x260>
10000cfc:	3d01      	subs	r5, #1
10000cfe:	b2ea      	uxtb	r2, r5
10000d00:	b26d      	sxtb	r5, r5
10000d02:	2a00      	cmp	r2, #0
10000d04:	d00e      	beq.n	10000d24 <xQueueReceive+0x260>
10000d06:	6923      	ldr	r3, [r4, #16]
10000d08:	2b00      	cmp	r3, #0
10000d0a:	d00b      	beq.n	10000d24 <xQueueReceive+0x260>
10000d0c:	4648      	mov	r0, r9
10000d0e:	f000 ff87 	bl	10001c20 <xTaskRemoveFromEventList>
10000d12:	2800      	cmp	r0, #0
10000d14:	d0f2      	beq.n	10000cfc <xQueueReceive+0x238>
10000d16:	3d01      	subs	r5, #1
10000d18:	f001 f828 	bl	10001d6c <vTaskMissedYield>
10000d1c:	b2ea      	uxtb	r2, r5
10000d1e:	b26d      	sxtb	r5, r5
10000d20:	2a00      	cmp	r2, #0
10000d22:	d1f0      	bne.n	10000d06 <xQueueReceive+0x242>
10000d24:	2344      	movs	r3, #68	@ 0x44
10000d26:	22ff      	movs	r2, #255	@ 0xff
10000d28:	54e2      	strb	r2, [r4, r3]
10000d2a:	f001 fbd9 	bl	100024e0 <vPortExitCritical>
10000d2e:	f000 fd47 	bl	100017c0 <xTaskResumeAll>
10000d32:	e7a1      	b.n	10000c78 <xQueueReceive+0x1b4>
10000d34:	6c22      	ldr	r2, [r4, #64]	@ 0x40
10000d36:	2a00      	cmp	r2, #0
10000d38:	d008      	beq.n	10000d4c <xQueueReceive+0x288>
10000d3a:	68e1      	ldr	r1, [r4, #12]
10000d3c:	68a3      	ldr	r3, [r4, #8]
10000d3e:	1889      	adds	r1, r1, r2
10000d40:	60e1      	str	r1, [r4, #12]
10000d42:	4299      	cmp	r1, r3
10000d44:	d20b      	bcs.n	10000d5e <xQueueReceive+0x29a>
10000d46:	4640      	mov	r0, r8
10000d48:	f003 fa34 	bl	100041b4 <__wrap___aeabi_memcpy>
10000d4c:	6923      	ldr	r3, [r4, #16]
10000d4e:	3d01      	subs	r5, #1
10000d50:	63a5      	str	r5, [r4, #56]	@ 0x38
10000d52:	2b00      	cmp	r3, #0
10000d54:	d106      	bne.n	10000d64 <xQueueReceive+0x2a0>
10000d56:	f001 fbc3 	bl	100024e0 <vPortExitCritical>
10000d5a:	2001      	movs	r0, #1
10000d5c:	e798      	b.n	10000c90 <xQueueReceive+0x1cc>
10000d5e:	6821      	ldr	r1, [r4, #0]
10000d60:	60e1      	str	r1, [r4, #12]
10000d62:	e7f0      	b.n	10000d46 <xQueueReceive+0x282>
10000d64:	0020      	movs	r0, r4
10000d66:	3010      	adds	r0, #16
10000d68:	f000 ff5a 	bl	10001c20 <xTaskRemoveFromEventList>
10000d6c:	2800      	cmp	r0, #0
10000d6e:	d0f2      	beq.n	10000d56 <xQueueReceive+0x292>
10000d70:	f001 fb9e 	bl	100024b0 <vPortYield>
10000d74:	e7ef      	b.n	10000d56 <xQueueReceive+0x292>
10000d76:	46c0      	nop			@ (mov r8, r8)

10000d78 <vQueueAddToRegistry>:
10000d78:	b510      	push	{r4, lr}
10000d7a:	2900      	cmp	r1, #0
10000d7c:	d043      	beq.n	10000e06 <vQueueAddToRegistry+0x8e>
10000d7e:	4b55      	ldr	r3, [pc, #340]	@ (10000ed4 <vQueueAddToRegistry+0x15c>)
10000d80:	685a      	ldr	r2, [r3, #4]
10000d82:	4290      	cmp	r0, r2
10000d84:	d100      	bne.n	10000d88 <vQueueAddToRegistry+0x10>
10000d86:	e08e      	b.n	10000ea6 <vQueueAddToRegistry+0x12e>
10000d88:	681a      	ldr	r2, [r3, #0]
10000d8a:	2a00      	cmp	r2, #0
10000d8c:	d03c      	beq.n	10000e08 <vQueueAddToRegistry+0x90>
10000d8e:	68da      	ldr	r2, [r3, #12]
10000d90:	4290      	cmp	r0, r2
10000d92:	d100      	bne.n	10000d96 <vQueueAddToRegistry+0x1e>
10000d94:	e09c      	b.n	10000ed0 <vQueueAddToRegistry+0x158>
10000d96:	689a      	ldr	r2, [r3, #8]
10000d98:	2a00      	cmp	r2, #0
10000d9a:	d054      	beq.n	10000e46 <vQueueAddToRegistry+0xce>
10000d9c:	695a      	ldr	r2, [r3, #20]
10000d9e:	4290      	cmp	r0, r2
10000da0:	d100      	bne.n	10000da4 <vQueueAddToRegistry+0x2c>
10000da2:	e093      	b.n	10000ecc <vQueueAddToRegistry+0x154>
10000da4:	691a      	ldr	r2, [r3, #16]
10000da6:	2a00      	cmp	r2, #0
10000da8:	d053      	beq.n	10000e52 <vQueueAddToRegistry+0xda>
10000daa:	69da      	ldr	r2, [r3, #28]
10000dac:	4290      	cmp	r0, r2
10000dae:	d100      	bne.n	10000db2 <vQueueAddToRegistry+0x3a>
10000db0:	e080      	b.n	10000eb4 <vQueueAddToRegistry+0x13c>
10000db2:	699a      	ldr	r2, [r3, #24]
10000db4:	2a00      	cmp	r2, #0
10000db6:	d052      	beq.n	10000e5e <vQueueAddToRegistry+0xe6>
10000db8:	6a5a      	ldr	r2, [r3, #36]	@ 0x24
10000dba:	4290      	cmp	r0, r2
10000dbc:	d057      	beq.n	10000e6e <vQueueAddToRegistry+0xf6>
10000dbe:	6a1a      	ldr	r2, [r3, #32]
10000dc0:	2a00      	cmp	r2, #0
10000dc2:	d058      	beq.n	10000e76 <vQueueAddToRegistry+0xfe>
10000dc4:	6ada      	ldr	r2, [r3, #44]	@ 0x2c
10000dc6:	4290      	cmp	r0, r2
10000dc8:	d100      	bne.n	10000dcc <vQueueAddToRegistry+0x54>
10000dca:	e075      	b.n	10000eb8 <vQueueAddToRegistry+0x140>
10000dcc:	6a9a      	ldr	r2, [r3, #40]	@ 0x28
10000dce:	2a00      	cmp	r2, #0
10000dd0:	d057      	beq.n	10000e82 <vQueueAddToRegistry+0x10a>
10000dd2:	6b5a      	ldr	r2, [r3, #52]	@ 0x34
10000dd4:	4290      	cmp	r0, r2
10000dd6:	d100      	bne.n	10000dda <vQueueAddToRegistry+0x62>
10000dd8:	e070      	b.n	10000ebc <vQueueAddToRegistry+0x144>
10000dda:	6b1a      	ldr	r2, [r3, #48]	@ 0x30
10000ddc:	2a00      	cmp	r2, #0
10000dde:	d056      	beq.n	10000e8e <vQueueAddToRegistry+0x116>
10000de0:	6bda      	ldr	r2, [r3, #60]	@ 0x3c
10000de2:	4290      	cmp	r0, r2
10000de4:	d100      	bne.n	10000de8 <vQueueAddToRegistry+0x70>
10000de6:	e06b      	b.n	10000ec0 <vQueueAddToRegistry+0x148>
10000de8:	6b9a      	ldr	r2, [r3, #56]	@ 0x38
10000dea:	2a00      	cmp	r2, #0
10000dec:	d055      	beq.n	10000e9a <vQueueAddToRegistry+0x122>
10000dee:	6c5a      	ldr	r2, [r3, #68]	@ 0x44
10000df0:	4290      	cmp	r0, r2
10000df2:	d067      	beq.n	10000ec4 <vQueueAddToRegistry+0x14c>
10000df4:	6c1a      	ldr	r2, [r3, #64]	@ 0x40
10000df6:	2a00      	cmp	r2, #0
10000df8:	d057      	beq.n	10000eaa <vQueueAddToRegistry+0x132>
10000dfa:	6cda      	ldr	r2, [r3, #76]	@ 0x4c
10000dfc:	4290      	cmp	r0, r2
10000dfe:	d063      	beq.n	10000ec8 <vQueueAddToRegistry+0x150>
10000e00:	6c9a      	ldr	r2, [r3, #72]	@ 0x48
10000e02:	2a00      	cmp	r2, #0
10000e04:	d030      	beq.n	10000e68 <vQueueAddToRegistry+0xf0>
10000e06:	bd10      	pop	{r4, pc}
10000e08:	68da      	ldr	r2, [r3, #12]
10000e0a:	4290      	cmp	r0, r2
10000e0c:	d060      	beq.n	10000ed0 <vQueueAddToRegistry+0x158>
10000e0e:	695a      	ldr	r2, [r3, #20]
10000e10:	4290      	cmp	r0, r2
10000e12:	d05b      	beq.n	10000ecc <vQueueAddToRegistry+0x154>
10000e14:	001a      	movs	r2, r3
10000e16:	69dc      	ldr	r4, [r3, #28]
10000e18:	42a0      	cmp	r0, r4
10000e1a:	d04b      	beq.n	10000eb4 <vQueueAddToRegistry+0x13c>
10000e1c:	6a5c      	ldr	r4, [r3, #36]	@ 0x24
10000e1e:	42a0      	cmp	r0, r4
10000e20:	d025      	beq.n	10000e6e <vQueueAddToRegistry+0xf6>
10000e22:	6adc      	ldr	r4, [r3, #44]	@ 0x2c
10000e24:	42a0      	cmp	r0, r4
10000e26:	d047      	beq.n	10000eb8 <vQueueAddToRegistry+0x140>
10000e28:	6b5c      	ldr	r4, [r3, #52]	@ 0x34
10000e2a:	42a0      	cmp	r0, r4
10000e2c:	d046      	beq.n	10000ebc <vQueueAddToRegistry+0x144>
10000e2e:	6bdc      	ldr	r4, [r3, #60]	@ 0x3c
10000e30:	42a0      	cmp	r0, r4
10000e32:	d045      	beq.n	10000ec0 <vQueueAddToRegistry+0x148>
10000e34:	6c5c      	ldr	r4, [r3, #68]	@ 0x44
10000e36:	42a0      	cmp	r0, r4
10000e38:	d044      	beq.n	10000ec4 <vQueueAddToRegistry+0x14c>
10000e3a:	6cdc      	ldr	r4, [r3, #76]	@ 0x4c
10000e3c:	42a0      	cmp	r0, r4
10000e3e:	d043      	beq.n	10000ec8 <vQueueAddToRegistry+0x150>
10000e40:	6011      	str	r1, [r2, #0]
10000e42:	6050      	str	r0, [r2, #4]
10000e44:	e7df      	b.n	10000e06 <vQueueAddToRegistry+0x8e>
10000e46:	695a      	ldr	r2, [r3, #20]
10000e48:	4290      	cmp	r0, r2
10000e4a:	d03f      	beq.n	10000ecc <vQueueAddToRegistry+0x154>
10000e4c:	001a      	movs	r2, r3
10000e4e:	3208      	adds	r2, #8
10000e50:	e7e1      	b.n	10000e16 <vQueueAddToRegistry+0x9e>
10000e52:	69da      	ldr	r2, [r3, #28]
10000e54:	4290      	cmp	r0, r2
10000e56:	d02d      	beq.n	10000eb4 <vQueueAddToRegistry+0x13c>
10000e58:	001a      	movs	r2, r3
10000e5a:	3210      	adds	r2, #16
10000e5c:	e7de      	b.n	10000e1c <vQueueAddToRegistry+0xa4>
10000e5e:	6a5a      	ldr	r2, [r3, #36]	@ 0x24
10000e60:	4290      	cmp	r0, r2
10000e62:	d004      	beq.n	10000e6e <vQueueAddToRegistry+0xf6>
10000e64:	4a1c      	ldr	r2, [pc, #112]	@ (10000ed8 <vQueueAddToRegistry+0x160>)
10000e66:	e7dc      	b.n	10000e22 <vQueueAddToRegistry+0xaa>
10000e68:	3348      	adds	r3, #72	@ 0x48
10000e6a:	001a      	movs	r2, r3
10000e6c:	e7e8      	b.n	10000e40 <vQueueAddToRegistry+0xc8>
10000e6e:	2204      	movs	r2, #4
10000e70:	00d2      	lsls	r2, r2, #3
10000e72:	189a      	adds	r2, r3, r2
10000e74:	e7e4      	b.n	10000e40 <vQueueAddToRegistry+0xc8>
10000e76:	6ada      	ldr	r2, [r3, #44]	@ 0x2c
10000e78:	4290      	cmp	r0, r2
10000e7a:	d01d      	beq.n	10000eb8 <vQueueAddToRegistry+0x140>
10000e7c:	001a      	movs	r2, r3
10000e7e:	3220      	adds	r2, #32
10000e80:	e7d2      	b.n	10000e28 <vQueueAddToRegistry+0xb0>
10000e82:	6b5a      	ldr	r2, [r3, #52]	@ 0x34
10000e84:	4290      	cmp	r0, r2
10000e86:	d019      	beq.n	10000ebc <vQueueAddToRegistry+0x144>
10000e88:	001a      	movs	r2, r3
10000e8a:	3228      	adds	r2, #40	@ 0x28
10000e8c:	e7cf      	b.n	10000e2e <vQueueAddToRegistry+0xb6>
10000e8e:	6bda      	ldr	r2, [r3, #60]	@ 0x3c
10000e90:	4290      	cmp	r0, r2
10000e92:	d015      	beq.n	10000ec0 <vQueueAddToRegistry+0x148>
10000e94:	001a      	movs	r2, r3
10000e96:	3230      	adds	r2, #48	@ 0x30
10000e98:	e7cc      	b.n	10000e34 <vQueueAddToRegistry+0xbc>
10000e9a:	6c5a      	ldr	r2, [r3, #68]	@ 0x44
10000e9c:	4290      	cmp	r0, r2
10000e9e:	d011      	beq.n	10000ec4 <vQueueAddToRegistry+0x14c>
10000ea0:	001a      	movs	r2, r3
10000ea2:	3238      	adds	r2, #56	@ 0x38
10000ea4:	e7c9      	b.n	10000e3a <vQueueAddToRegistry+0xc2>
10000ea6:	2200      	movs	r2, #0
10000ea8:	e7e2      	b.n	10000e70 <vQueueAddToRegistry+0xf8>
10000eaa:	6cda      	ldr	r2, [r3, #76]	@ 0x4c
10000eac:	4290      	cmp	r0, r2
10000eae:	d00b      	beq.n	10000ec8 <vQueueAddToRegistry+0x150>
10000eb0:	4a0a      	ldr	r2, [pc, #40]	@ (10000edc <vQueueAddToRegistry+0x164>)
10000eb2:	e7c5      	b.n	10000e40 <vQueueAddToRegistry+0xc8>
10000eb4:	2203      	movs	r2, #3
10000eb6:	e7db      	b.n	10000e70 <vQueueAddToRegistry+0xf8>
10000eb8:	2205      	movs	r2, #5
10000eba:	e7d9      	b.n	10000e70 <vQueueAddToRegistry+0xf8>
10000ebc:	2206      	movs	r2, #6
10000ebe:	e7d7      	b.n	10000e70 <vQueueAddToRegistry+0xf8>
10000ec0:	2207      	movs	r2, #7
10000ec2:	e7d5      	b.n	10000e70 <vQueueAddToRegistry+0xf8>
10000ec4:	2208      	movs	r2, #8
10000ec6:	e7d3      	b.n	10000e70 <vQueueAddToRegistry+0xf8>
10000ec8:	2209      	movs	r2, #9
10000eca:	e7d1      	b.n	10000e70 <vQueueAddToRegistry+0xf8>
10000ecc:	2202      	movs	r2, #2
10000ece:	e7cf      	b.n	10000e70 <vQueueAddToRegistry+0xf8>
10000ed0:	2201      	movs	r2, #1
10000ed2:	e7cd      	b.n	10000e70 <vQueueAddToRegistry+0xf8>
10000ed4:	200006e0 	.word	0x200006e0
10000ed8:	200006f8 	.word	0x200006f8
10000edc:	20000720 	.word	0x20000720

10000ee0 <vQueueWaitForMessageRestricted>:
10000ee0:	b570      	push	{r4, r5, r6, lr}
10000ee2:	0005      	movs	r5, r0
10000ee4:	0016      	movs	r6, r2
10000ee6:	000c      	movs	r4, r1
10000ee8:	f001 faee 	bl	100024c8 <vPortEnterCritical>
10000eec:	2244      	movs	r2, #68	@ 0x44
10000eee:	5cab      	ldrb	r3, [r5, r2]
10000ef0:	b25b      	sxtb	r3, r3
10000ef2:	3301      	adds	r3, #1
10000ef4:	d101      	bne.n	10000efa <vQueueWaitForMessageRestricted+0x1a>
10000ef6:	2300      	movs	r3, #0
10000ef8:	54ab      	strb	r3, [r5, r2]
10000efa:	2245      	movs	r2, #69	@ 0x45
10000efc:	5cab      	ldrb	r3, [r5, r2]
10000efe:	b25b      	sxtb	r3, r3
10000f00:	3301      	adds	r3, #1
10000f02:	d101      	bne.n	10000f08 <vQueueWaitForMessageRestricted+0x28>
10000f04:	2300      	movs	r3, #0
10000f06:	54ab      	strb	r3, [r5, r2]
10000f08:	f001 faea 	bl	100024e0 <vPortExitCritical>
10000f0c:	6bab      	ldr	r3, [r5, #56]	@ 0x38
10000f0e:	2b00      	cmp	r3, #0
10000f10:	d046      	beq.n	10000fa0 <vQueueWaitForMessageRestricted+0xc0>
10000f12:	f001 fad9 	bl	100024c8 <vPortEnterCritical>
10000f16:	2345      	movs	r3, #69	@ 0x45
10000f18:	5cec      	ldrb	r4, [r5, r3]
10000f1a:	b264      	sxtb	r4, r4
10000f1c:	2c00      	cmp	r4, #0
10000f1e:	dd16      	ble.n	10000f4e <vQueueWaitForMessageRestricted+0x6e>
10000f20:	002e      	movs	r6, r5
10000f22:	3624      	adds	r6, #36	@ 0x24
10000f24:	e004      	b.n	10000f30 <vQueueWaitForMessageRestricted+0x50>
10000f26:	3c01      	subs	r4, #1
10000f28:	b2e2      	uxtb	r2, r4
10000f2a:	b264      	sxtb	r4, r4
10000f2c:	2a00      	cmp	r2, #0
10000f2e:	d00e      	beq.n	10000f4e <vQueueWaitForMessageRestricted+0x6e>
10000f30:	6a6b      	ldr	r3, [r5, #36]	@ 0x24
10000f32:	2b00      	cmp	r3, #0
10000f34:	d00b      	beq.n	10000f4e <vQueueWaitForMessageRestricted+0x6e>
10000f36:	0030      	movs	r0, r6
10000f38:	f000 fe72 	bl	10001c20 <xTaskRemoveFromEventList>
10000f3c:	2800      	cmp	r0, #0
10000f3e:	d0f2      	beq.n	10000f26 <vQueueWaitForMessageRestricted+0x46>
10000f40:	3c01      	subs	r4, #1
10000f42:	f000 ff13 	bl	10001d6c <vTaskMissedYield>
10000f46:	b2e2      	uxtb	r2, r4
10000f48:	b264      	sxtb	r4, r4
10000f4a:	2a00      	cmp	r2, #0
10000f4c:	d1f0      	bne.n	10000f30 <vQueueWaitForMessageRestricted+0x50>
10000f4e:	2345      	movs	r3, #69	@ 0x45
10000f50:	22ff      	movs	r2, #255	@ 0xff
10000f52:	54ea      	strb	r2, [r5, r3]
10000f54:	f001 fac4 	bl	100024e0 <vPortExitCritical>
10000f58:	f001 fab6 	bl	100024c8 <vPortEnterCritical>
10000f5c:	2344      	movs	r3, #68	@ 0x44
10000f5e:	5cec      	ldrb	r4, [r5, r3]
10000f60:	b264      	sxtb	r4, r4
10000f62:	2c00      	cmp	r4, #0
10000f64:	dd16      	ble.n	10000f94 <vQueueWaitForMessageRestricted+0xb4>
10000f66:	002e      	movs	r6, r5
10000f68:	3610      	adds	r6, #16
10000f6a:	e004      	b.n	10000f76 <vQueueWaitForMessageRestricted+0x96>
10000f6c:	3c01      	subs	r4, #1
10000f6e:	b2e2      	uxtb	r2, r4
10000f70:	b264      	sxtb	r4, r4
10000f72:	2a00      	cmp	r2, #0
10000f74:	d00e      	beq.n	10000f94 <vQueueWaitForMessageRestricted+0xb4>
10000f76:	692b      	ldr	r3, [r5, #16]
10000f78:	2b00      	cmp	r3, #0
10000f7a:	d00b      	beq.n	10000f94 <vQueueWaitForMessageRestricted+0xb4>
10000f7c:	0030      	movs	r0, r6
10000f7e:	f000 fe4f 	bl	10001c20 <xTaskRemoveFromEventList>
10000f82:	2800      	cmp	r0, #0
10000f84:	d0f2      	beq.n	10000f6c <vQueueWaitForMessageRestricted+0x8c>
10000f86:	3c01      	subs	r4, #1
10000f88:	f000 fef0 	bl	10001d6c <vTaskMissedYield>
10000f8c:	b2e2      	uxtb	r2, r4
10000f8e:	b264      	sxtb	r4, r4
10000f90:	2a00      	cmp	r2, #0
10000f92:	d1f0      	bne.n	10000f76 <vQueueWaitForMessageRestricted+0x96>
10000f94:	2344      	movs	r3, #68	@ 0x44
10000f96:	22ff      	movs	r2, #255	@ 0xff
10000f98:	54ea      	strb	r2, [r5, r3]
10000f9a:	f001 faa1 	bl	100024e0 <vPortExitCritical>
10000f9e:	bd70      	pop	{r4, r5, r6, pc}
10000fa0:	0028      	movs	r0, r5
10000fa2:	0032      	movs	r2, r6
10000fa4:	0021      	movs	r1, r4
10000fa6:	3024      	adds	r0, #36	@ 0x24
10000fa8:	f000 fdd8 	bl	10001b5c <vTaskPlaceOnEventListRestricted>
10000fac:	e7b1      	b.n	10000f12 <vQueueWaitForMessageRestricted+0x32>
10000fae:	46c0      	nop			@ (mov r8, r8)

10000fb0 <prvAddNewTaskToReadyList>:
10000fb0:	b5f0      	push	{r4, r5, r6, r7, lr}
10000fb2:	46c6      	mov	lr, r8
10000fb4:	b500      	push	{lr}
10000fb6:	0004      	movs	r4, r0
10000fb8:	f001 fa86 	bl	100024c8 <vPortEnterCritical>
10000fbc:	4a37      	ldr	r2, [pc, #220]	@ (1000109c <prvAddNewTaskToReadyList+0xec>)
10000fbe:	4e38      	ldr	r6, [pc, #224]	@ (100010a0 <prvAddNewTaskToReadyList+0xf0>)
10000fc0:	6813      	ldr	r3, [r2, #0]
10000fc2:	3301      	adds	r3, #1
10000fc4:	6013      	str	r3, [r2, #0]
10000fc6:	6833      	ldr	r3, [r6, #0]
10000fc8:	2b00      	cmp	r3, #0
10000fca:	d035      	beq.n	10001038 <prvAddNewTaskToReadyList+0x88>
10000fcc:	4b35      	ldr	r3, [pc, #212]	@ (100010a4 <prvAddNewTaskToReadyList+0xf4>)
10000fce:	6ae2      	ldr	r2, [r4, #44]	@ 0x2c
10000fd0:	4698      	mov	r8, r3
10000fd2:	681b      	ldr	r3, [r3, #0]
10000fd4:	2b00      	cmp	r3, #0
10000fd6:	d029      	beq.n	1000102c <prvAddNewTaskToReadyList+0x7c>
10000fd8:	4d33      	ldr	r5, [pc, #204]	@ (100010a8 <prvAddNewTaskToReadyList+0xf8>)
10000fda:	4934      	ldr	r1, [pc, #208]	@ (100010ac <prvAddNewTaskToReadyList+0xfc>)
10000fdc:	680b      	ldr	r3, [r1, #0]
10000fde:	3301      	adds	r3, #1
10000fe0:	600b      	str	r3, [r1, #0]
10000fe2:	6463      	str	r3, [r4, #68]	@ 0x44
10000fe4:	4b32      	ldr	r3, [pc, #200]	@ (100010b0 <prvAddNewTaskToReadyList+0x100>)
10000fe6:	6819      	ldr	r1, [r3, #0]
10000fe8:	4291      	cmp	r1, r2
10000fea:	d200      	bcs.n	10000fee <prvAddNewTaskToReadyList+0x3e>
10000fec:	601a      	str	r2, [r3, #0]
10000fee:	0093      	lsls	r3, r2, #2
10000ff0:	189b      	adds	r3, r3, r2
10000ff2:	009b      	lsls	r3, r3, #2
10000ff4:	18e9      	adds	r1, r5, r3
10000ff6:	684a      	ldr	r2, [r1, #4]
10000ff8:	60a2      	str	r2, [r4, #8]
10000ffa:	6890      	ldr	r0, [r2, #8]
10000ffc:	4684      	mov	ip, r0
10000ffe:	4667      	mov	r7, ip
10001000:	60e0      	str	r0, [r4, #12]
10001002:	1d20      	adds	r0, r4, #4
10001004:	6078      	str	r0, [r7, #4]
10001006:	6090      	str	r0, [r2, #8]
10001008:	58ea      	ldr	r2, [r5, r3]
1000100a:	6161      	str	r1, [r4, #20]
1000100c:	3201      	adds	r2, #1
1000100e:	50ea      	str	r2, [r5, r3]
10001010:	f001 fa66 	bl	100024e0 <vPortExitCritical>
10001014:	4643      	mov	r3, r8
10001016:	681b      	ldr	r3, [r3, #0]
10001018:	2b00      	cmp	r3, #0
1000101a:	d004      	beq.n	10001026 <prvAddNewTaskToReadyList+0x76>
1000101c:	6833      	ldr	r3, [r6, #0]
1000101e:	6ada      	ldr	r2, [r3, #44]	@ 0x2c
10001020:	6ae3      	ldr	r3, [r4, #44]	@ 0x2c
10001022:	429a      	cmp	r2, r3
10001024:	d311      	bcc.n	1000104a <prvAddNewTaskToReadyList+0x9a>
10001026:	bc80      	pop	{r7}
10001028:	46b8      	mov	r8, r7
1000102a:	bdf0      	pop	{r4, r5, r6, r7, pc}
1000102c:	6833      	ldr	r3, [r6, #0]
1000102e:	6adb      	ldr	r3, [r3, #44]	@ 0x2c
10001030:	4293      	cmp	r3, r2
10001032:	d8d1      	bhi.n	10000fd8 <prvAddNewTaskToReadyList+0x28>
10001034:	6034      	str	r4, [r6, #0]
10001036:	e7cf      	b.n	10000fd8 <prvAddNewTaskToReadyList+0x28>
10001038:	6034      	str	r4, [r6, #0]
1000103a:	6813      	ldr	r3, [r2, #0]
1000103c:	2b01      	cmp	r3, #1
1000103e:	d007      	beq.n	10001050 <prvAddNewTaskToReadyList+0xa0>
10001040:	4b18      	ldr	r3, [pc, #96]	@ (100010a4 <prvAddNewTaskToReadyList+0xf4>)
10001042:	6ae2      	ldr	r2, [r4, #44]	@ 0x2c
10001044:	4698      	mov	r8, r3
10001046:	4d18      	ldr	r5, [pc, #96]	@ (100010a8 <prvAddNewTaskToReadyList+0xf8>)
10001048:	e7c7      	b.n	10000fda <prvAddNewTaskToReadyList+0x2a>
1000104a:	f001 fa31 	bl	100024b0 <vPortYield>
1000104e:	e7ea      	b.n	10001026 <prvAddNewTaskToReadyList+0x76>
10001050:	2364      	movs	r3, #100	@ 0x64
10001052:	4d15      	ldr	r5, [pc, #84]	@ (100010a8 <prvAddNewTaskToReadyList+0xf8>)
10001054:	4698      	mov	r8, r3
10001056:	002f      	movs	r7, r5
10001058:	44a8      	add	r8, r5
1000105a:	0038      	movs	r0, r7
1000105c:	3714      	adds	r7, #20
1000105e:	f7ff fabd 	bl	100005dc <vListInitialise>
10001062:	4547      	cmp	r7, r8
10001064:	d1f9      	bne.n	1000105a <prvAddNewTaskToReadyList+0xaa>
10001066:	4b13      	ldr	r3, [pc, #76]	@ (100010b4 <prvAddNewTaskToReadyList+0x104>)
10001068:	4698      	mov	r8, r3
1000106a:	0018      	movs	r0, r3
1000106c:	f7ff fab6 	bl	100005dc <vListInitialise>
10001070:	4f11      	ldr	r7, [pc, #68]	@ (100010b8 <prvAddNewTaskToReadyList+0x108>)
10001072:	0038      	movs	r0, r7
10001074:	f7ff fab2 	bl	100005dc <vListInitialise>
10001078:	4810      	ldr	r0, [pc, #64]	@ (100010bc <prvAddNewTaskToReadyList+0x10c>)
1000107a:	f7ff faaf 	bl	100005dc <vListInitialise>
1000107e:	4810      	ldr	r0, [pc, #64]	@ (100010c0 <prvAddNewTaskToReadyList+0x110>)
10001080:	f7ff faac 	bl	100005dc <vListInitialise>
10001084:	480f      	ldr	r0, [pc, #60]	@ (100010c4 <prvAddNewTaskToReadyList+0x114>)
10001086:	f7ff faa9 	bl	100005dc <vListInitialise>
1000108a:	4642      	mov	r2, r8
1000108c:	4b0e      	ldr	r3, [pc, #56]	@ (100010c8 <prvAddNewTaskToReadyList+0x118>)
1000108e:	601a      	str	r2, [r3, #0]
10001090:	4b0e      	ldr	r3, [pc, #56]	@ (100010cc <prvAddNewTaskToReadyList+0x11c>)
10001092:	6ae2      	ldr	r2, [r4, #44]	@ 0x2c
10001094:	601f      	str	r7, [r3, #0]
10001096:	4b03      	ldr	r3, [pc, #12]	@ (100010a4 <prvAddNewTaskToReadyList+0xf4>)
10001098:	4698      	mov	r8, r3
1000109a:	e79e      	b.n	10000fda <prvAddNewTaskToReadyList+0x2a>
1000109c:	200089f8 	.word	0x200089f8
100010a0:	20000b48 	.word	0x20000b48
100010a4:	20008a98 	.word	0x20008a98
100010a8:	20000b60 	.word	0x20000b60
100010ac:	20008a04 	.word	0x20008a04
100010b0:	20008a08 	.word	0x20008a08
100010b4:	20008a34 	.word	0x20008a34
100010b8:	20008a48 	.word	0x20008a48
100010bc:	20008a84 	.word	0x20008a84
100010c0:	20008b28 	.word	0x20008b28
100010c4:	20008b14 	.word	0x20008b14
100010c8:	20000b50 	.word	0x20000b50
100010cc:	20000b58 	.word	0x20000b58

100010d0 <prvAddCurrentTaskToDelayedList>:
100010d0:	b5f8      	push	{r3, r4, r5, r6, r7, lr}
100010d2:	4647      	mov	r7, r8
100010d4:	46ce      	mov	lr, r9
100010d6:	0004      	movs	r4, r0
100010d8:	4b25      	ldr	r3, [pc, #148]	@ (10001170 <prvAddCurrentTaskToDelayedList+0xa0>)
100010da:	b580      	push	{r7, lr}
100010dc:	681e      	ldr	r6, [r3, #0]
100010de:	4b25      	ldr	r3, [pc, #148]	@ (10001174 <prvAddCurrentTaskToDelayedList+0xa4>)
100010e0:	4d25      	ldr	r5, [pc, #148]	@ (10001178 <prvAddCurrentTaskToDelayedList+0xa8>)
100010e2:	681f      	ldr	r7, [r3, #0]
100010e4:	4b25      	ldr	r3, [pc, #148]	@ (1000117c <prvAddCurrentTaskToDelayedList+0xac>)
100010e6:	4689      	mov	r9, r1
100010e8:	681b      	ldr	r3, [r3, #0]
100010ea:	6828      	ldr	r0, [r5, #0]
100010ec:	4698      	mov	r8, r3
100010ee:	3004      	adds	r0, #4
100010f0:	f7ff fa9c 	bl	1000062c <uxListRemove>
100010f4:	1c63      	adds	r3, r4, #1
100010f6:	d018      	beq.n	1000112a <prvAddCurrentTaskToDelayedList+0x5a>
100010f8:	682b      	ldr	r3, [r5, #0]
100010fa:	1934      	adds	r4, r6, r4
100010fc:	605c      	str	r4, [r3, #4]
100010fe:	42a6      	cmp	r6, r4
10001100:	d908      	bls.n	10001114 <prvAddCurrentTaskToDelayedList+0x44>
10001102:	6829      	ldr	r1, [r5, #0]
10001104:	4640      	mov	r0, r8
10001106:	3104      	adds	r1, #4
10001108:	f7ff fa78 	bl	100005fc <vListInsert>
1000110c:	bcc0      	pop	{r6, r7}
1000110e:	46b9      	mov	r9, r7
10001110:	46b0      	mov	r8, r6
10001112:	bdf8      	pop	{r3, r4, r5, r6, r7, pc}
10001114:	6829      	ldr	r1, [r5, #0]
10001116:	0038      	movs	r0, r7
10001118:	3104      	adds	r1, #4
1000111a:	f7ff fa6f 	bl	100005fc <vListInsert>
1000111e:	4b18      	ldr	r3, [pc, #96]	@ (10001180 <prvAddCurrentTaskToDelayedList+0xb0>)
10001120:	681a      	ldr	r2, [r3, #0]
10001122:	42a2      	cmp	r2, r4
10001124:	d9f2      	bls.n	1000110c <prvAddCurrentTaskToDelayedList+0x3c>
10001126:	601c      	str	r4, [r3, #0]
10001128:	e7f0      	b.n	1000110c <prvAddCurrentTaskToDelayedList+0x3c>
1000112a:	464b      	mov	r3, r9
1000112c:	2b00      	cmp	r3, #0
1000112e:	d10c      	bne.n	1000114a <prvAddCurrentTaskToDelayedList+0x7a>
10001130:	682a      	ldr	r2, [r5, #0]
10001132:	1e73      	subs	r3, r6, #1
10001134:	6053      	str	r3, [r2, #4]
10001136:	429e      	cmp	r6, r3
10001138:	d8e3      	bhi.n	10001102 <prvAddCurrentTaskToDelayedList+0x32>
1000113a:	6829      	ldr	r1, [r5, #0]
1000113c:	0038      	movs	r0, r7
1000113e:	3104      	adds	r1, #4
10001140:	f7ff fa5c 	bl	100005fc <vListInsert>
10001144:	4b0e      	ldr	r3, [pc, #56]	@ (10001180 <prvAddCurrentTaskToDelayedList+0xb0>)
10001146:	681b      	ldr	r3, [r3, #0]
10001148:	e7e0      	b.n	1000110c <prvAddCurrentTaskToDelayedList+0x3c>
1000114a:	4b0e      	ldr	r3, [pc, #56]	@ (10001184 <prvAddCurrentTaskToDelayedList+0xb4>)
1000114c:	6829      	ldr	r1, [r5, #0]
1000114e:	685a      	ldr	r2, [r3, #4]
10001150:	608a      	str	r2, [r1, #8]
10001152:	6890      	ldr	r0, [r2, #8]
10001154:	6829      	ldr	r1, [r5, #0]
10001156:	60c8      	str	r0, [r1, #12]
10001158:	6829      	ldr	r1, [r5, #0]
1000115a:	3104      	adds	r1, #4
1000115c:	6041      	str	r1, [r0, #4]
1000115e:	6829      	ldr	r1, [r5, #0]
10001160:	3104      	adds	r1, #4
10001162:	6091      	str	r1, [r2, #8]
10001164:	682a      	ldr	r2, [r5, #0]
10001166:	6153      	str	r3, [r2, #20]
10001168:	681a      	ldr	r2, [r3, #0]
1000116a:	3201      	adds	r2, #1
1000116c:	601a      	str	r2, [r3, #0]
1000116e:	e7cd      	b.n	1000110c <prvAddCurrentTaskToDelayedList+0x3c>
10001170:	20008b3c 	.word	0x20008b3c
10001174:	20000b50 	.word	0x20000b50
10001178:	20000b48 	.word	0x20000b48
1000117c:	20000b58 	.word	0x20000b58
10001180:	20008a70 	.word	0x20008a70
10001184:	20008b14 	.word	0x20008b14

10001188 <vTaskSwitchContext.part.0>:
10001188:	2200      	movs	r2, #0
1000118a:	4b2a      	ldr	r3, [pc, #168]	@ (10001234 <vTaskSwitchContext.part.0+0xac>)
1000118c:	b570      	push	{r4, r5, r6, lr}
1000118e:	4c2a      	ldr	r4, [pc, #168]	@ (10001238 <vTaskSwitchContext.part.0+0xb0>)
10001190:	601a      	str	r2, [r3, #0]
10001192:	6821      	ldr	r1, [r4, #0]
10001194:	6822      	ldr	r2, [r4, #0]
10001196:	6823      	ldr	r3, [r4, #0]
10001198:	6812      	ldr	r2, [r2, #0]
1000119a:	6b1b      	ldr	r3, [r3, #48]	@ 0x30
1000119c:	3310      	adds	r3, #16
1000119e:	429a      	cmp	r2, r3
100011a0:	d904      	bls.n	100011ac <vTaskSwitchContext.part.0+0x24>
100011a2:	6b0b      	ldr	r3, [r1, #48]	@ 0x30
100011a4:	4925      	ldr	r1, [pc, #148]	@ (1000123c <vTaskSwitchContext.part.0+0xb4>)
100011a6:	681a      	ldr	r2, [r3, #0]
100011a8:	428a      	cmp	r2, r1
100011aa:	d033      	beq.n	10001214 <vTaskSwitchContext.part.0+0x8c>
100011ac:	6821      	ldr	r1, [r4, #0]
100011ae:	6820      	ldr	r0, [r4, #0]
100011b0:	3134      	adds	r1, #52	@ 0x34
100011b2:	f7ff f999 	bl	100004e8 <vApplicationStackOverflowHook>
100011b6:	4e22      	ldr	r6, [pc, #136]	@ (10001240 <vTaskSwitchContext.part.0+0xb8>)
100011b8:	4922      	ldr	r1, [pc, #136]	@ (10001244 <vTaskSwitchContext.part.0+0xbc>)
100011ba:	6835      	ldr	r5, [r6, #0]
100011bc:	00ab      	lsls	r3, r5, #2
100011be:	195a      	adds	r2, r3, r5
100011c0:	0092      	lsls	r2, r2, #2
100011c2:	588a      	ldr	r2, [r1, r2]
100011c4:	2a00      	cmp	r2, #0
100011c6:	d132      	bne.n	1000122e <vTaskSwitchContext.part.0+0xa6>
100011c8:	1e6a      	subs	r2, r5, #1
100011ca:	0093      	lsls	r3, r2, #2
100011cc:	1898      	adds	r0, r3, r2
100011ce:	0080      	lsls	r0, r0, #2
100011d0:	5808      	ldr	r0, [r1, r0]
100011d2:	2800      	cmp	r0, #0
100011d4:	d10f      	bne.n	100011f6 <vTaskSwitchContext.part.0+0x6e>
100011d6:	1eaa      	subs	r2, r5, #2
100011d8:	0093      	lsls	r3, r2, #2
100011da:	1898      	adds	r0, r3, r2
100011dc:	0080      	lsls	r0, r0, #2
100011de:	5808      	ldr	r0, [r1, r0]
100011e0:	2800      	cmp	r0, #0
100011e2:	d108      	bne.n	100011f6 <vTaskSwitchContext.part.0+0x6e>
100011e4:	1eea      	subs	r2, r5, #3
100011e6:	0093      	lsls	r3, r2, #2
100011e8:	1898      	adds	r0, r3, r2
100011ea:	0080      	lsls	r0, r0, #2
100011ec:	5808      	ldr	r0, [r1, r0]
100011ee:	2800      	cmp	r0, #0
100011f0:	d101      	bne.n	100011f6 <vTaskSwitchContext.part.0+0x6e>
100011f2:	1f2a      	subs	r2, r5, #4
100011f4:	0093      	lsls	r3, r2, #2
100011f6:	189b      	adds	r3, r3, r2
100011f8:	009b      	lsls	r3, r3, #2
100011fa:	18cd      	adds	r5, r1, r3
100011fc:	6868      	ldr	r0, [r5, #4]
100011fe:	3308      	adds	r3, #8
10001200:	6840      	ldr	r0, [r0, #4]
10001202:	18c9      	adds	r1, r1, r3
10001204:	6068      	str	r0, [r5, #4]
10001206:	4288      	cmp	r0, r1
10001208:	d00e      	beq.n	10001228 <vTaskSwitchContext.part.0+0xa0>
1000120a:	68c3      	ldr	r3, [r0, #12]
1000120c:	6023      	str	r3, [r4, #0]
1000120e:	6032      	str	r2, [r6, #0]
10001210:	6823      	ldr	r3, [r4, #0]
10001212:	bd70      	pop	{r4, r5, r6, pc}
10001214:	6859      	ldr	r1, [r3, #4]
10001216:	4291      	cmp	r1, r2
10001218:	d1c8      	bne.n	100011ac <vTaskSwitchContext.part.0+0x24>
1000121a:	689a      	ldr	r2, [r3, #8]
1000121c:	428a      	cmp	r2, r1
1000121e:	d1c5      	bne.n	100011ac <vTaskSwitchContext.part.0+0x24>
10001220:	68db      	ldr	r3, [r3, #12]
10001222:	4293      	cmp	r3, r2
10001224:	d1c2      	bne.n	100011ac <vTaskSwitchContext.part.0+0x24>
10001226:	e7c6      	b.n	100011b6 <vTaskSwitchContext.part.0+0x2e>
10001228:	68e8      	ldr	r0, [r5, #12]
1000122a:	6068      	str	r0, [r5, #4]
1000122c:	e7ed      	b.n	1000120a <vTaskSwitchContext.part.0+0x82>
1000122e:	002a      	movs	r2, r5
10001230:	e7e1      	b.n	100011f6 <vTaskSwitchContext.part.0+0x6e>
10001232:	46c0      	nop			@ (mov r8, r8)
10001234:	20008b48 	.word	0x20008b48
10001238:	20000b48 	.word	0x20000b48
1000123c:	a5a5a5a5 	.word	0xa5a5a5a5
10001240:	20008a08 	.word	0x20008a08
10001244:	20000b60 	.word	0x20000b60

10001248 <prvIdleTask>:
10001248:	b5f8      	push	{r3, r4, r5, r6, r7, lr}
1000124a:	4647      	mov	r7, r8
1000124c:	46ce      	mov	lr, r9
1000124e:	4b1a      	ldr	r3, [pc, #104]	@ (100012b8 <prvIdleTask+0x70>)
10001250:	b580      	push	{r7, lr}
10001252:	4698      	mov	r8, r3
10001254:	4b19      	ldr	r3, [pc, #100]	@ (100012bc <prvIdleTask+0x74>)
10001256:	2777      	movs	r7, #119	@ 0x77
10001258:	4699      	mov	r9, r3
1000125a:	4d19      	ldr	r5, [pc, #100]	@ (100012c0 <prvIdleTask+0x78>)
1000125c:	4e19      	ldr	r6, [pc, #100]	@ (100012c4 <prvIdleTask+0x7c>)
1000125e:	682b      	ldr	r3, [r5, #0]
10001260:	2b00      	cmp	r3, #0
10001262:	d01a      	beq.n	1000129a <prvIdleTask+0x52>
10001264:	f001 f930 	bl	100024c8 <vPortEnterCritical>
10001268:	4643      	mov	r3, r8
1000126a:	68db      	ldr	r3, [r3, #12]
1000126c:	68dc      	ldr	r4, [r3, #12]
1000126e:	1d20      	adds	r0, r4, #4
10001270:	f7ff f9dc 	bl	1000062c <uxListRemove>
10001274:	6833      	ldr	r3, [r6, #0]
10001276:	3b01      	subs	r3, #1
10001278:	6033      	str	r3, [r6, #0]
1000127a:	682b      	ldr	r3, [r5, #0]
1000127c:	3b01      	subs	r3, #1
1000127e:	602b      	str	r3, [r5, #0]
10001280:	f001 f92e 	bl	100024e0 <vPortExitCritical>
10001284:	5de3      	ldrb	r3, [r4, r7]
10001286:	2b00      	cmp	r3, #0
10001288:	d00e      	beq.n	100012a8 <prvIdleTask+0x60>
1000128a:	2b01      	cmp	r3, #1
1000128c:	d1e7      	bne.n	1000125e <prvIdleTask+0x16>
1000128e:	0020      	movs	r0, r4
10001290:	f001 fa4a 	bl	10002728 <vPortFree>
10001294:	682b      	ldr	r3, [r5, #0]
10001296:	2b00      	cmp	r3, #0
10001298:	d1e4      	bne.n	10001264 <prvIdleTask+0x1c>
1000129a:	464b      	mov	r3, r9
1000129c:	681b      	ldr	r3, [r3, #0]
1000129e:	2b01      	cmp	r3, #1
100012a0:	d9dd      	bls.n	1000125e <prvIdleTask+0x16>
100012a2:	f001 f905 	bl	100024b0 <vPortYield>
100012a6:	e7da      	b.n	1000125e <prvIdleTask+0x16>
100012a8:	6b20      	ldr	r0, [r4, #48]	@ 0x30
100012aa:	f001 fa3d 	bl	10002728 <vPortFree>
100012ae:	0020      	movs	r0, r4
100012b0:	f001 fa3a 	bl	10002728 <vPortFree>
100012b4:	e7d3      	b.n	1000125e <prvIdleTask+0x16>
100012b6:	46c0      	nop			@ (mov r8, r8)
100012b8:	20008b28 	.word	0x20008b28
100012bc:	20000b60 	.word	0x20000b60
100012c0:	200089fc 	.word	0x200089fc
100012c4:	200089f8 	.word	0x200089f8

100012c8 <xTaskIncrementTick.part.0>:
100012c8:	b5f0      	push	{r4, r5, r6, r7, lr}
100012ca:	46de      	mov	lr, fp
100012cc:	4657      	mov	r7, sl
100012ce:	464e      	mov	r6, r9
100012d0:	4645      	mov	r5, r8
100012d2:	4b5c      	ldr	r3, [pc, #368]	@ (10001444 <xTaskIncrementTick.part.0+0x17c>)
100012d4:	b5e0      	push	{r5, r6, r7, lr}
100012d6:	6818      	ldr	r0, [r3, #0]
100012d8:	b083      	sub	sp, #12
100012da:	3001      	adds	r0, #1
100012dc:	6018      	str	r0, [r3, #0]
100012de:	2800      	cmp	r0, #0
100012e0:	d066      	beq.n	100013b0 <xTaskIncrementTick.part.0+0xe8>
100012e2:	4959      	ldr	r1, [pc, #356]	@ (10001448 <xTaskIncrementTick.part.0+0x180>)
100012e4:	680b      	ldr	r3, [r1, #0]
100012e6:	4298      	cmp	r0, r3
100012e8:	d377      	bcc.n	100013da <xTaskIncrementTick.part.0+0x112>
100012ea:	4b58      	ldr	r3, [pc, #352]	@ (1000144c <xTaskIncrementTick.part.0+0x184>)
100012ec:	4698      	mov	r8, r3
100012ee:	681b      	ldr	r3, [r3, #0]
100012f0:	681b      	ldr	r3, [r3, #0]
100012f2:	2b00      	cmp	r3, #0
100012f4:	d100      	bne.n	100012f8 <xTaskIncrementTick.part.0+0x30>
100012f6:	e0a0      	b.n	1000143a <xTaskIncrementTick.part.0+0x172>
100012f8:	2300      	movs	r3, #0
100012fa:	469c      	mov	ip, r3
100012fc:	4b54      	ldr	r3, [pc, #336]	@ (10001450 <xTaskIncrementTick.part.0+0x188>)
100012fe:	4d55      	ldr	r5, [pc, #340]	@ (10001454 <xTaskIncrementTick.part.0+0x18c>)
10001300:	469b      	mov	fp, r3
10001302:	2300      	movs	r3, #0
10001304:	4699      	mov	r9, r3
10001306:	4b54      	ldr	r3, [pc, #336]	@ (10001458 <xTaskIncrementTick.part.0+0x190>)
10001308:	9101      	str	r1, [sp, #4]
1000130a:	469a      	mov	sl, r3
1000130c:	4643      	mov	r3, r8
1000130e:	4680      	mov	r8, r0
10001310:	0018      	movs	r0, r3
10001312:	e03a      	b.n	1000138a <xTaskIncrementTick.part.0+0xc2>
10001314:	4649      	mov	r1, r9
10001316:	6159      	str	r1, [r3, #20]
10001318:	6811      	ldr	r1, [r2, #0]
1000131a:	3901      	subs	r1, #1
1000131c:	6011      	str	r1, [r2, #0]
1000131e:	6a9a      	ldr	r2, [r3, #40]	@ 0x28
10001320:	2a00      	cmp	r2, #0
10001322:	d00f      	beq.n	10001344 <xTaskIncrementTick.part.0+0x7c>
10001324:	69de      	ldr	r6, [r3, #28]
10001326:	6a19      	ldr	r1, [r3, #32]
10001328:	60b1      	str	r1, [r6, #8]
1000132a:	69de      	ldr	r6, [r3, #28]
1000132c:	604e      	str	r6, [r1, #4]
1000132e:	0019      	movs	r1, r3
10001330:	6856      	ldr	r6, [r2, #4]
10001332:	3118      	adds	r1, #24
10001334:	428e      	cmp	r6, r1
10001336:	d100      	bne.n	1000133a <xTaskIncrementTick.part.0+0x72>
10001338:	e074      	b.n	10001424 <xTaskIncrementTick.part.0+0x15c>
1000133a:	4649      	mov	r1, r9
1000133c:	6299      	str	r1, [r3, #40]	@ 0x28
1000133e:	6811      	ldr	r1, [r2, #0]
10001340:	3901      	subs	r1, #1
10001342:	6011      	str	r1, [r2, #0]
10001344:	4652      	mov	r2, sl
10001346:	6ad9      	ldr	r1, [r3, #44]	@ 0x2c
10001348:	6812      	ldr	r2, [r2, #0]
1000134a:	4291      	cmp	r1, r2
1000134c:	d901      	bls.n	10001352 <xTaskIncrementTick.part.0+0x8a>
1000134e:	4652      	mov	r2, sl
10001350:	6011      	str	r1, [r2, #0]
10001352:	008a      	lsls	r2, r1, #2
10001354:	1852      	adds	r2, r2, r1
10001356:	0092      	lsls	r2, r2, #2
10001358:	18ae      	adds	r6, r5, r2
1000135a:	6871      	ldr	r1, [r6, #4]
1000135c:	6099      	str	r1, [r3, #8]
1000135e:	688f      	ldr	r7, [r1, #8]
10001360:	60df      	str	r7, [r3, #12]
10001362:	607c      	str	r4, [r7, #4]
10001364:	608c      	str	r4, [r1, #8]
10001366:	58a9      	ldr	r1, [r5, r2]
10001368:	615e      	str	r6, [r3, #20]
1000136a:	3101      	adds	r1, #1
1000136c:	50a9      	str	r1, [r5, r2]
1000136e:	465a      	mov	r2, fp
10001370:	6811      	ldr	r1, [r2, #0]
10001372:	6ada      	ldr	r2, [r3, #44]	@ 0x2c
10001374:	6acb      	ldr	r3, [r1, #44]	@ 0x2c
10001376:	4293      	cmp	r3, r2
10001378:	419b      	sbcs	r3, r3
1000137a:	4662      	mov	r2, ip
1000137c:	425b      	negs	r3, r3
1000137e:	431a      	orrs	r2, r3
10001380:	6803      	ldr	r3, [r0, #0]
10001382:	4694      	mov	ip, r2
10001384:	681b      	ldr	r3, [r3, #0]
10001386:	2b00      	cmp	r3, #0
10001388:	d052      	beq.n	10001430 <xTaskIncrementTick.part.0+0x168>
1000138a:	6803      	ldr	r3, [r0, #0]
1000138c:	68db      	ldr	r3, [r3, #12]
1000138e:	68db      	ldr	r3, [r3, #12]
10001390:	685a      	ldr	r2, [r3, #4]
10001392:	4590      	cmp	r8, r2
10001394:	d349      	bcc.n	1000142a <xTaskIncrementTick.part.0+0x162>
10001396:	689c      	ldr	r4, [r3, #8]
10001398:	68d9      	ldr	r1, [r3, #12]
1000139a:	695a      	ldr	r2, [r3, #20]
1000139c:	60a1      	str	r1, [r4, #8]
1000139e:	689c      	ldr	r4, [r3, #8]
100013a0:	604c      	str	r4, [r1, #4]
100013a2:	6851      	ldr	r1, [r2, #4]
100013a4:	1d1c      	adds	r4, r3, #4
100013a6:	42a1      	cmp	r1, r4
100013a8:	d1b4      	bne.n	10001314 <xTaskIncrementTick.part.0+0x4c>
100013aa:	68d9      	ldr	r1, [r3, #12]
100013ac:	6051      	str	r1, [r2, #4]
100013ae:	e7b1      	b.n	10001314 <xTaskIncrementTick.part.0+0x4c>
100013b0:	4b26      	ldr	r3, [pc, #152]	@ (1000144c <xTaskIncrementTick.part.0+0x184>)
100013b2:	4a2a      	ldr	r2, [pc, #168]	@ (1000145c <xTaskIncrementTick.part.0+0x194>)
100013b4:	6819      	ldr	r1, [r3, #0]
100013b6:	6814      	ldr	r4, [r2, #0]
100013b8:	601c      	str	r4, [r3, #0]
100013ba:	6011      	str	r1, [r2, #0]
100013bc:	4928      	ldr	r1, [pc, #160]	@ (10001460 <xTaskIncrementTick.part.0+0x198>)
100013be:	680a      	ldr	r2, [r1, #0]
100013c0:	3201      	adds	r2, #1
100013c2:	600a      	str	r2, [r1, #0]
100013c4:	681a      	ldr	r2, [r3, #0]
100013c6:	6812      	ldr	r2, [r2, #0]
100013c8:	2a00      	cmp	r2, #0
100013ca:	d125      	bne.n	10001418 <xTaskIncrementTick.part.0+0x150>
100013cc:	2301      	movs	r3, #1
100013ce:	491e      	ldr	r1, [pc, #120]	@ (10001448 <xTaskIncrementTick.part.0+0x180>)
100013d0:	425b      	negs	r3, r3
100013d2:	600b      	str	r3, [r1, #0]
100013d4:	680b      	ldr	r3, [r1, #0]
100013d6:	4298      	cmp	r0, r3
100013d8:	d287      	bcs.n	100012ea <xTaskIncrementTick.part.0+0x22>
100013da:	2300      	movs	r3, #0
100013dc:	469c      	mov	ip, r3
100013de:	4b1c      	ldr	r3, [pc, #112]	@ (10001450 <xTaskIncrementTick.part.0+0x188>)
100013e0:	4d1c      	ldr	r5, [pc, #112]	@ (10001454 <xTaskIncrementTick.part.0+0x18c>)
100013e2:	469b      	mov	fp, r3
100013e4:	465b      	mov	r3, fp
100013e6:	2001      	movs	r0, #1
100013e8:	681b      	ldr	r3, [r3, #0]
100013ea:	4a1e      	ldr	r2, [pc, #120]	@ (10001464 <xTaskIncrementTick.part.0+0x19c>)
100013ec:	6ad9      	ldr	r1, [r3, #44]	@ 0x2c
100013ee:	6812      	ldr	r2, [r2, #0]
100013f0:	008b      	lsls	r3, r1, #2
100013f2:	185b      	adds	r3, r3, r1
100013f4:	009b      	lsls	r3, r3, #2
100013f6:	58eb      	ldr	r3, [r5, r3]
100013f8:	4298      	cmp	r0, r3
100013fa:	4180      	sbcs	r0, r0
100013fc:	0013      	movs	r3, r2
100013fe:	1e5a      	subs	r2, r3, #1
10001400:	4193      	sbcs	r3, r2
10001402:	4240      	negs	r0, r0
10001404:	4318      	orrs	r0, r3
10001406:	4663      	mov	r3, ip
10001408:	4318      	orrs	r0, r3
1000140a:	b003      	add	sp, #12
1000140c:	bcf0      	pop	{r4, r5, r6, r7}
1000140e:	46bb      	mov	fp, r7
10001410:	46b2      	mov	sl, r6
10001412:	46a9      	mov	r9, r5
10001414:	46a0      	mov	r8, r4
10001416:	bdf0      	pop	{r4, r5, r6, r7, pc}
10001418:	681b      	ldr	r3, [r3, #0]
1000141a:	490b      	ldr	r1, [pc, #44]	@ (10001448 <xTaskIncrementTick.part.0+0x180>)
1000141c:	68db      	ldr	r3, [r3, #12]
1000141e:	681b      	ldr	r3, [r3, #0]
10001420:	600b      	str	r3, [r1, #0]
10001422:	e75f      	b.n	100012e4 <xTaskIncrementTick.part.0+0x1c>
10001424:	6a19      	ldr	r1, [r3, #32]
10001426:	6051      	str	r1, [r2, #4]
10001428:	e787      	b.n	1000133a <xTaskIncrementTick.part.0+0x72>
1000142a:	9901      	ldr	r1, [sp, #4]
1000142c:	600a      	str	r2, [r1, #0]
1000142e:	e7d9      	b.n	100013e4 <xTaskIncrementTick.part.0+0x11c>
10001430:	9901      	ldr	r1, [sp, #4]
10001432:	2301      	movs	r3, #1
10001434:	425b      	negs	r3, r3
10001436:	600b      	str	r3, [r1, #0]
10001438:	e7d4      	b.n	100013e4 <xTaskIncrementTick.part.0+0x11c>
1000143a:	469c      	mov	ip, r3
1000143c:	4b04      	ldr	r3, [pc, #16]	@ (10001450 <xTaskIncrementTick.part.0+0x188>)
1000143e:	4d05      	ldr	r5, [pc, #20]	@ (10001454 <xTaskIncrementTick.part.0+0x18c>)
10001440:	469b      	mov	fp, r3
10001442:	e7f6      	b.n	10001432 <xTaskIncrementTick.part.0+0x16a>
10001444:	20008b3c 	.word	0x20008b3c
10001448:	20008a70 	.word	0x20008a70
1000144c:	20000b50 	.word	0x20000b50
10001450:	20000b48 	.word	0x20000b48
10001454:	20000b60 	.word	0x20000b60
10001458:	20008a08 	.word	0x20008a08
1000145c:	20000b58 	.word	0x20000b58
10001460:	20008a74 	.word	0x20008a74
10001464:	20008b48 	.word	0x20008b48

10001468 <xTaskCreateStatic>:
10001468:	b5f0      	push	{r4, r5, r6, r7, lr}
1000146a:	46c6      	mov	lr, r8
1000146c:	4698      	mov	r8, r3
1000146e:	2378      	movs	r3, #120	@ 0x78
10001470:	b500      	push	{lr}
10001472:	b082      	sub	sp, #8
10001474:	9c0a      	ldr	r4, [sp, #40]	@ 0x28
10001476:	9301      	str	r3, [sp, #4]
10001478:	0007      	movs	r7, r0
1000147a:	000d      	movs	r5, r1
1000147c:	0016      	movs	r6, r2
1000147e:	9b01      	ldr	r3, [sp, #4]
10001480:	2c00      	cmp	r4, #0
10001482:	d100      	bne.n	10001486 <xTaskCreateStatic+0x1e>
10001484:	e087      	b.n	10001596 <xTaskCreateStatic+0x12e>
10001486:	9b09      	ldr	r3, [sp, #36]	@ 0x24
10001488:	2b00      	cmp	r3, #0
1000148a:	d100      	bne.n	1000148e <xTaskCreateStatic+0x26>
1000148c:	e083      	b.n	10001596 <xTaskCreateStatic+0x12e>
1000148e:	2278      	movs	r2, #120	@ 0x78
10001490:	2100      	movs	r1, #0
10001492:	0020      	movs	r0, r4
10001494:	f002 fe88 	bl	100041a8 <__wrap_memset>
10001498:	9b09      	ldr	r3, [sp, #36]	@ 0x24
1000149a:	2202      	movs	r2, #2
1000149c:	6323      	str	r3, [r4, #48]	@ 0x30
1000149e:	2377      	movs	r3, #119	@ 0x77
100014a0:	00b6      	lsls	r6, r6, #2
100014a2:	54e2      	strb	r2, [r4, r3]
100014a4:	21a5      	movs	r1, #165	@ 0xa5
100014a6:	0032      	movs	r2, r6
100014a8:	9809      	ldr	r0, [sp, #36]	@ 0x24
100014aa:	f002 fe7d 	bl	100041a8 <__wrap_memset>
100014ae:	2307      	movs	r3, #7
100014b0:	6b20      	ldr	r0, [r4, #48]	@ 0x30
100014b2:	3e04      	subs	r6, #4
100014b4:	1986      	adds	r6, r0, r6
100014b6:	439e      	bics	r6, r3
100014b8:	2d00      	cmp	r5, #0
100014ba:	d04b      	beq.n	10001554 <xTaskCreateStatic+0xec>
100014bc:	2234      	movs	r2, #52	@ 0x34
100014be:	782b      	ldrb	r3, [r5, #0]
100014c0:	54a3      	strb	r3, [r4, r2]
100014c2:	2b00      	cmp	r3, #0
100014c4:	d043      	beq.n	1000154e <xTaskCreateStatic+0xe6>
100014c6:	786b      	ldrb	r3, [r5, #1]
100014c8:	3201      	adds	r2, #1
100014ca:	54a3      	strb	r3, [r4, r2]
100014cc:	2b00      	cmp	r3, #0
100014ce:	d03e      	beq.n	1000154e <xTaskCreateStatic+0xe6>
100014d0:	78ab      	ldrb	r3, [r5, #2]
100014d2:	3201      	adds	r2, #1
100014d4:	54a3      	strb	r3, [r4, r2]
100014d6:	2b00      	cmp	r3, #0
100014d8:	d039      	beq.n	1000154e <xTaskCreateStatic+0xe6>
100014da:	78eb      	ldrb	r3, [r5, #3]
100014dc:	3201      	adds	r2, #1
100014de:	54a3      	strb	r3, [r4, r2]
100014e0:	2b00      	cmp	r3, #0
100014e2:	d034      	beq.n	1000154e <xTaskCreateStatic+0xe6>
100014e4:	792b      	ldrb	r3, [r5, #4]
100014e6:	3201      	adds	r2, #1
100014e8:	54a3      	strb	r3, [r4, r2]
100014ea:	2b00      	cmp	r3, #0
100014ec:	d02f      	beq.n	1000154e <xTaskCreateStatic+0xe6>
100014ee:	796b      	ldrb	r3, [r5, #5]
100014f0:	3201      	adds	r2, #1
100014f2:	54a3      	strb	r3, [r4, r2]
100014f4:	2b00      	cmp	r3, #0
100014f6:	d02a      	beq.n	1000154e <xTaskCreateStatic+0xe6>
100014f8:	79ab      	ldrb	r3, [r5, #6]
100014fa:	3201      	adds	r2, #1
100014fc:	54a3      	strb	r3, [r4, r2]
100014fe:	2b00      	cmp	r3, #0
10001500:	d025      	beq.n	1000154e <xTaskCreateStatic+0xe6>
10001502:	79eb      	ldrb	r3, [r5, #7]
10001504:	3201      	adds	r2, #1
10001506:	54a3      	strb	r3, [r4, r2]
10001508:	2b00      	cmp	r3, #0
1000150a:	d020      	beq.n	1000154e <xTaskCreateStatic+0xe6>
1000150c:	7a2b      	ldrb	r3, [r5, #8]
1000150e:	3201      	adds	r2, #1
10001510:	54a3      	strb	r3, [r4, r2]
10001512:	2b00      	cmp	r3, #0
10001514:	d01b      	beq.n	1000154e <xTaskCreateStatic+0xe6>
10001516:	7a6b      	ldrb	r3, [r5, #9]
10001518:	3201      	adds	r2, #1
1000151a:	54a3      	strb	r3, [r4, r2]
1000151c:	2b00      	cmp	r3, #0
1000151e:	d016      	beq.n	1000154e <xTaskCreateStatic+0xe6>
10001520:	7aab      	ldrb	r3, [r5, #10]
10001522:	3201      	adds	r2, #1
10001524:	54a3      	strb	r3, [r4, r2]
10001526:	2b00      	cmp	r3, #0
10001528:	d011      	beq.n	1000154e <xTaskCreateStatic+0xe6>
1000152a:	7aeb      	ldrb	r3, [r5, #11]
1000152c:	3201      	adds	r2, #1
1000152e:	54a3      	strb	r3, [r4, r2]
10001530:	2b00      	cmp	r3, #0
10001532:	d00c      	beq.n	1000154e <xTaskCreateStatic+0xe6>
10001534:	7b2b      	ldrb	r3, [r5, #12]
10001536:	3201      	adds	r2, #1
10001538:	54a3      	strb	r3, [r4, r2]
1000153a:	2b00      	cmp	r3, #0
1000153c:	d007      	beq.n	1000154e <xTaskCreateStatic+0xe6>
1000153e:	7b6b      	ldrb	r3, [r5, #13]
10001540:	3201      	adds	r2, #1
10001542:	54a3      	strb	r3, [r4, r2]
10001544:	2b00      	cmp	r3, #0
10001546:	d002      	beq.n	1000154e <xTaskCreateStatic+0xe6>
10001548:	2342      	movs	r3, #66	@ 0x42
1000154a:	7baa      	ldrb	r2, [r5, #14]
1000154c:	54e2      	strb	r2, [r4, r3]
1000154e:	2343      	movs	r3, #67	@ 0x43
10001550:	2200      	movs	r2, #0
10001552:	54e2      	strb	r2, [r4, r3]
10001554:	9d08      	ldr	r5, [sp, #32]
10001556:	2d04      	cmp	r5, #4
10001558:	d81b      	bhi.n	10001592 <xTaskCreateStatic+0x12a>
1000155a:	1d20      	adds	r0, r4, #4
1000155c:	62e5      	str	r5, [r4, #44]	@ 0x2c
1000155e:	64e5      	str	r5, [r4, #76]	@ 0x4c
10001560:	f7ff f848 	bl	100005f4 <vListInitialiseItem>
10001564:	0020      	movs	r0, r4
10001566:	3018      	adds	r0, #24
10001568:	f7ff f844 	bl	100005f4 <vListInitialiseItem>
1000156c:	2305      	movs	r3, #5
1000156e:	1b5b      	subs	r3, r3, r5
10001570:	4642      	mov	r2, r8
10001572:	0039      	movs	r1, r7
10001574:	61a3      	str	r3, [r4, #24]
10001576:	0030      	movs	r0, r6
10001578:	6124      	str	r4, [r4, #16]
1000157a:	6264      	str	r4, [r4, #36]	@ 0x24
1000157c:	f000 ff88 	bl	10002490 <pxPortInitialiseStack>
10001580:	6020      	str	r0, [r4, #0]
10001582:	0020      	movs	r0, r4
10001584:	f7ff fd14 	bl	10000fb0 <prvAddNewTaskToReadyList>
10001588:	0020      	movs	r0, r4
1000158a:	b002      	add	sp, #8
1000158c:	bc80      	pop	{r7}
1000158e:	46b8      	mov	r8, r7
10001590:	bdf0      	pop	{r4, r5, r6, r7, pc}
10001592:	2504      	movs	r5, #4
10001594:	e7e1      	b.n	1000155a <xTaskCreateStatic+0xf2>
10001596:	2000      	movs	r0, #0
10001598:	e7f7      	b.n	1000158a <xTaskCreateStatic+0x122>
1000159a:	46c0      	nop			@ (mov r8, r8)

1000159c <xTaskCreate>:
1000159c:	b5f8      	push	{r3, r4, r5, r6, r7, lr}
1000159e:	46ce      	mov	lr, r9
100015a0:	4647      	mov	r7, r8
100015a2:	0096      	lsls	r6, r2, #2
100015a4:	b580      	push	{r7, lr}
100015a6:	4680      	mov	r8, r0
100015a8:	0030      	movs	r0, r6
100015aa:	000d      	movs	r5, r1
100015ac:	4699      	mov	r9, r3
100015ae:	f001 f821 	bl	100025f4 <pvPortMalloc>
100015b2:	1e07      	subs	r7, r0, #0
100015b4:	d100      	bne.n	100015b8 <xTaskCreate+0x1c>
100015b6:	e08a      	b.n	100016ce <xTaskCreate+0x132>
100015b8:	2078      	movs	r0, #120	@ 0x78
100015ba:	f001 f81b 	bl	100025f4 <pvPortMalloc>
100015be:	1e04      	subs	r4, r0, #0
100015c0:	d100      	bne.n	100015c4 <xTaskCreate+0x28>
100015c2:	e081      	b.n	100016c8 <xTaskCreate+0x12c>
100015c4:	2278      	movs	r2, #120	@ 0x78
100015c6:	2100      	movs	r1, #0
100015c8:	f002 fdee 	bl	100041a8 <__wrap_memset>
100015cc:	0032      	movs	r2, r6
100015ce:	21a5      	movs	r1, #165	@ 0xa5
100015d0:	0038      	movs	r0, r7
100015d2:	6327      	str	r7, [r4, #48]	@ 0x30
100015d4:	f002 fde8 	bl	100041a8 <__wrap_memset>
100015d8:	6b23      	ldr	r3, [r4, #48]	@ 0x30
100015da:	3e04      	subs	r6, #4
100015dc:	199e      	adds	r6, r3, r6
100015de:	2307      	movs	r3, #7
100015e0:	439e      	bics	r6, r3
100015e2:	2d00      	cmp	r5, #0
100015e4:	d04b      	beq.n	1000167e <xTaskCreate+0xe2>
100015e6:	2234      	movs	r2, #52	@ 0x34
100015e8:	782b      	ldrb	r3, [r5, #0]
100015ea:	54a3      	strb	r3, [r4, r2]
100015ec:	2b00      	cmp	r3, #0
100015ee:	d043      	beq.n	10001678 <xTaskCreate+0xdc>
100015f0:	786b      	ldrb	r3, [r5, #1]
100015f2:	3201      	adds	r2, #1
100015f4:	54a3      	strb	r3, [r4, r2]
100015f6:	2b00      	cmp	r3, #0
100015f8:	d03e      	beq.n	10001678 <xTaskCreate+0xdc>
100015fa:	78ab      	ldrb	r3, [r5, #2]
100015fc:	3201      	adds	r2, #1
100015fe:	54a3      	strb	r3, [r4, r2]
10001600:	2b00      	cmp	r3, #0
10001602:	d039      	beq.n	10001678 <xTaskCreate+0xdc>
10001604:	78eb      	ldrb	r3, [r5, #3]
10001606:	3201      	adds	r2, #1
10001608:	54a3      	strb	r3, [r4, r2]
1000160a:	2b00      	cmp	r3, #0
1000160c:	d034      	beq.n	10001678 <xTaskCreate+0xdc>
1000160e:	792b      	ldrb	r3, [r5, #4]
10001610:	3201      	adds	r2, #1
10001612:	54a3      	strb	r3, [r4, r2]
10001614:	2b00      	cmp	r3, #0
10001616:	d02f      	beq.n	10001678 <xTaskCreate+0xdc>
10001618:	796b      	ldrb	r3, [r5, #5]
1000161a:	3201      	adds	r2, #1
1000161c:	54a3      	strb	r3, [r4, r2]
1000161e:	2b00      	cmp	r3, #0
10001620:	d02a      	beq.n	10001678 <xTaskCreate+0xdc>
10001622:	79ab      	ldrb	r3, [r5, #6]
10001624:	3201      	adds	r2, #1
10001626:	54a3      	strb	r3, [r4, r2]
10001628:	2b00      	cmp	r3, #0
1000162a:	d025      	beq.n	10001678 <xTaskCreate+0xdc>
1000162c:	79eb      	ldrb	r3, [r5, #7]
1000162e:	3201      	adds	r2, #1
10001630:	54a3      	strb	r3, [r4, r2]
10001632:	2b00      	cmp	r3, #0
10001634:	d020      	beq.n	10001678 <xTaskCreate+0xdc>
10001636:	7a2b      	ldrb	r3, [r5, #8]
10001638:	3201      	adds	r2, #1
1000163a:	54a3      	strb	r3, [r4, r2]
1000163c:	2b00      	cmp	r3, #0
1000163e:	d01b      	beq.n	10001678 <xTaskCreate+0xdc>
10001640:	7a6b      	ldrb	r3, [r5, #9]
10001642:	3201      	adds	r2, #1
10001644:	54a3      	strb	r3, [r4, r2]
10001646:	2b00      	cmp	r3, #0
10001648:	d016      	beq.n	10001678 <xTaskCreate+0xdc>
1000164a:	7aab      	ldrb	r3, [r5, #10]
1000164c:	3201      	adds	r2, #1
1000164e:	54a3      	strb	r3, [r4, r2]
10001650:	2b00      	cmp	r3, #0
10001652:	d011      	beq.n	10001678 <xTaskCreate+0xdc>
10001654:	7aeb      	ldrb	r3, [r5, #11]
10001656:	3201      	adds	r2, #1
10001658:	54a3      	strb	r3, [r4, r2]
1000165a:	2b00      	cmp	r3, #0
1000165c:	d00c      	beq.n	10001678 <xTaskCreate+0xdc>
1000165e:	7b2b      	ldrb	r3, [r5, #12]
10001660:	3201      	adds	r2, #1
10001662:	54a3      	strb	r3, [r4, r2]
10001664:	2b00      	cmp	r3, #0
10001666:	d007      	beq.n	10001678 <xTaskCreate+0xdc>
10001668:	7b6b      	ldrb	r3, [r5, #13]
1000166a:	3201      	adds	r2, #1
1000166c:	54a3      	strb	r3, [r4, r2]
1000166e:	2b00      	cmp	r3, #0
10001670:	d002      	beq.n	10001678 <xTaskCreate+0xdc>
10001672:	2342      	movs	r3, #66	@ 0x42
10001674:	7baa      	ldrb	r2, [r5, #14]
10001676:	54e2      	strb	r2, [r4, r3]
10001678:	2343      	movs	r3, #67	@ 0x43
1000167a:	2200      	movs	r2, #0
1000167c:	54e2      	strb	r2, [r4, r3]
1000167e:	9d08      	ldr	r5, [sp, #32]
10001680:	2d04      	cmp	r5, #4
10001682:	d81f      	bhi.n	100016c4 <xTaskCreate+0x128>
10001684:	1d20      	adds	r0, r4, #4
10001686:	62e5      	str	r5, [r4, #44]	@ 0x2c
10001688:	64e5      	str	r5, [r4, #76]	@ 0x4c
1000168a:	f7fe ffb3 	bl	100005f4 <vListInitialiseItem>
1000168e:	0020      	movs	r0, r4
10001690:	3018      	adds	r0, #24
10001692:	f7fe ffaf 	bl	100005f4 <vListInitialiseItem>
10001696:	2305      	movs	r3, #5
10001698:	1b5b      	subs	r3, r3, r5
1000169a:	61a3      	str	r3, [r4, #24]
1000169c:	464a      	mov	r2, r9
1000169e:	4641      	mov	r1, r8
100016a0:	0030      	movs	r0, r6
100016a2:	6124      	str	r4, [r4, #16]
100016a4:	6264      	str	r4, [r4, #36]	@ 0x24
100016a6:	f000 fef3 	bl	10002490 <pxPortInitialiseStack>
100016aa:	9b09      	ldr	r3, [sp, #36]	@ 0x24
100016ac:	6020      	str	r0, [r4, #0]
100016ae:	2b00      	cmp	r3, #0
100016b0:	d000      	beq.n	100016b4 <xTaskCreate+0x118>
100016b2:	601c      	str	r4, [r3, #0]
100016b4:	0020      	movs	r0, r4
100016b6:	f7ff fc7b 	bl	10000fb0 <prvAddNewTaskToReadyList>
100016ba:	2001      	movs	r0, #1
100016bc:	bcc0      	pop	{r6, r7}
100016be:	46b9      	mov	r9, r7
100016c0:	46b0      	mov	r8, r6
100016c2:	bdf8      	pop	{r3, r4, r5, r6, r7, pc}
100016c4:	2504      	movs	r5, #4
100016c6:	e7dd      	b.n	10001684 <xTaskCreate+0xe8>
100016c8:	0038      	movs	r0, r7
100016ca:	f001 f82d 	bl	10002728 <vPortFree>
100016ce:	2001      	movs	r0, #1
100016d0:	4240      	negs	r0, r0
100016d2:	e7f3      	b.n	100016bc <xTaskCreate+0x120>

100016d4 <vTaskStartScheduler>:
100016d4:	b5f0      	push	{r4, r5, r6, r7, lr}
100016d6:	b085      	sub	sp, #20
100016d8:	466b      	mov	r3, sp
100016da:	2500      	movs	r5, #0
100016dc:	1c9c      	adds	r4, r3, #2
100016de:	0022      	movs	r2, r4
100016e0:	a902      	add	r1, sp, #8
100016e2:	a801      	add	r0, sp, #4
100016e4:	9501      	str	r5, [sp, #4]
100016e6:	9502      	str	r5, [sp, #8]
100016e8:	f7fe fee6 	bl	100004b8 <vApplicationGetIdleTaskMemory>
100016ec:	2378      	movs	r3, #120	@ 0x78
100016ee:	8826      	ldrh	r6, [r4, #0]
100016f0:	9c01      	ldr	r4, [sp, #4]
100016f2:	9303      	str	r3, [sp, #12]
100016f4:	9f02      	ldr	r7, [sp, #8]
100016f6:	9b03      	ldr	r3, [sp, #12]
100016f8:	2c00      	cmp	r4, #0
100016fa:	d03b      	beq.n	10001774 <vTaskStartScheduler+0xa0>
100016fc:	2f00      	cmp	r7, #0
100016fe:	d039      	beq.n	10001774 <vTaskStartScheduler+0xa0>
10001700:	2278      	movs	r2, #120	@ 0x78
10001702:	2100      	movs	r1, #0
10001704:	0020      	movs	r0, r4
10001706:	f002 fd4f 	bl	100041a8 <__wrap_memset>
1000170a:	2377      	movs	r3, #119	@ 0x77
1000170c:	2202      	movs	r2, #2
1000170e:	00b6      	lsls	r6, r6, #2
10001710:	21a5      	movs	r1, #165	@ 0xa5
10001712:	6327      	str	r7, [r4, #48]	@ 0x30
10001714:	0038      	movs	r0, r7
10001716:	54e2      	strb	r2, [r4, r3]
10001718:	0032      	movs	r2, r6
1000171a:	f002 fd45 	bl	100041a8 <__wrap_memset>
1000171e:	6b23      	ldr	r3, [r4, #48]	@ 0x30
10001720:	3e04      	subs	r6, #4
10001722:	199e      	adds	r6, r3, r6
10001724:	2307      	movs	r3, #7
10001726:	439e      	bics	r6, r3
10001728:	4b1a      	ldr	r3, [pc, #104]	@ (10001794 <vTaskStartScheduler+0xc0>)
1000172a:	1d20      	adds	r0, r4, #4
1000172c:	6363      	str	r3, [r4, #52]	@ 0x34
1000172e:	2338      	movs	r3, #56	@ 0x38
10001730:	54e5      	strb	r5, [r4, r3]
10001732:	330b      	adds	r3, #11
10001734:	54e5      	strb	r5, [r4, r3]
10001736:	62e5      	str	r5, [r4, #44]	@ 0x2c
10001738:	64e5      	str	r5, [r4, #76]	@ 0x4c
1000173a:	f7fe ff5b 	bl	100005f4 <vListInitialiseItem>
1000173e:	0020      	movs	r0, r4
10001740:	3018      	adds	r0, #24
10001742:	f7fe ff57 	bl	100005f4 <vListInitialiseItem>
10001746:	2305      	movs	r3, #5
10001748:	2200      	movs	r2, #0
1000174a:	61a3      	str	r3, [r4, #24]
1000174c:	4912      	ldr	r1, [pc, #72]	@ (10001798 <vTaskStartScheduler+0xc4>)
1000174e:	0030      	movs	r0, r6
10001750:	6124      	str	r4, [r4, #16]
10001752:	6264      	str	r4, [r4, #36]	@ 0x24
10001754:	f000 fe9c 	bl	10002490 <pxPortInitialiseStack>
10001758:	6020      	str	r0, [r4, #0]
1000175a:	0020      	movs	r0, r4
1000175c:	f7ff fc28 	bl	10000fb0 <prvAddNewTaskToReadyList>
10001760:	4b0e      	ldr	r3, [pc, #56]	@ (1000179c <vTaskStartScheduler+0xc8>)
10001762:	601c      	str	r4, [r3, #0]
10001764:	f000 fdd2 	bl	1000230c <xTimerCreateTimerTask>
10001768:	2801      	cmp	r0, #1
1000176a:	d007      	beq.n	1000177c <vTaskStartScheduler+0xa8>
1000176c:	4b0c      	ldr	r3, [pc, #48]	@ (100017a0 <vTaskStartScheduler+0xcc>)
1000176e:	681b      	ldr	r3, [r3, #0]
10001770:	b005      	add	sp, #20
10001772:	bdf0      	pop	{r4, r5, r6, r7, pc}
10001774:	2200      	movs	r2, #0
10001776:	4b09      	ldr	r3, [pc, #36]	@ (1000179c <vTaskStartScheduler+0xc8>)
10001778:	601a      	str	r2, [r3, #0]
1000177a:	e7f7      	b.n	1000176c <vTaskStartScheduler+0x98>
1000177c:	b672      	cpsid	i
1000177e:	2201      	movs	r2, #1
10001780:	4b08      	ldr	r3, [pc, #32]	@ (100017a4 <vTaskStartScheduler+0xd0>)
10001782:	4252      	negs	r2, r2
10001784:	601a      	str	r2, [r3, #0]
10001786:	4b08      	ldr	r3, [pc, #32]	@ (100017a8 <vTaskStartScheduler+0xd4>)
10001788:	6018      	str	r0, [r3, #0]
1000178a:	4b08      	ldr	r3, [pc, #32]	@ (100017ac <vTaskStartScheduler+0xd8>)
1000178c:	601d      	str	r5, [r3, #0]
1000178e:	f000 fee5 	bl	1000255c <xPortStartScheduler>
10001792:	e7eb      	b.n	1000176c <vTaskStartScheduler+0x98>
10001794:	454c4449 	.word	0x454c4449
10001798:	10001249 	.word	0x10001249
1000179c:	20008a64 	.word	0x20008a64
100017a0:	100063d4 	.word	0x100063d4
100017a4:	20008a70 	.word	0x20008a70
100017a8:	20008a98 	.word	0x20008a98
100017ac:	20008b3c 	.word	0x20008b3c

100017b0 <vTaskSuspendAll>:
100017b0:	4a02      	ldr	r2, [pc, #8]	@ (100017bc <vTaskSuspendAll+0xc>)
100017b2:	6813      	ldr	r3, [r2, #0]
100017b4:	3301      	adds	r3, #1
100017b6:	6013      	str	r3, [r2, #0]
100017b8:	4770      	bx	lr
100017ba:	46c0      	nop			@ (mov r8, r8)
100017bc:	20008a00 	.word	0x20008a00

100017c0 <xTaskResumeAll>:
100017c0:	b5f0      	push	{r4, r5, r6, r7, lr}
100017c2:	46de      	mov	lr, fp
100017c4:	4645      	mov	r5, r8
100017c6:	4657      	mov	r7, sl
100017c8:	464e      	mov	r6, r9
100017ca:	b5e0      	push	{r5, r6, r7, lr}
100017cc:	b083      	sub	sp, #12
100017ce:	f000 fe7b 	bl	100024c8 <vPortEnterCritical>
100017d2:	4d54      	ldr	r5, [pc, #336]	@ (10001924 <xTaskResumeAll+0x164>)
100017d4:	682b      	ldr	r3, [r5, #0]
100017d6:	3b01      	subs	r3, #1
100017d8:	602b      	str	r3, [r5, #0]
100017da:	682b      	ldr	r3, [r5, #0]
100017dc:	2b00      	cmp	r3, #0
100017de:	d000      	beq.n	100017e2 <xTaskResumeAll+0x22>
100017e0:	e083      	b.n	100018ea <xTaskResumeAll+0x12a>
100017e2:	4b51      	ldr	r3, [pc, #324]	@ (10001928 <xTaskResumeAll+0x168>)
100017e4:	681b      	ldr	r3, [r3, #0]
100017e6:	2b00      	cmp	r3, #0
100017e8:	d07f      	beq.n	100018ea <xTaskResumeAll+0x12a>
100017ea:	4f50      	ldr	r7, [pc, #320]	@ (1000192c <xTaskResumeAll+0x16c>)
100017ec:	683b      	ldr	r3, [r7, #0]
100017ee:	2b00      	cmp	r3, #0
100017f0:	d100      	bne.n	100017f4 <xTaskResumeAll+0x34>
100017f2:	e094      	b.n	1000191e <xTaskResumeAll+0x15e>
100017f4:	4b4e      	ldr	r3, [pc, #312]	@ (10001930 <xTaskResumeAll+0x170>)
100017f6:	4c4f      	ldr	r4, [pc, #316]	@ (10001934 <xTaskResumeAll+0x174>)
100017f8:	469c      	mov	ip, r3
100017fa:	4b4f      	ldr	r3, [pc, #316]	@ (10001938 <xTaskResumeAll+0x178>)
100017fc:	9501      	str	r5, [sp, #4]
100017fe:	4699      	mov	r9, r3
10001800:	4b4e      	ldr	r3, [pc, #312]	@ (1000193c <xTaskResumeAll+0x17c>)
10001802:	469a      	mov	sl, r3
10001804:	2300      	movs	r3, #0
10001806:	4698      	mov	r8, r3
10001808:	3301      	adds	r3, #1
1000180a:	469b      	mov	fp, r3
1000180c:	68fb      	ldr	r3, [r7, #12]
1000180e:	68db      	ldr	r3, [r3, #12]
10001810:	69d8      	ldr	r0, [r3, #28]
10001812:	6a19      	ldr	r1, [r3, #32]
10001814:	6a9a      	ldr	r2, [r3, #40]	@ 0x28
10001816:	6081      	str	r1, [r0, #8]
10001818:	69d8      	ldr	r0, [r3, #28]
1000181a:	6048      	str	r0, [r1, #4]
1000181c:	0019      	movs	r1, r3
1000181e:	6850      	ldr	r0, [r2, #4]
10001820:	3118      	adds	r1, #24
10001822:	4288      	cmp	r0, r1
10001824:	d100      	bne.n	10001828 <xTaskResumeAll+0x68>
10001826:	e073      	b.n	10001910 <xTaskResumeAll+0x150>
10001828:	4641      	mov	r1, r8
1000182a:	6299      	str	r1, [r3, #40]	@ 0x28
1000182c:	6811      	ldr	r1, [r2, #0]
1000182e:	3901      	subs	r1, #1
10001830:	6011      	str	r1, [r2, #0]
10001832:	6898      	ldr	r0, [r3, #8]
10001834:	68d9      	ldr	r1, [r3, #12]
10001836:	695a      	ldr	r2, [r3, #20]
10001838:	6081      	str	r1, [r0, #8]
1000183a:	6898      	ldr	r0, [r3, #8]
1000183c:	6048      	str	r0, [r1, #4]
1000183e:	6850      	ldr	r0, [r2, #4]
10001840:	1d19      	adds	r1, r3, #4
10001842:	4288      	cmp	r0, r1
10001844:	d061      	beq.n	1000190a <xTaskResumeAll+0x14a>
10001846:	6810      	ldr	r0, [r2, #0]
10001848:	3801      	subs	r0, #1
1000184a:	6010      	str	r0, [r2, #0]
1000184c:	4660      	mov	r0, ip
1000184e:	6ada      	ldr	r2, [r3, #44]	@ 0x2c
10001850:	6800      	ldr	r0, [r0, #0]
10001852:	4282      	cmp	r2, r0
10001854:	d901      	bls.n	1000185a <xTaskResumeAll+0x9a>
10001856:	4660      	mov	r0, ip
10001858:	6002      	str	r2, [r0, #0]
1000185a:	0090      	lsls	r0, r2, #2
1000185c:	1882      	adds	r2, r0, r2
1000185e:	0095      	lsls	r5, r2, #2
10001860:	1960      	adds	r0, r4, r5
10001862:	6842      	ldr	r2, [r0, #4]
10001864:	609a      	str	r2, [r3, #8]
10001866:	6896      	ldr	r6, [r2, #8]
10001868:	60de      	str	r6, [r3, #12]
1000186a:	6071      	str	r1, [r6, #4]
1000186c:	6091      	str	r1, [r2, #8]
1000186e:	5962      	ldr	r2, [r4, r5]
10001870:	6158      	str	r0, [r3, #20]
10001872:	3201      	adds	r2, #1
10001874:	5162      	str	r2, [r4, r5]
10001876:	464a      	mov	r2, r9
10001878:	6811      	ldr	r1, [r2, #0]
1000187a:	6ada      	ldr	r2, [r3, #44]	@ 0x2c
1000187c:	6acb      	ldr	r3, [r1, #44]	@ 0x2c
1000187e:	429a      	cmp	r2, r3
10001880:	d93e      	bls.n	10001900 <xTaskResumeAll+0x140>
10001882:	4653      	mov	r3, sl
10001884:	465a      	mov	r2, fp
10001886:	601a      	str	r2, [r3, #0]
10001888:	683b      	ldr	r3, [r7, #0]
1000188a:	2b00      	cmp	r3, #0
1000188c:	d1be      	bne.n	1000180c <xTaskResumeAll+0x4c>
1000188e:	4b2c      	ldr	r3, [pc, #176]	@ (10001940 <xTaskResumeAll+0x180>)
10001890:	9d01      	ldr	r5, [sp, #4]
10001892:	681a      	ldr	r2, [r3, #0]
10001894:	6812      	ldr	r2, [r2, #0]
10001896:	2a00      	cmp	r2, #0
10001898:	d03d      	beq.n	10001916 <xTaskResumeAll+0x156>
1000189a:	681b      	ldr	r3, [r3, #0]
1000189c:	68db      	ldr	r3, [r3, #12]
1000189e:	681a      	ldr	r2, [r3, #0]
100018a0:	4b28      	ldr	r3, [pc, #160]	@ (10001944 <xTaskResumeAll+0x184>)
100018a2:	601a      	str	r2, [r3, #0]
100018a4:	4e28      	ldr	r6, [pc, #160]	@ (10001948 <xTaskResumeAll+0x188>)
100018a6:	6834      	ldr	r4, [r6, #0]
100018a8:	2c00      	cmp	r4, #0
100018aa:	d014      	beq.n	100018d6 <xTaskResumeAll+0x116>
100018ac:	2701      	movs	r7, #1
100018ae:	e008      	b.n	100018c2 <xTaskResumeAll+0x102>
100018b0:	f7ff fd0a 	bl	100012c8 <xTaskIncrementTick.part.0>
100018b4:	2800      	cmp	r0, #0
100018b6:	d001      	beq.n	100018bc <xTaskResumeAll+0xfc>
100018b8:	4653      	mov	r3, sl
100018ba:	601f      	str	r7, [r3, #0]
100018bc:	3c01      	subs	r4, #1
100018be:	2c00      	cmp	r4, #0
100018c0:	d008      	beq.n	100018d4 <xTaskResumeAll+0x114>
100018c2:	682b      	ldr	r3, [r5, #0]
100018c4:	2b00      	cmp	r3, #0
100018c6:	d0f3      	beq.n	100018b0 <xTaskResumeAll+0xf0>
100018c8:	6833      	ldr	r3, [r6, #0]
100018ca:	3c01      	subs	r4, #1
100018cc:	3301      	adds	r3, #1
100018ce:	6033      	str	r3, [r6, #0]
100018d0:	2c00      	cmp	r4, #0
100018d2:	d1f6      	bne.n	100018c2 <xTaskResumeAll+0x102>
100018d4:	6034      	str	r4, [r6, #0]
100018d6:	4653      	mov	r3, sl
100018d8:	681b      	ldr	r3, [r3, #0]
100018da:	2b00      	cmp	r3, #0
100018dc:	d005      	beq.n	100018ea <xTaskResumeAll+0x12a>
100018de:	4b16      	ldr	r3, [pc, #88]	@ (10001938 <xTaskResumeAll+0x178>)
100018e0:	2401      	movs	r4, #1
100018e2:	681b      	ldr	r3, [r3, #0]
100018e4:	f000 fde4 	bl	100024b0 <vPortYield>
100018e8:	e000      	b.n	100018ec <xTaskResumeAll+0x12c>
100018ea:	2400      	movs	r4, #0
100018ec:	f000 fdf8 	bl	100024e0 <vPortExitCritical>
100018f0:	0020      	movs	r0, r4
100018f2:	b003      	add	sp, #12
100018f4:	bcf0      	pop	{r4, r5, r6, r7}
100018f6:	46bb      	mov	fp, r7
100018f8:	46b2      	mov	sl, r6
100018fa:	46a9      	mov	r9, r5
100018fc:	46a0      	mov	r8, r4
100018fe:	bdf0      	pop	{r4, r5, r6, r7, pc}
10001900:	683b      	ldr	r3, [r7, #0]
10001902:	2b00      	cmp	r3, #0
10001904:	d000      	beq.n	10001908 <xTaskResumeAll+0x148>
10001906:	e781      	b.n	1000180c <xTaskResumeAll+0x4c>
10001908:	e7c1      	b.n	1000188e <xTaskResumeAll+0xce>
1000190a:	68d8      	ldr	r0, [r3, #12]
1000190c:	6050      	str	r0, [r2, #4]
1000190e:	e79a      	b.n	10001846 <xTaskResumeAll+0x86>
10001910:	6a19      	ldr	r1, [r3, #32]
10001912:	6051      	str	r1, [r2, #4]
10001914:	e788      	b.n	10001828 <xTaskResumeAll+0x68>
10001916:	4b0b      	ldr	r3, [pc, #44]	@ (10001944 <xTaskResumeAll+0x184>)
10001918:	3a01      	subs	r2, #1
1000191a:	601a      	str	r2, [r3, #0]
1000191c:	e7c2      	b.n	100018a4 <xTaskResumeAll+0xe4>
1000191e:	4b07      	ldr	r3, [pc, #28]	@ (1000193c <xTaskResumeAll+0x17c>)
10001920:	469a      	mov	sl, r3
10001922:	e7bf      	b.n	100018a4 <xTaskResumeAll+0xe4>
10001924:	20008a00 	.word	0x20008a00
10001928:	200089f8 	.word	0x200089f8
1000192c:	20008a84 	.word	0x20008a84
10001930:	20008a08 	.word	0x20008a08
10001934:	20000b60 	.word	0x20000b60
10001938:	20000b48 	.word	0x20000b48
1000193c:	20008b48 	.word	0x20008b48
10001940:	20000b50 	.word	0x20000b50
10001944:	20008a70 	.word	0x20008a70
10001948:	20008a80 	.word	0x20008a80

1000194c <xTaskDelayUntil>:
1000194c:	b5f8      	push	{r3, r4, r5, r6, r7, lr}
1000194e:	46ce      	mov	lr, r9
10001950:	4647      	mov	r7, r8
10001952:	4a23      	ldr	r2, [pc, #140]	@ (100019e0 <xTaskDelayUntil+0x94>)
10001954:	b580      	push	{r7, lr}
10001956:	6813      	ldr	r3, [r2, #0]
10001958:	3301      	adds	r3, #1
1000195a:	6013      	str	r3, [r2, #0]
1000195c:	4d21      	ldr	r5, [pc, #132]	@ (100019e4 <xTaskDelayUntil+0x98>)
1000195e:	6803      	ldr	r3, [r0, #0]
10001960:	682a      	ldr	r2, [r5, #0]
10001962:	185c      	adds	r4, r3, r1
10001964:	4293      	cmp	r3, r2
10001966:	d90c      	bls.n	10001982 <xTaskDelayUntil+0x36>
10001968:	42a3      	cmp	r3, r4
1000196a:	d80c      	bhi.n	10001986 <xTaskDelayUntil+0x3a>
1000196c:	6004      	str	r4, [r0, #0]
1000196e:	2400      	movs	r4, #0
10001970:	f7ff ff26 	bl	100017c0 <xTaskResumeAll>
10001974:	2800      	cmp	r0, #0
10001976:	d025      	beq.n	100019c4 <xTaskDelayUntil+0x78>
10001978:	0020      	movs	r0, r4
1000197a:	bcc0      	pop	{r6, r7}
1000197c:	46b9      	mov	r9, r7
1000197e:	46b0      	mov	r8, r6
10001980:	bdf8      	pop	{r3, r4, r5, r6, r7, pc}
10001982:	42a3      	cmp	r3, r4
10001984:	d801      	bhi.n	1000198a <xTaskDelayUntil+0x3e>
10001986:	42a2      	cmp	r2, r4
10001988:	d2f0      	bcs.n	1000196c <xTaskDelayUntil+0x20>
1000198a:	682e      	ldr	r6, [r5, #0]
1000198c:	4d16      	ldr	r5, [pc, #88]	@ (100019e8 <xTaskDelayUntil+0x9c>)
1000198e:	1ab3      	subs	r3, r6, r2
10001990:	4699      	mov	r9, r3
10001992:	4b16      	ldr	r3, [pc, #88]	@ (100019ec <xTaskDelayUntil+0xa0>)
10001994:	6004      	str	r4, [r0, #0]
10001996:	681f      	ldr	r7, [r3, #0]
10001998:	4b15      	ldr	r3, [pc, #84]	@ (100019f0 <xTaskDelayUntil+0xa4>)
1000199a:	444c      	add	r4, r9
1000199c:	681b      	ldr	r3, [r3, #0]
1000199e:	6828      	ldr	r0, [r5, #0]
100019a0:	4698      	mov	r8, r3
100019a2:	3004      	adds	r0, #4
100019a4:	f7fe fe42 	bl	1000062c <uxListRemove>
100019a8:	682b      	ldr	r3, [r5, #0]
100019aa:	6829      	ldr	r1, [r5, #0]
100019ac:	605c      	str	r4, [r3, #4]
100019ae:	3104      	adds	r1, #4
100019b0:	42a6      	cmp	r6, r4
100019b2:	d90a      	bls.n	100019ca <xTaskDelayUntil+0x7e>
100019b4:	4640      	mov	r0, r8
100019b6:	f7fe fe21 	bl	100005fc <vListInsert>
100019ba:	2401      	movs	r4, #1
100019bc:	f7ff ff00 	bl	100017c0 <xTaskResumeAll>
100019c0:	2800      	cmp	r0, #0
100019c2:	d1d9      	bne.n	10001978 <xTaskDelayUntil+0x2c>
100019c4:	f000 fd74 	bl	100024b0 <vPortYield>
100019c8:	e7d6      	b.n	10001978 <xTaskDelayUntil+0x2c>
100019ca:	0038      	movs	r0, r7
100019cc:	f7fe fe16 	bl	100005fc <vListInsert>
100019d0:	4b08      	ldr	r3, [pc, #32]	@ (100019f4 <xTaskDelayUntil+0xa8>)
100019d2:	681a      	ldr	r2, [r3, #0]
100019d4:	4294      	cmp	r4, r2
100019d6:	d2f0      	bcs.n	100019ba <xTaskDelayUntil+0x6e>
100019d8:	601c      	str	r4, [r3, #0]
100019da:	2401      	movs	r4, #1
100019dc:	e7ee      	b.n	100019bc <xTaskDelayUntil+0x70>
100019de:	46c0      	nop			@ (mov r8, r8)
100019e0:	20008a00 	.word	0x20008a00
100019e4:	20008b3c 	.word	0x20008b3c
100019e8:	20000b48 	.word	0x20000b48
100019ec:	20000b50 	.word	0x20000b50
100019f0:	20000b58 	.word	0x20000b58
100019f4:	20008a70 	.word	0x20008a70

100019f8 <vTaskDelay>:
100019f8:	b5f0      	push	{r4, r5, r6, r7, lr}
100019fa:	46c6      	mov	lr, r8
100019fc:	0004      	movs	r4, r0
100019fe:	b500      	push	{lr}
10001a00:	2800      	cmp	r0, #0
10001a02:	d01d      	beq.n	10001a40 <vTaskDelay+0x48>
10001a04:	4a15      	ldr	r2, [pc, #84]	@ (10001a5c <vTaskDelay+0x64>)
10001a06:	6813      	ldr	r3, [r2, #0]
10001a08:	3301      	adds	r3, #1
10001a0a:	6013      	str	r3, [r2, #0]
10001a0c:	4b14      	ldr	r3, [pc, #80]	@ (10001a60 <vTaskDelay+0x68>)
10001a0e:	4d15      	ldr	r5, [pc, #84]	@ (10001a64 <vTaskDelay+0x6c>)
10001a10:	681e      	ldr	r6, [r3, #0]
10001a12:	4b15      	ldr	r3, [pc, #84]	@ (10001a68 <vTaskDelay+0x70>)
10001a14:	19a4      	adds	r4, r4, r6
10001a16:	681f      	ldr	r7, [r3, #0]
10001a18:	4b14      	ldr	r3, [pc, #80]	@ (10001a6c <vTaskDelay+0x74>)
10001a1a:	681b      	ldr	r3, [r3, #0]
10001a1c:	6828      	ldr	r0, [r5, #0]
10001a1e:	4698      	mov	r8, r3
10001a20:	3004      	adds	r0, #4
10001a22:	f7fe fe03 	bl	1000062c <uxListRemove>
10001a26:	682b      	ldr	r3, [r5, #0]
10001a28:	6829      	ldr	r1, [r5, #0]
10001a2a:	605c      	str	r4, [r3, #4]
10001a2c:	3104      	adds	r1, #4
10001a2e:	42a6      	cmp	r6, r4
10001a30:	d90b      	bls.n	10001a4a <vTaskDelay+0x52>
10001a32:	4640      	mov	r0, r8
10001a34:	f7fe fde2 	bl	100005fc <vListInsert>
10001a38:	f7ff fec2 	bl	100017c0 <xTaskResumeAll>
10001a3c:	2800      	cmp	r0, #0
10001a3e:	d101      	bne.n	10001a44 <vTaskDelay+0x4c>
10001a40:	f000 fd36 	bl	100024b0 <vPortYield>
10001a44:	bc80      	pop	{r7}
10001a46:	46b8      	mov	r8, r7
10001a48:	bdf0      	pop	{r4, r5, r6, r7, pc}
10001a4a:	0038      	movs	r0, r7
10001a4c:	f7fe fdd6 	bl	100005fc <vListInsert>
10001a50:	4b07      	ldr	r3, [pc, #28]	@ (10001a70 <vTaskDelay+0x78>)
10001a52:	681a      	ldr	r2, [r3, #0]
10001a54:	4294      	cmp	r4, r2
10001a56:	d2ef      	bcs.n	10001a38 <vTaskDelay+0x40>
10001a58:	601c      	str	r4, [r3, #0]
10001a5a:	e7ed      	b.n	10001a38 <vTaskDelay+0x40>
10001a5c:	20008a00 	.word	0x20008a00
10001a60:	20008b3c 	.word	0x20008b3c
10001a64:	20000b48 	.word	0x20000b48
10001a68:	20000b50 	.word	0x20000b50
10001a6c:	20000b58 	.word	0x20000b58
10001a70:	20008a70 	.word	0x20008a70

10001a74 <xTaskGetTickCount>:
10001a74:	4b01      	ldr	r3, [pc, #4]	@ (10001a7c <xTaskGetTickCount+0x8>)
10001a76:	6818      	ldr	r0, [r3, #0]
10001a78:	4770      	bx	lr
10001a7a:	46c0      	nop			@ (mov r8, r8)
10001a7c:	20008b3c 	.word	0x20008b3c

10001a80 <xTaskIncrementTick>:
10001a80:	4b06      	ldr	r3, [pc, #24]	@ (10001a9c <xTaskIncrementTick+0x1c>)
10001a82:	b510      	push	{r4, lr}
10001a84:	681b      	ldr	r3, [r3, #0]
10001a86:	2b00      	cmp	r3, #0
10001a88:	d102      	bne.n	10001a90 <xTaskIncrementTick+0x10>
10001a8a:	f7ff fc1d 	bl	100012c8 <xTaskIncrementTick.part.0>
10001a8e:	bd10      	pop	{r4, pc}
10001a90:	4a03      	ldr	r2, [pc, #12]	@ (10001aa0 <xTaskIncrementTick+0x20>)
10001a92:	2000      	movs	r0, #0
10001a94:	6813      	ldr	r3, [r2, #0]
10001a96:	3301      	adds	r3, #1
10001a98:	6013      	str	r3, [r2, #0]
10001a9a:	e7f8      	b.n	10001a8e <xTaskIncrementTick+0xe>
10001a9c:	20008a00 	.word	0x20008a00
10001aa0:	20008a80 	.word	0x20008a80

10001aa4 <vTaskSwitchContext>:
10001aa4:	4b05      	ldr	r3, [pc, #20]	@ (10001abc <vTaskSwitchContext+0x18>)
10001aa6:	b510      	push	{r4, lr}
10001aa8:	681b      	ldr	r3, [r3, #0]
10001aaa:	2b00      	cmp	r3, #0
10001aac:	d003      	beq.n	10001ab6 <vTaskSwitchContext+0x12>
10001aae:	2201      	movs	r2, #1
10001ab0:	4b03      	ldr	r3, [pc, #12]	@ (10001ac0 <vTaskSwitchContext+0x1c>)
10001ab2:	601a      	str	r2, [r3, #0]
10001ab4:	bd10      	pop	{r4, pc}
10001ab6:	f7ff fb67 	bl	10001188 <vTaskSwitchContext.part.0>
10001aba:	e7fb      	b.n	10001ab4 <vTaskSwitchContext+0x10>
10001abc:	20008a00 	.word	0x20008a00
10001ac0:	20008b48 	.word	0x20008b48

10001ac4 <vTaskPlaceOnEventList>:
10001ac4:	b5f0      	push	{r4, r5, r6, r7, lr}
10001ac6:	46c6      	mov	lr, r8
10001ac8:	000c      	movs	r4, r1
10001aca:	4d1e      	ldr	r5, [pc, #120]	@ (10001b44 <vTaskPlaceOnEventList+0x80>)
10001acc:	b500      	push	{lr}
10001ace:	6829      	ldr	r1, [r5, #0]
10001ad0:	3118      	adds	r1, #24
10001ad2:	f7fe fd93 	bl	100005fc <vListInsert>
10001ad6:	4b1c      	ldr	r3, [pc, #112]	@ (10001b48 <vTaskPlaceOnEventList+0x84>)
10001ad8:	681e      	ldr	r6, [r3, #0]
10001ada:	4b1c      	ldr	r3, [pc, #112]	@ (10001b4c <vTaskPlaceOnEventList+0x88>)
10001adc:	681f      	ldr	r7, [r3, #0]
10001ade:	4b1c      	ldr	r3, [pc, #112]	@ (10001b50 <vTaskPlaceOnEventList+0x8c>)
10001ae0:	681b      	ldr	r3, [r3, #0]
10001ae2:	6828      	ldr	r0, [r5, #0]
10001ae4:	4698      	mov	r8, r3
10001ae6:	3004      	adds	r0, #4
10001ae8:	f7fe fda0 	bl	1000062c <uxListRemove>
10001aec:	1c63      	adds	r3, r4, #1
10001aee:	d015      	beq.n	10001b1c <vTaskPlaceOnEventList+0x58>
10001af0:	682b      	ldr	r3, [r5, #0]
10001af2:	6829      	ldr	r1, [r5, #0]
10001af4:	19a4      	adds	r4, r4, r6
10001af6:	605c      	str	r4, [r3, #4]
10001af8:	3104      	adds	r1, #4
10001afa:	42a6      	cmp	r6, r4
10001afc:	d905      	bls.n	10001b0a <vTaskPlaceOnEventList+0x46>
10001afe:	4640      	mov	r0, r8
10001b00:	f7fe fd7c 	bl	100005fc <vListInsert>
10001b04:	bc80      	pop	{r7}
10001b06:	46b8      	mov	r8, r7
10001b08:	bdf0      	pop	{r4, r5, r6, r7, pc}
10001b0a:	0038      	movs	r0, r7
10001b0c:	f7fe fd76 	bl	100005fc <vListInsert>
10001b10:	4b10      	ldr	r3, [pc, #64]	@ (10001b54 <vTaskPlaceOnEventList+0x90>)
10001b12:	681a      	ldr	r2, [r3, #0]
10001b14:	4294      	cmp	r4, r2
10001b16:	d2f5      	bcs.n	10001b04 <vTaskPlaceOnEventList+0x40>
10001b18:	601c      	str	r4, [r3, #0]
10001b1a:	e7f3      	b.n	10001b04 <vTaskPlaceOnEventList+0x40>
10001b1c:	4b0e      	ldr	r3, [pc, #56]	@ (10001b58 <vTaskPlaceOnEventList+0x94>)
10001b1e:	6829      	ldr	r1, [r5, #0]
10001b20:	685a      	ldr	r2, [r3, #4]
10001b22:	608a      	str	r2, [r1, #8]
10001b24:	6890      	ldr	r0, [r2, #8]
10001b26:	6829      	ldr	r1, [r5, #0]
10001b28:	60c8      	str	r0, [r1, #12]
10001b2a:	6829      	ldr	r1, [r5, #0]
10001b2c:	3104      	adds	r1, #4
10001b2e:	6041      	str	r1, [r0, #4]
10001b30:	6829      	ldr	r1, [r5, #0]
10001b32:	3104      	adds	r1, #4
10001b34:	6091      	str	r1, [r2, #8]
10001b36:	682a      	ldr	r2, [r5, #0]
10001b38:	6153      	str	r3, [r2, #20]
10001b3a:	681a      	ldr	r2, [r3, #0]
10001b3c:	3201      	adds	r2, #1
10001b3e:	601a      	str	r2, [r3, #0]
10001b40:	e7e0      	b.n	10001b04 <vTaskPlaceOnEventList+0x40>
10001b42:	46c0      	nop			@ (mov r8, r8)
10001b44:	20000b48 	.word	0x20000b48
10001b48:	20008b3c 	.word	0x20008b3c
10001b4c:	20000b50 	.word	0x20000b50
10001b50:	20000b58 	.word	0x20000b58
10001b54:	20008a70 	.word	0x20008a70
10001b58:	20008b14 	.word	0x20008b14

10001b5c <vTaskPlaceOnEventListRestricted>:
10001b5c:	b5f0      	push	{r4, r5, r6, r7, lr}
10001b5e:	46c6      	mov	lr, r8
10001b60:	4c29      	ldr	r4, [pc, #164]	@ (10001c08 <vTaskPlaceOnEventListRestricted+0xac>)
10001b62:	6843      	ldr	r3, [r0, #4]
10001b64:	000d      	movs	r5, r1
10001b66:	6821      	ldr	r1, [r4, #0]
10001b68:	b500      	push	{lr}
10001b6a:	61cb      	str	r3, [r1, #28]
10001b6c:	689e      	ldr	r6, [r3, #8]
10001b6e:	6821      	ldr	r1, [r4, #0]
10001b70:	620e      	str	r6, [r1, #32]
10001b72:	6821      	ldr	r1, [r4, #0]
10001b74:	3118      	adds	r1, #24
10001b76:	6071      	str	r1, [r6, #4]
10001b78:	6821      	ldr	r1, [r4, #0]
10001b7a:	3118      	adds	r1, #24
10001b7c:	6099      	str	r1, [r3, #8]
10001b7e:	6823      	ldr	r3, [r4, #0]
10001b80:	6298      	str	r0, [r3, #40]	@ 0x28
10001b82:	6803      	ldr	r3, [r0, #0]
10001b84:	3301      	adds	r3, #1
10001b86:	6003      	str	r3, [r0, #0]
10001b88:	4b20      	ldr	r3, [pc, #128]	@ (10001c0c <vTaskPlaceOnEventListRestricted+0xb0>)
10001b8a:	2a00      	cmp	r2, #0
10001b8c:	d01d      	beq.n	10001bca <vTaskPlaceOnEventListRestricted+0x6e>
10001b8e:	681b      	ldr	r3, [r3, #0]
10001b90:	4b1f      	ldr	r3, [pc, #124]	@ (10001c10 <vTaskPlaceOnEventListRestricted+0xb4>)
10001b92:	681b      	ldr	r3, [r3, #0]
10001b94:	4b1f      	ldr	r3, [pc, #124]	@ (10001c14 <vTaskPlaceOnEventListRestricted+0xb8>)
10001b96:	681b      	ldr	r3, [r3, #0]
10001b98:	6820      	ldr	r0, [r4, #0]
10001b9a:	3004      	adds	r0, #4
10001b9c:	f7fe fd46 	bl	1000062c <uxListRemove>
10001ba0:	4b1d      	ldr	r3, [pc, #116]	@ (10001c18 <vTaskPlaceOnEventListRestricted+0xbc>)
10001ba2:	6821      	ldr	r1, [r4, #0]
10001ba4:	685a      	ldr	r2, [r3, #4]
10001ba6:	608a      	str	r2, [r1, #8]
10001ba8:	6890      	ldr	r0, [r2, #8]
10001baa:	6821      	ldr	r1, [r4, #0]
10001bac:	60c8      	str	r0, [r1, #12]
10001bae:	6821      	ldr	r1, [r4, #0]
10001bb0:	3104      	adds	r1, #4
10001bb2:	6041      	str	r1, [r0, #4]
10001bb4:	6821      	ldr	r1, [r4, #0]
10001bb6:	3104      	adds	r1, #4
10001bb8:	6091      	str	r1, [r2, #8]
10001bba:	6822      	ldr	r2, [r4, #0]
10001bbc:	6153      	str	r3, [r2, #20]
10001bbe:	681a      	ldr	r2, [r3, #0]
10001bc0:	3201      	adds	r2, #1
10001bc2:	601a      	str	r2, [r3, #0]
10001bc4:	bc80      	pop	{r7}
10001bc6:	46b8      	mov	r8, r7
10001bc8:	bdf0      	pop	{r4, r5, r6, r7, pc}
10001bca:	681e      	ldr	r6, [r3, #0]
10001bcc:	4b10      	ldr	r3, [pc, #64]	@ (10001c10 <vTaskPlaceOnEventListRestricted+0xb4>)
10001bce:	19ad      	adds	r5, r5, r6
10001bd0:	681f      	ldr	r7, [r3, #0]
10001bd2:	4b10      	ldr	r3, [pc, #64]	@ (10001c14 <vTaskPlaceOnEventListRestricted+0xb8>)
10001bd4:	681b      	ldr	r3, [r3, #0]
10001bd6:	6820      	ldr	r0, [r4, #0]
10001bd8:	4698      	mov	r8, r3
10001bda:	3004      	adds	r0, #4
10001bdc:	f7fe fd26 	bl	1000062c <uxListRemove>
10001be0:	6823      	ldr	r3, [r4, #0]
10001be2:	6821      	ldr	r1, [r4, #0]
10001be4:	605d      	str	r5, [r3, #4]
10001be6:	3104      	adds	r1, #4
10001be8:	42ae      	cmp	r6, r5
10001bea:	d808      	bhi.n	10001bfe <vTaskPlaceOnEventListRestricted+0xa2>
10001bec:	0038      	movs	r0, r7
10001bee:	f7fe fd05 	bl	100005fc <vListInsert>
10001bf2:	4b0a      	ldr	r3, [pc, #40]	@ (10001c1c <vTaskPlaceOnEventListRestricted+0xc0>)
10001bf4:	681a      	ldr	r2, [r3, #0]
10001bf6:	4295      	cmp	r5, r2
10001bf8:	d2e4      	bcs.n	10001bc4 <vTaskPlaceOnEventListRestricted+0x68>
10001bfa:	601d      	str	r5, [r3, #0]
10001bfc:	e7e2      	b.n	10001bc4 <vTaskPlaceOnEventListRestricted+0x68>
10001bfe:	4640      	mov	r0, r8
10001c00:	f7fe fcfc 	bl	100005fc <vListInsert>
10001c04:	e7de      	b.n	10001bc4 <vTaskPlaceOnEventListRestricted+0x68>
10001c06:	46c0      	nop			@ (mov r8, r8)
10001c08:	20000b48 	.word	0x20000b48
10001c0c:	20008b3c 	.word	0x20008b3c
10001c10:	20000b50 	.word	0x20000b50
10001c14:	20000b58 	.word	0x20000b58
10001c18:	20008b14 	.word	0x20008b14
10001c1c:	20008a70 	.word	0x20008a70

10001c20 <xTaskRemoveFromEventList>:
10001c20:	68c3      	ldr	r3, [r0, #12]
10001c22:	b570      	push	{r4, r5, r6, lr}
10001c24:	68db      	ldr	r3, [r3, #12]
10001c26:	69d8      	ldr	r0, [r3, #28]
10001c28:	6a19      	ldr	r1, [r3, #32]
10001c2a:	6a9a      	ldr	r2, [r3, #40]	@ 0x28
10001c2c:	6081      	str	r1, [r0, #8]
10001c2e:	69d8      	ldr	r0, [r3, #28]
10001c30:	6048      	str	r0, [r1, #4]
10001c32:	0018      	movs	r0, r3
10001c34:	6851      	ldr	r1, [r2, #4]
10001c36:	3018      	adds	r0, #24
10001c38:	4281      	cmp	r1, r0
10001c3a:	d043      	beq.n	10001cc4 <xTaskRemoveFromEventList+0xa4>
10001c3c:	2100      	movs	r1, #0
10001c3e:	6299      	str	r1, [r3, #40]	@ 0x28
10001c40:	6811      	ldr	r1, [r2, #0]
10001c42:	3901      	subs	r1, #1
10001c44:	6011      	str	r1, [r2, #0]
10001c46:	4a26      	ldr	r2, [pc, #152]	@ (10001ce0 <xTaskRemoveFromEventList+0xc0>)
10001c48:	6812      	ldr	r2, [r2, #0]
10001c4a:	2a00      	cmp	r2, #0
10001c4c:	d12c      	bne.n	10001ca8 <xTaskRemoveFromEventList+0x88>
10001c4e:	6898      	ldr	r0, [r3, #8]
10001c50:	68d9      	ldr	r1, [r3, #12]
10001c52:	695a      	ldr	r2, [r3, #20]
10001c54:	6081      	str	r1, [r0, #8]
10001c56:	6898      	ldr	r0, [r3, #8]
10001c58:	1d1c      	adds	r4, r3, #4
10001c5a:	6048      	str	r0, [r1, #4]
10001c5c:	6851      	ldr	r1, [r2, #4]
10001c5e:	42a1      	cmp	r1, r4
10001c60:	d033      	beq.n	10001cca <xTaskRemoveFromEventList+0xaa>
10001c62:	6811      	ldr	r1, [r2, #0]
10001c64:	3901      	subs	r1, #1
10001c66:	6011      	str	r1, [r2, #0]
10001c68:	4a1e      	ldr	r2, [pc, #120]	@ (10001ce4 <xTaskRemoveFromEventList+0xc4>)
10001c6a:	6ad9      	ldr	r1, [r3, #44]	@ 0x2c
10001c6c:	6810      	ldr	r0, [r2, #0]
10001c6e:	4281      	cmp	r1, r0
10001c70:	d826      	bhi.n	10001cc0 <xTaskRemoveFromEventList+0xa0>
10001c72:	008a      	lsls	r2, r1, #2
10001c74:	481c      	ldr	r0, [pc, #112]	@ (10001ce8 <xTaskRemoveFromEventList+0xc8>)
10001c76:	1852      	adds	r2, r2, r1
10001c78:	0092      	lsls	r2, r2, #2
10001c7a:	1885      	adds	r5, r0, r2
10001c7c:	6869      	ldr	r1, [r5, #4]
10001c7e:	6099      	str	r1, [r3, #8]
10001c80:	688e      	ldr	r6, [r1, #8]
10001c82:	60de      	str	r6, [r3, #12]
10001c84:	6074      	str	r4, [r6, #4]
10001c86:	608c      	str	r4, [r1, #8]
10001c88:	5881      	ldr	r1, [r0, r2]
10001c8a:	615d      	str	r5, [r3, #20]
10001c8c:	3101      	adds	r1, #1
10001c8e:	5081      	str	r1, [r0, r2]
10001c90:	4a16      	ldr	r2, [pc, #88]	@ (10001cec <xTaskRemoveFromEventList+0xcc>)
10001c92:	2000      	movs	r0, #0
10001c94:	6811      	ldr	r1, [r2, #0]
10001c96:	6ada      	ldr	r2, [r3, #44]	@ 0x2c
10001c98:	6acb      	ldr	r3, [r1, #44]	@ 0x2c
10001c9a:	429a      	cmp	r2, r3
10001c9c:	d903      	bls.n	10001ca6 <xTaskRemoveFromEventList+0x86>
10001c9e:	2201      	movs	r2, #1
10001ca0:	4b13      	ldr	r3, [pc, #76]	@ (10001cf0 <xTaskRemoveFromEventList+0xd0>)
10001ca2:	3001      	adds	r0, #1
10001ca4:	601a      	str	r2, [r3, #0]
10001ca6:	bd70      	pop	{r4, r5, r6, pc}
10001ca8:	4a12      	ldr	r2, [pc, #72]	@ (10001cf4 <xTaskRemoveFromEventList+0xd4>)
10001caa:	6851      	ldr	r1, [r2, #4]
10001cac:	61d9      	str	r1, [r3, #28]
10001cae:	688c      	ldr	r4, [r1, #8]
10001cb0:	621c      	str	r4, [r3, #32]
10001cb2:	6060      	str	r0, [r4, #4]
10001cb4:	6088      	str	r0, [r1, #8]
10001cb6:	6811      	ldr	r1, [r2, #0]
10001cb8:	629a      	str	r2, [r3, #40]	@ 0x28
10001cba:	3101      	adds	r1, #1
10001cbc:	6011      	str	r1, [r2, #0]
10001cbe:	e7e7      	b.n	10001c90 <xTaskRemoveFromEventList+0x70>
10001cc0:	6011      	str	r1, [r2, #0]
10001cc2:	e7d6      	b.n	10001c72 <xTaskRemoveFromEventList+0x52>
10001cc4:	6a19      	ldr	r1, [r3, #32]
10001cc6:	6051      	str	r1, [r2, #4]
10001cc8:	e7b8      	b.n	10001c3c <xTaskRemoveFromEventList+0x1c>
10001cca:	68d9      	ldr	r1, [r3, #12]
10001ccc:	6051      	str	r1, [r2, #4]
10001cce:	6811      	ldr	r1, [r2, #0]
10001cd0:	3901      	subs	r1, #1
10001cd2:	6011      	str	r1, [r2, #0]
10001cd4:	4a03      	ldr	r2, [pc, #12]	@ (10001ce4 <xTaskRemoveFromEventList+0xc4>)
10001cd6:	6ad9      	ldr	r1, [r3, #44]	@ 0x2c
10001cd8:	6810      	ldr	r0, [r2, #0]
10001cda:	4281      	cmp	r1, r0
10001cdc:	d9c9      	bls.n	10001c72 <xTaskRemoveFromEventList+0x52>
10001cde:	e7ef      	b.n	10001cc0 <xTaskRemoveFromEventList+0xa0>
10001ce0:	20008a00 	.word	0x20008a00
10001ce4:	20008a08 	.word	0x20008a08
10001ce8:	20000b60 	.word	0x20000b60
10001cec:	20000b48 	.word	0x20000b48
10001cf0:	20008b48 	.word	0x20008b48
10001cf4:	20008a84 	.word	0x20008a84

10001cf8 <vTaskInternalSetTimeOutState>:
10001cf8:	4b03      	ldr	r3, [pc, #12]	@ (10001d08 <vTaskInternalSetTimeOutState+0x10>)
10001cfa:	681b      	ldr	r3, [r3, #0]
10001cfc:	6003      	str	r3, [r0, #0]
10001cfe:	4b03      	ldr	r3, [pc, #12]	@ (10001d0c <vTaskInternalSetTimeOutState+0x14>)
10001d00:	681b      	ldr	r3, [r3, #0]
10001d02:	6043      	str	r3, [r0, #4]
10001d04:	4770      	bx	lr
10001d06:	46c0      	nop			@ (mov r8, r8)
10001d08:	20008a74 	.word	0x20008a74
10001d0c:	20008b3c 	.word	0x20008b3c

10001d10 <xTaskCheckForTimeOut>:
10001d10:	b5f0      	push	{r4, r5, r6, r7, lr}
10001d12:	46c6      	mov	lr, r8
10001d14:	000d      	movs	r5, r1
10001d16:	b500      	push	{lr}
10001d18:	0004      	movs	r4, r0
10001d1a:	f000 fbd5 	bl	100024c8 <vPortEnterCritical>
10001d1e:	4a11      	ldr	r2, [pc, #68]	@ (10001d64 <xTaskCheckForTimeOut+0x54>)
10001d20:	682b      	ldr	r3, [r5, #0]
10001d22:	6811      	ldr	r1, [r2, #0]
10001d24:	1c58      	adds	r0, r3, #1
10001d26:	d01b      	beq.n	10001d60 <xTaskCheckForTimeOut+0x50>
10001d28:	4e0f      	ldr	r6, [pc, #60]	@ (10001d68 <xTaskCheckForTimeOut+0x58>)
10001d2a:	6860      	ldr	r0, [r4, #4]
10001d2c:	6837      	ldr	r7, [r6, #0]
10001d2e:	46b8      	mov	r8, r7
10001d30:	6827      	ldr	r7, [r4, #0]
10001d32:	4547      	cmp	r7, r8
10001d34:	d00a      	beq.n	10001d4c <xTaskCheckForTimeOut+0x3c>
10001d36:	4288      	cmp	r0, r1
10001d38:	d808      	bhi.n	10001d4c <xTaskCheckForTimeOut+0x3c>
10001d3a:	2300      	movs	r3, #0
10001d3c:	2401      	movs	r4, #1
10001d3e:	602b      	str	r3, [r5, #0]
10001d40:	f000 fbce 	bl	100024e0 <vPortExitCritical>
10001d44:	0020      	movs	r0, r4
10001d46:	bc80      	pop	{r7}
10001d48:	46b8      	mov	r8, r7
10001d4a:	bdf0      	pop	{r4, r5, r6, r7, pc}
10001d4c:	1a0f      	subs	r7, r1, r0
10001d4e:	42bb      	cmp	r3, r7
10001d50:	d9f3      	bls.n	10001d3a <xTaskCheckForTimeOut+0x2a>
10001d52:	1a5b      	subs	r3, r3, r1
10001d54:	181b      	adds	r3, r3, r0
10001d56:	602b      	str	r3, [r5, #0]
10001d58:	6833      	ldr	r3, [r6, #0]
10001d5a:	6023      	str	r3, [r4, #0]
10001d5c:	6813      	ldr	r3, [r2, #0]
10001d5e:	6063      	str	r3, [r4, #4]
10001d60:	2400      	movs	r4, #0
10001d62:	e7ed      	b.n	10001d40 <xTaskCheckForTimeOut+0x30>
10001d64:	20008b3c 	.word	0x20008b3c
10001d68:	20008a74 	.word	0x20008a74

10001d6c <vTaskMissedYield>:
10001d6c:	2201      	movs	r2, #1
10001d6e:	4b01      	ldr	r3, [pc, #4]	@ (10001d74 <vTaskMissedYield+0x8>)
10001d70:	601a      	str	r2, [r3, #0]
10001d72:	4770      	bx	lr
10001d74:	20008b48 	.word	0x20008b48

10001d78 <xTaskPriorityDisinherit>:
10001d78:	b570      	push	{r4, r5, r6, lr}
10001d7a:	1e04      	subs	r4, r0, #0
10001d7c:	d008      	beq.n	10001d90 <xTaskPriorityDisinherit+0x18>
10001d7e:	6d03      	ldr	r3, [r0, #80]	@ 0x50
10001d80:	6ac1      	ldr	r1, [r0, #44]	@ 0x2c
10001d82:	6cc2      	ldr	r2, [r0, #76]	@ 0x4c
10001d84:	3b01      	subs	r3, #1
10001d86:	6503      	str	r3, [r0, #80]	@ 0x50
10001d88:	4291      	cmp	r1, r2
10001d8a:	d001      	beq.n	10001d90 <xTaskPriorityDisinherit+0x18>
10001d8c:	2b00      	cmp	r3, #0
10001d8e:	d001      	beq.n	10001d94 <xTaskPriorityDisinherit+0x1c>
10001d90:	2000      	movs	r0, #0
10001d92:	bd70      	pop	{r4, r5, r6, pc}
10001d94:	1d05      	adds	r5, r0, #4
10001d96:	0028      	movs	r0, r5
10001d98:	f7fe fc48 	bl	1000062c <uxListRemove>
10001d9c:	2305      	movs	r3, #5
10001d9e:	6ce2      	ldr	r2, [r4, #76]	@ 0x4c
10001da0:	1a9b      	subs	r3, r3, r2
10001da2:	61a3      	str	r3, [r4, #24]
10001da4:	4b0b      	ldr	r3, [pc, #44]	@ (10001dd4 <xTaskPriorityDisinherit+0x5c>)
10001da6:	62e2      	str	r2, [r4, #44]	@ 0x2c
10001da8:	6819      	ldr	r1, [r3, #0]
10001daa:	428a      	cmp	r2, r1
10001dac:	d900      	bls.n	10001db0 <xTaskPriorityDisinherit+0x38>
10001dae:	601a      	str	r2, [r3, #0]
10001db0:	0093      	lsls	r3, r2, #2
10001db2:	4909      	ldr	r1, [pc, #36]	@ (10001dd8 <xTaskPriorityDisinherit+0x60>)
10001db4:	189b      	adds	r3, r3, r2
10001db6:	009b      	lsls	r3, r3, #2
10001db8:	18c8      	adds	r0, r1, r3
10001dba:	6842      	ldr	r2, [r0, #4]
10001dbc:	60a2      	str	r2, [r4, #8]
10001dbe:	6896      	ldr	r6, [r2, #8]
10001dc0:	60e6      	str	r6, [r4, #12]
10001dc2:	6075      	str	r5, [r6, #4]
10001dc4:	6095      	str	r5, [r2, #8]
10001dc6:	58ca      	ldr	r2, [r1, r3]
10001dc8:	6160      	str	r0, [r4, #20]
10001dca:	3201      	adds	r2, #1
10001dcc:	2001      	movs	r0, #1
10001dce:	50ca      	str	r2, [r1, r3]
10001dd0:	e7df      	b.n	10001d92 <xTaskPriorityDisinherit+0x1a>
10001dd2:	46c0      	nop			@ (mov r8, r8)
10001dd4:	20008a08 	.word	0x20008a08
10001dd8:	20000b60 	.word	0x20000b60

10001ddc <ulTaskGenericNotifyTake>:
10001ddc:	b5f8      	push	{r3, r4, r5, r6, r7, lr}
10001dde:	0004      	movs	r4, r0
10001de0:	4647      	mov	r7, r8
10001de2:	46ce      	mov	lr, r9
10001de4:	4e26      	ldr	r6, [pc, #152]	@ (10001e80 <ulTaskGenericNotifyTake+0xa4>)
10001de6:	341a      	adds	r4, #26
10001de8:	6833      	ldr	r3, [r6, #0]
10001dea:	4690      	mov	r8, r2
10001dec:	00a2      	lsls	r2, r4, #2
10001dee:	58d3      	ldr	r3, [r2, r3]
10001df0:	b580      	push	{r7, lr}
10001df2:	0005      	movs	r5, r0
10001df4:	000f      	movs	r7, r1
10001df6:	4691      	mov	r9, r2
10001df8:	2b00      	cmp	r3, #0
10001dfa:	d102      	bne.n	10001e02 <ulTaskGenericNotifyTake+0x26>
10001dfc:	4643      	mov	r3, r8
10001dfe:	2b00      	cmp	r3, #0
10001e00:	d11c      	bne.n	10001e3c <ulTaskGenericNotifyTake+0x60>
10001e02:	f000 fb61 	bl	100024c8 <vPortEnterCritical>
10001e06:	6833      	ldr	r3, [r6, #0]
10001e08:	00a4      	lsls	r4, r4, #2
10001e0a:	58e3      	ldr	r3, [r4, r3]
10001e0c:	4698      	mov	r8, r3
10001e0e:	2b00      	cmp	r3, #0
10001e10:	d004      	beq.n	10001e1c <ulTaskGenericNotifyTake+0x40>
10001e12:	6833      	ldr	r3, [r6, #0]
10001e14:	2f00      	cmp	r7, #0
10001e16:	d00d      	beq.n	10001e34 <ulTaskGenericNotifyTake+0x58>
10001e18:	2200      	movs	r2, #0
10001e1a:	50e2      	str	r2, [r4, r3]
10001e1c:	2300      	movs	r3, #0
10001e1e:	6830      	ldr	r0, [r6, #0]
10001e20:	1940      	adds	r0, r0, r5
10001e22:	3074      	adds	r0, #116	@ 0x74
10001e24:	7003      	strb	r3, [r0, #0]
10001e26:	f000 fb5b 	bl	100024e0 <vPortExitCritical>
10001e2a:	4640      	mov	r0, r8
10001e2c:	bcc0      	pop	{r6, r7}
10001e2e:	46b9      	mov	r9, r7
10001e30:	46b0      	mov	r8, r6
10001e32:	bdf8      	pop	{r3, r4, r5, r6, r7, pc}
10001e34:	4642      	mov	r2, r8
10001e36:	3a01      	subs	r2, #1
10001e38:	50e2      	str	r2, [r4, r3]
10001e3a:	e7ef      	b.n	10001e1c <ulTaskGenericNotifyTake+0x40>
10001e3c:	4a11      	ldr	r2, [pc, #68]	@ (10001e84 <ulTaskGenericNotifyTake+0xa8>)
10001e3e:	6813      	ldr	r3, [r2, #0]
10001e40:	3301      	adds	r3, #1
10001e42:	6013      	str	r3, [r2, #0]
10001e44:	f000 fb40 	bl	100024c8 <vPortEnterCritical>
10001e48:	464a      	mov	r2, r9
10001e4a:	6833      	ldr	r3, [r6, #0]
10001e4c:	58d3      	ldr	r3, [r2, r3]
10001e4e:	2b00      	cmp	r3, #0
10001e50:	d004      	beq.n	10001e5c <ulTaskGenericNotifyTake+0x80>
10001e52:	f000 fb45 	bl	100024e0 <vPortExitCritical>
10001e56:	f7ff fcb3 	bl	100017c0 <xTaskResumeAll>
10001e5a:	e7d2      	b.n	10001e02 <ulTaskGenericNotifyTake+0x26>
10001e5c:	2201      	movs	r2, #1
10001e5e:	6833      	ldr	r3, [r6, #0]
10001e60:	195b      	adds	r3, r3, r5
10001e62:	3374      	adds	r3, #116	@ 0x74
10001e64:	701a      	strb	r2, [r3, #0]
10001e66:	f000 fb3b 	bl	100024e0 <vPortExitCritical>
10001e6a:	2101      	movs	r1, #1
10001e6c:	4640      	mov	r0, r8
10001e6e:	f7ff f92f 	bl	100010d0 <prvAddCurrentTaskToDelayedList>
10001e72:	f7ff fca5 	bl	100017c0 <xTaskResumeAll>
10001e76:	2800      	cmp	r0, #0
10001e78:	d1c3      	bne.n	10001e02 <ulTaskGenericNotifyTake+0x26>
10001e7a:	f000 fb19 	bl	100024b0 <vPortYield>
10001e7e:	e7c0      	b.n	10001e02 <ulTaskGenericNotifyTake+0x26>
10001e80:	20000b48 	.word	0x20000b48
10001e84:	20008a00 	.word	0x20008a00

10001e88 <xTaskGenericNotify>:
10001e88:	b5f0      	push	{r4, r5, r6, r7, lr}
10001e8a:	46c6      	mov	lr, r8
10001e8c:	b500      	push	{lr}
10001e8e:	9d06      	ldr	r5, [sp, #24]
10001e90:	0006      	movs	r6, r0
10001e92:	000c      	movs	r4, r1
10001e94:	4690      	mov	r8, r2
10001e96:	001f      	movs	r7, r3
10001e98:	f000 fb16 	bl	100024c8 <vPortEnterCritical>
10001e9c:	2d00      	cmp	r5, #0
10001e9e:	d004      	beq.n	10001eaa <xTaskGenericNotify+0x22>
10001ea0:	0023      	movs	r3, r4
10001ea2:	331a      	adds	r3, #26
10001ea4:	009b      	lsls	r3, r3, #2
10001ea6:	599b      	ldr	r3, [r3, r6]
10001ea8:	602b      	str	r3, [r5, #0]
10001eaa:	2302      	movs	r3, #2
10001eac:	1931      	adds	r1, r6, r4
10001eae:	3174      	adds	r1, #116	@ 0x74
10001eb0:	780d      	ldrb	r5, [r1, #0]
10001eb2:	700b      	strb	r3, [r1, #0]
10001eb4:	b2ed      	uxtb	r5, r5
10001eb6:	2f03      	cmp	r7, #3
10001eb8:	d016      	beq.n	10001ee8 <xTaskGenericNotify+0x60>
10001eba:	d811      	bhi.n	10001ee0 <xTaskGenericNotify+0x58>
10001ebc:	2f01      	cmp	r7, #1
10001ebe:	d044      	beq.n	10001f4a <xTaskGenericNotify+0xc2>
10001ec0:	2f02      	cmp	r7, #2
10001ec2:	d104      	bne.n	10001ece <xTaskGenericNotify+0x46>
10001ec4:	00a4      	lsls	r4, r4, #2
10001ec6:	1934      	adds	r4, r6, r4
10001ec8:	6ea3      	ldr	r3, [r4, #104]	@ 0x68
10001eca:	3301      	adds	r3, #1
10001ecc:	66a3      	str	r3, [r4, #104]	@ 0x68
10001ece:	2d01      	cmp	r5, #1
10001ed0:	d010      	beq.n	10001ef4 <xTaskGenericNotify+0x6c>
10001ed2:	2401      	movs	r4, #1
10001ed4:	f000 fb04 	bl	100024e0 <vPortExitCritical>
10001ed8:	0020      	movs	r0, r4
10001eda:	bc80      	pop	{r7}
10001edc:	46b8      	mov	r8, r7
10001ede:	bdf0      	pop	{r4, r5, r6, r7, pc}
10001ee0:	2f04      	cmp	r7, #4
10001ee2:	d1f4      	bne.n	10001ece <xTaskGenericNotify+0x46>
10001ee4:	2d02      	cmp	r5, #2
10001ee6:	d037      	beq.n	10001f58 <xTaskGenericNotify+0xd0>
10001ee8:	4643      	mov	r3, r8
10001eea:	341a      	adds	r4, #26
10001eec:	00a4      	lsls	r4, r4, #2
10001eee:	51a3      	str	r3, [r4, r6]
10001ef0:	2d01      	cmp	r5, #1
10001ef2:	d1ee      	bne.n	10001ed2 <xTaskGenericNotify+0x4a>
10001ef4:	68b1      	ldr	r1, [r6, #8]
10001ef6:	68f2      	ldr	r2, [r6, #12]
10001ef8:	6973      	ldr	r3, [r6, #20]
10001efa:	608a      	str	r2, [r1, #8]
10001efc:	68b1      	ldr	r1, [r6, #8]
10001efe:	1d30      	adds	r0, r6, #4
10001f00:	6051      	str	r1, [r2, #4]
10001f02:	685a      	ldr	r2, [r3, #4]
10001f04:	4282      	cmp	r2, r0
10001f06:	d029      	beq.n	10001f5c <xTaskGenericNotify+0xd4>
10001f08:	681a      	ldr	r2, [r3, #0]
10001f0a:	3a01      	subs	r2, #1
10001f0c:	601a      	str	r2, [r3, #0]
10001f0e:	4b15      	ldr	r3, [pc, #84]	@ (10001f64 <xTaskGenericNotify+0xdc>)
10001f10:	6af2      	ldr	r2, [r6, #44]	@ 0x2c
10001f12:	6819      	ldr	r1, [r3, #0]
10001f14:	428a      	cmp	r2, r1
10001f16:	d900      	bls.n	10001f1a <xTaskGenericNotify+0x92>
10001f18:	601a      	str	r2, [r3, #0]
10001f1a:	0093      	lsls	r3, r2, #2
10001f1c:	4912      	ldr	r1, [pc, #72]	@ (10001f68 <xTaskGenericNotify+0xe0>)
10001f1e:	189b      	adds	r3, r3, r2
10001f20:	009b      	lsls	r3, r3, #2
10001f22:	18cc      	adds	r4, r1, r3
10001f24:	6862      	ldr	r2, [r4, #4]
10001f26:	60b2      	str	r2, [r6, #8]
10001f28:	6895      	ldr	r5, [r2, #8]
10001f2a:	60f5      	str	r5, [r6, #12]
10001f2c:	6068      	str	r0, [r5, #4]
10001f2e:	6090      	str	r0, [r2, #8]
10001f30:	58ca      	ldr	r2, [r1, r3]
10001f32:	6174      	str	r4, [r6, #20]
10001f34:	3201      	adds	r2, #1
10001f36:	50ca      	str	r2, [r1, r3]
10001f38:	4b0c      	ldr	r3, [pc, #48]	@ (10001f6c <xTaskGenericNotify+0xe4>)
10001f3a:	681b      	ldr	r3, [r3, #0]
10001f3c:	6ada      	ldr	r2, [r3, #44]	@ 0x2c
10001f3e:	6af3      	ldr	r3, [r6, #44]	@ 0x2c
10001f40:	429a      	cmp	r2, r3
10001f42:	d2c6      	bcs.n	10001ed2 <xTaskGenericNotify+0x4a>
10001f44:	f000 fab4 	bl	100024b0 <vPortYield>
10001f48:	e7c3      	b.n	10001ed2 <xTaskGenericNotify+0x4a>
10001f4a:	4642      	mov	r2, r8
10001f4c:	00a4      	lsls	r4, r4, #2
10001f4e:	1934      	adds	r4, r6, r4
10001f50:	6ea3      	ldr	r3, [r4, #104]	@ 0x68
10001f52:	4313      	orrs	r3, r2
10001f54:	66a3      	str	r3, [r4, #104]	@ 0x68
10001f56:	e7ba      	b.n	10001ece <xTaskGenericNotify+0x46>
10001f58:	2400      	movs	r4, #0
10001f5a:	e7bb      	b.n	10001ed4 <xTaskGenericNotify+0x4c>
10001f5c:	68f2      	ldr	r2, [r6, #12]
10001f5e:	605a      	str	r2, [r3, #4]
10001f60:	e7d2      	b.n	10001f08 <xTaskGenericNotify+0x80>
10001f62:	46c0      	nop			@ (mov r8, r8)
10001f64:	20008a08 	.word	0x20008a08
10001f68:	20000b60 	.word	0x20000b60
10001f6c:	20000b48 	.word	0x20000b48

10001f70 <prvTimerTask>:
10001f70:	b5f0      	push	{r4, r5, r6, r7, lr}
10001f72:	4657      	mov	r7, sl
10001f74:	46de      	mov	lr, fp
10001f76:	464e      	mov	r6, r9
10001f78:	4645      	mov	r5, r8
10001f7a:	b5e0      	push	{r5, r6, r7, lr}
10001f7c:	4bce      	ldr	r3, [pc, #824]	@ (100022b8 <prvTimerTask+0x348>)
10001f7e:	b08b      	sub	sp, #44	@ 0x2c
10001f80:	4698      	mov	r8, r3
10001f82:	4bce      	ldr	r3, [pc, #824]	@ (100022bc <prvTimerTask+0x34c>)
10001f84:	af06      	add	r7, sp, #24
10001f86:	9301      	str	r3, [sp, #4]
10001f88:	4bcd      	ldr	r3, [pc, #820]	@ (100022c0 <prvTimerTask+0x350>)
10001f8a:	469b      	mov	fp, r3
10001f8c:	4bcd      	ldr	r3, [pc, #820]	@ (100022c4 <prvTimerTask+0x354>)
10001f8e:	4699      	mov	r9, r3
10001f90:	4bcd      	ldr	r3, [pc, #820]	@ (100022c8 <prvTimerTask+0x358>)
10001f92:	464c      	mov	r4, r9
10001f94:	9302      	str	r3, [sp, #8]
10001f96:	2328      	movs	r3, #40	@ 0x28
10001f98:	46d9      	mov	r9, fp
10001f9a:	469a      	mov	sl, r3
10001f9c:	46c3      	mov	fp, r8
10001f9e:	465b      	mov	r3, fp
10001fa0:	681b      	ldr	r3, [r3, #0]
10001fa2:	681d      	ldr	r5, [r3, #0]
10001fa4:	2d00      	cmp	r5, #0
10001fa6:	d000      	beq.n	10001faa <prvTimerTask+0x3a>
10001fa8:	e0e1      	b.n	1000216e <prvTimerTask+0x1fe>
10001faa:	f7ff fc01 	bl	100017b0 <vTaskSuspendAll>
10001fae:	f7ff fd61 	bl	10001a74 <xTaskGetTickCount>
10001fb2:	9a01      	ldr	r2, [sp, #4]
10001fb4:	4680      	mov	r8, r0
10001fb6:	6813      	ldr	r3, [r2, #0]
10001fb8:	4283      	cmp	r3, r0
10001fba:	d900      	bls.n	10001fbe <prvTimerTask+0x4e>
10001fbc:	e0e7      	b.n	1000218e <prvTimerTask+0x21e>
10001fbe:	464b      	mov	r3, r9
10001fc0:	681b      	ldr	r3, [r3, #0]
10001fc2:	6010      	str	r0, [r2, #0]
10001fc4:	681a      	ldr	r2, [r3, #0]
10001fc6:	4253      	negs	r3, r2
10001fc8:	415a      	adcs	r2, r3
10001fca:	4643      	mov	r3, r8
10001fcc:	6820      	ldr	r0, [r4, #0]
10001fce:	1ae9      	subs	r1, r5, r3
10001fd0:	f7fe ff86 	bl	10000ee0 <vQueueWaitForMessageRestricted>
10001fd4:	f7ff fbf4 	bl	100017c0 <xTaskResumeAll>
10001fd8:	2800      	cmp	r0, #0
10001fda:	d100      	bne.n	10001fde <prvTimerTask+0x6e>
10001fdc:	e12b      	b.n	10002236 <prvTimerTask+0x2c6>
10001fde:	2210      	movs	r2, #16
10001fe0:	2100      	movs	r1, #0
10001fe2:	0038      	movs	r0, r7
10001fe4:	f002 f8e0 	bl	100041a8 <__wrap_memset>
10001fe8:	2200      	movs	r2, #0
10001fea:	0039      	movs	r1, r7
10001fec:	6820      	ldr	r0, [r4, #0]
10001fee:	f7fe fd69 	bl	10000ac4 <xQueueReceive>
10001ff2:	2800      	cmp	r0, #0
10001ff4:	d0d3      	beq.n	10001f9e <prvTimerTask+0x2e>
10001ff6:	683b      	ldr	r3, [r7, #0]
10001ff8:	2b00      	cmp	r3, #0
10001ffa:	db5a      	blt.n	100020b2 <prvTimerTask+0x142>
10001ffc:	68bd      	ldr	r5, [r7, #8]
10001ffe:	2d00      	cmp	r5, #0
10002000:	d0f2      	beq.n	10001fe8 <prvTimerTask+0x78>
10002002:	696b      	ldr	r3, [r5, #20]
10002004:	2b00      	cmp	r3, #0
10002006:	d002      	beq.n	1000200e <prvTimerTask+0x9e>
10002008:	1d28      	adds	r0, r5, #4
1000200a:	f7fe fb0f 	bl	1000062c <uxListRemove>
1000200e:	f7ff fd31 	bl	10001a74 <xTaskGetTickCount>
10002012:	9b01      	ldr	r3, [sp, #4]
10002014:	0006      	movs	r6, r0
10002016:	681b      	ldr	r3, [r3, #0]
10002018:	4298      	cmp	r0, r3
1000201a:	d352      	bcc.n	100020c2 <prvTimerTask+0x152>
1000201c:	9b01      	ldr	r3, [sp, #4]
1000201e:	601e      	str	r6, [r3, #0]
10002020:	683b      	ldr	r3, [r7, #0]
10002022:	2b09      	cmp	r3, #9
10002024:	d8e0      	bhi.n	10001fe8 <prvTimerTask+0x78>
10002026:	9a02      	ldr	r2, [sp, #8]
10002028:	009b      	lsls	r3, r3, #2
1000202a:	58d3      	ldr	r3, [r2, r3]
1000202c:	469f      	mov	pc, r3
1000202e:	4653      	mov	r3, sl
10002030:	5ce8      	ldrb	r0, [r5, r3]
10002032:	2301      	movs	r3, #1
10002034:	4652      	mov	r2, sl
10002036:	4303      	orrs	r3, r0
10002038:	54ab      	strb	r3, [r5, r2]
1000203a:	6879      	ldr	r1, [r7, #4]
1000203c:	69aa      	ldr	r2, [r5, #24]
1000203e:	612d      	str	r5, [r5, #16]
10002040:	188b      	adds	r3, r1, r2
10002042:	606b      	str	r3, [r5, #4]
10002044:	42b3      	cmp	r3, r6
10002046:	d900      	bls.n	1000204a <prvTimerTask+0xda>
10002048:	e086      	b.n	10002158 <prvTimerTask+0x1e8>
1000204a:	1a71      	subs	r1, r6, r1
1000204c:	428a      	cmp	r2, r1
1000204e:	d819      	bhi.n	10002084 <prvTimerTask+0x114>
10002050:	0741      	lsls	r1, r0, #29
10002052:	d500      	bpl.n	10002056 <prvTimerTask+0xe6>
10002054:	e0f2      	b.n	1000223c <prvTimerTask+0x2cc>
10002056:	2301      	movs	r3, #1
10002058:	4398      	bics	r0, r3
1000205a:	4653      	mov	r3, sl
1000205c:	54e8      	strb	r0, [r5, r3]
1000205e:	0028      	movs	r0, r5
10002060:	6a2b      	ldr	r3, [r5, #32]
10002062:	4798      	blx	r3
10002064:	e7c0      	b.n	10001fe8 <prvTimerTask+0x78>
10002066:	4653      	mov	r3, sl
10002068:	2201      	movs	r2, #1
1000206a:	5ceb      	ldrb	r3, [r5, r3]
1000206c:	4313      	orrs	r3, r2
1000206e:	4652      	mov	r2, sl
10002070:	54ab      	strb	r3, [r5, r2]
10002072:	687b      	ldr	r3, [r7, #4]
10002074:	612d      	str	r5, [r5, #16]
10002076:	199a      	adds	r2, r3, r6
10002078:	61ab      	str	r3, [r5, #24]
1000207a:	606a      	str	r2, [r5, #4]
1000207c:	42b2      	cmp	r2, r6
1000207e:	d870      	bhi.n	10002162 <prvTimerTask+0x1f2>
10002080:	2b00      	cmp	r3, #0
10002082:	d0b1      	beq.n	10001fe8 <prvTimerTask+0x78>
10002084:	464b      	mov	r3, r9
10002086:	1d29      	adds	r1, r5, #4
10002088:	6818      	ldr	r0, [r3, #0]
1000208a:	f7fe fab7 	bl	100005fc <vListInsert>
1000208e:	e7ab      	b.n	10001fe8 <prvTimerTask+0x78>
10002090:	4653      	mov	r3, sl
10002092:	2201      	movs	r2, #1
10002094:	5ceb      	ldrb	r3, [r5, r3]
10002096:	4393      	bics	r3, r2
10002098:	4652      	mov	r2, sl
1000209a:	54ab      	strb	r3, [r5, r2]
1000209c:	e7a4      	b.n	10001fe8 <prvTimerTask+0x78>
1000209e:	4653      	mov	r3, sl
100020a0:	5ceb      	ldrb	r3, [r5, r3]
100020a2:	079a      	lsls	r2, r3, #30
100020a4:	d400      	bmi.n	100020a8 <prvTimerTask+0x138>
100020a6:	e0c2      	b.n	1000222e <prvTimerTask+0x2be>
100020a8:	2201      	movs	r2, #1
100020aa:	4393      	bics	r3, r2
100020ac:	4652      	mov	r2, sl
100020ae:	54ab      	strb	r3, [r5, r2]
100020b0:	e79a      	b.n	10001fe8 <prvTimerTask+0x78>
100020b2:	687b      	ldr	r3, [r7, #4]
100020b4:	68f9      	ldr	r1, [r7, #12]
100020b6:	68b8      	ldr	r0, [r7, #8]
100020b8:	4798      	blx	r3
100020ba:	683b      	ldr	r3, [r7, #0]
100020bc:	2b00      	cmp	r3, #0
100020be:	db93      	blt.n	10001fe8 <prvTimerTask+0x78>
100020c0:	e79c      	b.n	10001ffc <prvTimerTask+0x8c>
100020c2:	465b      	mov	r3, fp
100020c4:	681b      	ldr	r3, [r3, #0]
100020c6:	681a      	ldr	r2, [r3, #0]
100020c8:	2a00      	cmp	r2, #0
100020ca:	d03e      	beq.n	1000214a <prvTimerTask+0x1da>
100020cc:	9503      	str	r5, [sp, #12]
100020ce:	9004      	str	r0, [sp, #16]
100020d0:	9405      	str	r4, [sp, #20]
100020d2:	e00b      	b.n	100020ec <prvTimerTask+0x17c>
100020d4:	2201      	movs	r2, #1
100020d6:	4393      	bics	r3, r2
100020d8:	4652      	mov	r2, sl
100020da:	54a3      	strb	r3, [r4, r2]
100020dc:	6a23      	ldr	r3, [r4, #32]
100020de:	0020      	movs	r0, r4
100020e0:	4798      	blx	r3
100020e2:	465b      	mov	r3, fp
100020e4:	681b      	ldr	r3, [r3, #0]
100020e6:	681a      	ldr	r2, [r3, #0]
100020e8:	2a00      	cmp	r2, #0
100020ea:	d02b      	beq.n	10002144 <prvTimerTask+0x1d4>
100020ec:	68db      	ldr	r3, [r3, #12]
100020ee:	68dc      	ldr	r4, [r3, #12]
100020f0:	681e      	ldr	r6, [r3, #0]
100020f2:	1d23      	adds	r3, r4, #4
100020f4:	0018      	movs	r0, r3
100020f6:	4698      	mov	r8, r3
100020f8:	f7fe fa98 	bl	1000062c <uxListRemove>
100020fc:	4653      	mov	r3, sl
100020fe:	2204      	movs	r2, #4
10002100:	5ce3      	ldrb	r3, [r4, r3]
10002102:	421a      	tst	r2, r3
10002104:	d0e6      	beq.n	100020d4 <prvTimerTask+0x164>
10002106:	69a3      	ldr	r3, [r4, #24]
10002108:	6124      	str	r4, [r4, #16]
1000210a:	18f5      	adds	r5, r6, r3
1000210c:	43f6      	mvns	r6, r6
1000210e:	6065      	str	r5, [r4, #4]
10002110:	429e      	cmp	r6, r3
10002112:	d30a      	bcc.n	1000212a <prvTimerTask+0x1ba>
10002114:	002e      	movs	r6, r5
10002116:	43f6      	mvns	r6, r6
10002118:	6a23      	ldr	r3, [r4, #32]
1000211a:	0020      	movs	r0, r4
1000211c:	4798      	blx	r3
1000211e:	69a3      	ldr	r3, [r4, #24]
10002120:	6124      	str	r4, [r4, #16]
10002122:	18ed      	adds	r5, r5, r3
10002124:	6065      	str	r5, [r4, #4]
10002126:	42b3      	cmp	r3, r6
10002128:	d9f4      	bls.n	10002114 <prvTimerTask+0x1a4>
1000212a:	464b      	mov	r3, r9
1000212c:	4641      	mov	r1, r8
1000212e:	6818      	ldr	r0, [r3, #0]
10002130:	f7fe fa64 	bl	100005fc <vListInsert>
10002134:	6a23      	ldr	r3, [r4, #32]
10002136:	0020      	movs	r0, r4
10002138:	4798      	blx	r3
1000213a:	465b      	mov	r3, fp
1000213c:	681b      	ldr	r3, [r3, #0]
1000213e:	681a      	ldr	r2, [r3, #0]
10002140:	2a00      	cmp	r2, #0
10002142:	d1d3      	bne.n	100020ec <prvTimerTask+0x17c>
10002144:	9d03      	ldr	r5, [sp, #12]
10002146:	9e04      	ldr	r6, [sp, #16]
10002148:	9c05      	ldr	r4, [sp, #20]
1000214a:	464a      	mov	r2, r9
1000214c:	4659      	mov	r1, fp
1000214e:	6812      	ldr	r2, [r2, #0]
10002150:	600a      	str	r2, [r1, #0]
10002152:	464a      	mov	r2, r9
10002154:	6013      	str	r3, [r2, #0]
10002156:	e761      	b.n	1000201c <prvTimerTask+0xac>
10002158:	42b1      	cmp	r1, r6
1000215a:	d902      	bls.n	10002162 <prvTimerTask+0x1f2>
1000215c:	4299      	cmp	r1, r3
1000215e:	d800      	bhi.n	10002162 <prvTimerTask+0x1f2>
10002160:	e776      	b.n	10002050 <prvTimerTask+0xe0>
10002162:	465b      	mov	r3, fp
10002164:	1d29      	adds	r1, r5, #4
10002166:	6818      	ldr	r0, [r3, #0]
10002168:	f7fe fa48 	bl	100005fc <vListInsert>
1000216c:	e73c      	b.n	10001fe8 <prvTimerTask+0x78>
1000216e:	68db      	ldr	r3, [r3, #12]
10002170:	681d      	ldr	r5, [r3, #0]
10002172:	f7ff fb1d 	bl	100017b0 <vTaskSuspendAll>
10002176:	f7ff fc7d 	bl	10001a74 <xTaskGetTickCount>
1000217a:	9a01      	ldr	r2, [sp, #4]
1000217c:	4680      	mov	r8, r0
1000217e:	6813      	ldr	r3, [r2, #0]
10002180:	4298      	cmp	r0, r3
10002182:	d304      	bcc.n	1000218e <prvTimerTask+0x21e>
10002184:	6010      	str	r0, [r2, #0]
10002186:	4285      	cmp	r5, r0
10002188:	d97a      	bls.n	10002280 <prvTimerTask+0x310>
1000218a:	2200      	movs	r2, #0
1000218c:	e71d      	b.n	10001fca <prvTimerTask+0x5a>
1000218e:	465b      	mov	r3, fp
10002190:	681b      	ldr	r3, [r3, #0]
10002192:	681a      	ldr	r2, [r3, #0]
10002194:	2a00      	cmp	r2, #0
10002196:	d03e      	beq.n	10002216 <prvTimerTask+0x2a6>
10002198:	4642      	mov	r2, r8
1000219a:	9404      	str	r4, [sp, #16]
1000219c:	9203      	str	r2, [sp, #12]
1000219e:	e00b      	b.n	100021b8 <prvTimerTask+0x248>
100021a0:	2201      	movs	r2, #1
100021a2:	4393      	bics	r3, r2
100021a4:	4652      	mov	r2, sl
100021a6:	54a3      	strb	r3, [r4, r2]
100021a8:	6a23      	ldr	r3, [r4, #32]
100021aa:	0020      	movs	r0, r4
100021ac:	4798      	blx	r3
100021ae:	465b      	mov	r3, fp
100021b0:	681b      	ldr	r3, [r3, #0]
100021b2:	681a      	ldr	r2, [r3, #0]
100021b4:	2a00      	cmp	r2, #0
100021b6:	d02b      	beq.n	10002210 <prvTimerTask+0x2a0>
100021b8:	68db      	ldr	r3, [r3, #12]
100021ba:	68dc      	ldr	r4, [r3, #12]
100021bc:	681e      	ldr	r6, [r3, #0]
100021be:	1d23      	adds	r3, r4, #4
100021c0:	0018      	movs	r0, r3
100021c2:	4698      	mov	r8, r3
100021c4:	f7fe fa32 	bl	1000062c <uxListRemove>
100021c8:	4653      	mov	r3, sl
100021ca:	2204      	movs	r2, #4
100021cc:	5ce3      	ldrb	r3, [r4, r3]
100021ce:	421a      	tst	r2, r3
100021d0:	d0e6      	beq.n	100021a0 <prvTimerTask+0x230>
100021d2:	69a3      	ldr	r3, [r4, #24]
100021d4:	6124      	str	r4, [r4, #16]
100021d6:	18f5      	adds	r5, r6, r3
100021d8:	43f6      	mvns	r6, r6
100021da:	6065      	str	r5, [r4, #4]
100021dc:	429e      	cmp	r6, r3
100021de:	d30a      	bcc.n	100021f6 <prvTimerTask+0x286>
100021e0:	002e      	movs	r6, r5
100021e2:	43f6      	mvns	r6, r6
100021e4:	6a23      	ldr	r3, [r4, #32]
100021e6:	0020      	movs	r0, r4
100021e8:	4798      	blx	r3
100021ea:	69a3      	ldr	r3, [r4, #24]
100021ec:	6124      	str	r4, [r4, #16]
100021ee:	18ed      	adds	r5, r5, r3
100021f0:	6065      	str	r5, [r4, #4]
100021f2:	42b3      	cmp	r3, r6
100021f4:	d9f4      	bls.n	100021e0 <prvTimerTask+0x270>
100021f6:	464b      	mov	r3, r9
100021f8:	4641      	mov	r1, r8
100021fa:	6818      	ldr	r0, [r3, #0]
100021fc:	f7fe f9fe 	bl	100005fc <vListInsert>
10002200:	6a23      	ldr	r3, [r4, #32]
10002202:	0020      	movs	r0, r4
10002204:	4798      	blx	r3
10002206:	465b      	mov	r3, fp
10002208:	681b      	ldr	r3, [r3, #0]
1000220a:	681a      	ldr	r2, [r3, #0]
1000220c:	2a00      	cmp	r2, #0
1000220e:	d1d3      	bne.n	100021b8 <prvTimerTask+0x248>
10002210:	9a03      	ldr	r2, [sp, #12]
10002212:	9c04      	ldr	r4, [sp, #16]
10002214:	4690      	mov	r8, r2
10002216:	464a      	mov	r2, r9
10002218:	4659      	mov	r1, fp
1000221a:	6812      	ldr	r2, [r2, #0]
1000221c:	600a      	str	r2, [r1, #0]
1000221e:	464a      	mov	r2, r9
10002220:	6013      	str	r3, [r2, #0]
10002222:	4642      	mov	r2, r8
10002224:	9b01      	ldr	r3, [sp, #4]
10002226:	601a      	str	r2, [r3, #0]
10002228:	f7ff faca 	bl	100017c0 <xTaskResumeAll>
1000222c:	e6d7      	b.n	10001fde <prvTimerTask+0x6e>
1000222e:	0028      	movs	r0, r5
10002230:	f000 fa7a 	bl	10002728 <vPortFree>
10002234:	e6d8      	b.n	10001fe8 <prvTimerTask+0x78>
10002236:	f000 f93b 	bl	100024b0 <vPortYield>
1000223a:	e6d0      	b.n	10001fde <prvTimerTask+0x6e>
1000223c:	46a0      	mov	r8, r4
1000223e:	0034      	movs	r4, r6
10002240:	e007      	b.n	10002252 <prvTimerTask+0x2e2>
10002242:	1ae3      	subs	r3, r4, r3
10002244:	429a      	cmp	r2, r3
10002246:	d814      	bhi.n	10002272 <prvTimerTask+0x302>
10002248:	6a2b      	ldr	r3, [r5, #32]
1000224a:	0028      	movs	r0, r5
1000224c:	4798      	blx	r3
1000224e:	0033      	movs	r3, r6
10002250:	69aa      	ldr	r2, [r5, #24]
10002252:	18d6      	adds	r6, r2, r3
10002254:	606e      	str	r6, [r5, #4]
10002256:	612d      	str	r5, [r5, #16]
10002258:	42b4      	cmp	r4, r6
1000225a:	d2f2      	bcs.n	10002242 <prvTimerTask+0x2d2>
1000225c:	429c      	cmp	r4, r3
1000225e:	d201      	bcs.n	10002264 <prvTimerTask+0x2f4>
10002260:	42b3      	cmp	r3, r6
10002262:	d9f1      	bls.n	10002248 <prvTimerTask+0x2d8>
10002264:	465b      	mov	r3, fp
10002266:	1d29      	adds	r1, r5, #4
10002268:	6818      	ldr	r0, [r3, #0]
1000226a:	4644      	mov	r4, r8
1000226c:	f7fe f9c6 	bl	100005fc <vListInsert>
10002270:	e6f5      	b.n	1000205e <prvTimerTask+0xee>
10002272:	464b      	mov	r3, r9
10002274:	1d29      	adds	r1, r5, #4
10002276:	6818      	ldr	r0, [r3, #0]
10002278:	4644      	mov	r4, r8
1000227a:	f7fe f9bf 	bl	100005fc <vListInsert>
1000227e:	e6ee      	b.n	1000205e <prvTimerTask+0xee>
10002280:	f7ff fa9e 	bl	100017c0 <xTaskResumeAll>
10002284:	465b      	mov	r3, fp
10002286:	681b      	ldr	r3, [r3, #0]
10002288:	68db      	ldr	r3, [r3, #12]
1000228a:	68de      	ldr	r6, [r3, #12]
1000228c:	1d33      	adds	r3, r6, #4
1000228e:	0018      	movs	r0, r3
10002290:	9303      	str	r3, [sp, #12]
10002292:	f7fe f9cb 	bl	1000062c <uxListRemove>
10002296:	4653      	mov	r3, sl
10002298:	5cf3      	ldrb	r3, [r6, r3]
1000229a:	075a      	lsls	r2, r3, #29
1000229c:	d407      	bmi.n	100022ae <prvTimerTask+0x33e>
1000229e:	2201      	movs	r2, #1
100022a0:	4393      	bics	r3, r2
100022a2:	4652      	mov	r2, sl
100022a4:	54b3      	strb	r3, [r6, r2]
100022a6:	0030      	movs	r0, r6
100022a8:	6a33      	ldr	r3, [r6, #32]
100022aa:	4798      	blx	r3
100022ac:	e697      	b.n	10001fde <prvTimerTask+0x6e>
100022ae:	0022      	movs	r2, r4
100022b0:	002b      	movs	r3, r5
100022b2:	4644      	mov	r4, r8
100022b4:	4690      	mov	r8, r2
100022b6:	e010      	b.n	100022da <prvTimerTask+0x36a>
100022b8:	20000b4c 	.word	0x20000b4c
100022bc:	20008a68 	.word	0x20008a68
100022c0:	20000b5c 	.word	0x20000b5c
100022c4:	20008b40 	.word	0x20008b40
100022c8:	100063d8 	.word	0x100063d8
100022cc:	1ae3      	subs	r3, r4, r3
100022ce:	429a      	cmp	r2, r3
100022d0:	d814      	bhi.n	100022fc <prvTimerTask+0x38c>
100022d2:	6a33      	ldr	r3, [r6, #32]
100022d4:	0030      	movs	r0, r6
100022d6:	4798      	blx	r3
100022d8:	002b      	movs	r3, r5
100022da:	69b2      	ldr	r2, [r6, #24]
100022dc:	6136      	str	r6, [r6, #16]
100022de:	189d      	adds	r5, r3, r2
100022e0:	6075      	str	r5, [r6, #4]
100022e2:	42a5      	cmp	r5, r4
100022e4:	d9f2      	bls.n	100022cc <prvTimerTask+0x35c>
100022e6:	42a3      	cmp	r3, r4
100022e8:	d901      	bls.n	100022ee <prvTimerTask+0x37e>
100022ea:	42ab      	cmp	r3, r5
100022ec:	d9f1      	bls.n	100022d2 <prvTimerTask+0x362>
100022ee:	465b      	mov	r3, fp
100022f0:	9903      	ldr	r1, [sp, #12]
100022f2:	6818      	ldr	r0, [r3, #0]
100022f4:	4644      	mov	r4, r8
100022f6:	f7fe f981 	bl	100005fc <vListInsert>
100022fa:	e7d4      	b.n	100022a6 <prvTimerTask+0x336>
100022fc:	464b      	mov	r3, r9
100022fe:	9903      	ldr	r1, [sp, #12]
10002300:	6818      	ldr	r0, [r3, #0]
10002302:	4644      	mov	r4, r8
10002304:	f7fe f97a 	bl	100005fc <vListInsert>
10002308:	e7cd      	b.n	100022a6 <prvTimerTask+0x336>
1000230a:	46c0      	nop			@ (mov r8, r8)

1000230c <xTimerCreateTimerTask>:
1000230c:	b5f0      	push	{r4, r5, r6, r7, lr}
1000230e:	b089      	sub	sp, #36	@ 0x24
10002310:	f000 f8da 	bl	100024c8 <vPortEnterCritical>
10002314:	4c1f      	ldr	r4, [pc, #124]	@ (10002394 <xTimerCreateTimerTask+0x88>)
10002316:	6825      	ldr	r5, [r4, #0]
10002318:	2d00      	cmp	r5, #0
1000231a:	d020      	beq.n	1000235e <xTimerCreateTimerTask+0x52>
1000231c:	f000 f8e0 	bl	100024e0 <vPortExitCritical>
10002320:	6823      	ldr	r3, [r4, #0]
10002322:	2000      	movs	r0, #0
10002324:	2b00      	cmp	r3, #0
10002326:	d018      	beq.n	1000235a <xTimerCreateTimerTask+0x4e>
10002328:	2416      	movs	r4, #22
1000232a:	446c      	add	r4, sp
1000232c:	0022      	movs	r2, r4
1000232e:	9006      	str	r0, [sp, #24]
10002330:	9007      	str	r0, [sp, #28]
10002332:	a907      	add	r1, sp, #28
10002334:	a806      	add	r0, sp, #24
10002336:	f7fe f8cb 	bl	100004d0 <vApplicationGetTimerTaskMemory>
1000233a:	9b06      	ldr	r3, [sp, #24]
1000233c:	8822      	ldrh	r2, [r4, #0]
1000233e:	9302      	str	r3, [sp, #8]
10002340:	9b07      	ldr	r3, [sp, #28]
10002342:	4915      	ldr	r1, [pc, #84]	@ (10002398 <xTimerCreateTimerTask+0x8c>)
10002344:	9301      	str	r3, [sp, #4]
10002346:	2303      	movs	r3, #3
10002348:	4814      	ldr	r0, [pc, #80]	@ (1000239c <xTimerCreateTimerTask+0x90>)
1000234a:	9300      	str	r3, [sp, #0]
1000234c:	2300      	movs	r3, #0
1000234e:	f7ff f88b 	bl	10001468 <xTaskCreateStatic>
10002352:	4b13      	ldr	r3, [pc, #76]	@ (100023a0 <xTimerCreateTimerTask+0x94>)
10002354:	6018      	str	r0, [r3, #0]
10002356:	1e43      	subs	r3, r0, #1
10002358:	4198      	sbcs	r0, r3
1000235a:	b009      	add	sp, #36	@ 0x24
1000235c:	bdf0      	pop	{r4, r5, r6, r7, pc}
1000235e:	4f11      	ldr	r7, [pc, #68]	@ (100023a4 <xTimerCreateTimerTask+0x98>)
10002360:	0038      	movs	r0, r7
10002362:	f7fe f93b 	bl	100005dc <vListInitialise>
10002366:	4e10      	ldr	r6, [pc, #64]	@ (100023a8 <xTimerCreateTimerTask+0x9c>)
10002368:	0030      	movs	r0, r6
1000236a:	f7fe f937 	bl	100005dc <vListInitialise>
1000236e:	4b0f      	ldr	r3, [pc, #60]	@ (100023ac <xTimerCreateTimerTask+0xa0>)
10002370:	2110      	movs	r1, #16
10002372:	601f      	str	r7, [r3, #0]
10002374:	4b0e      	ldr	r3, [pc, #56]	@ (100023b0 <xTimerCreateTimerTask+0xa4>)
10002376:	200a      	movs	r0, #10
10002378:	601e      	str	r6, [r3, #0]
1000237a:	4a0e      	ldr	r2, [pc, #56]	@ (100023b4 <xTimerCreateTimerTask+0xa8>)
1000237c:	4b0e      	ldr	r3, [pc, #56]	@ (100023b8 <xTimerCreateTimerTask+0xac>)
1000237e:	9500      	str	r5, [sp, #0]
10002380:	f7fe f964 	bl	1000064c <xQueueGenericCreateStatic>
10002384:	6020      	str	r0, [r4, #0]
10002386:	2800      	cmp	r0, #0
10002388:	d0c8      	beq.n	1000231c <xTimerCreateTimerTask+0x10>
1000238a:	490c      	ldr	r1, [pc, #48]	@ (100023bc <xTimerCreateTimerTask+0xb0>)
1000238c:	f7fe fcf4 	bl	10000d78 <vQueueAddToRegistry>
10002390:	e7c4      	b.n	1000231c <xTimerCreateTimerTask+0x10>
10002392:	46c0      	nop			@ (mov r8, r8)
10002394:	20008b40 	.word	0x20008b40
10002398:	100062c8 	.word	0x100062c8
1000239c:	10001f71 	.word	0x10001f71
100023a0:	20008b44 	.word	0x20008b44
100023a4:	20008a0c 	.word	0x20008a0c
100023a8:	20008a20 	.word	0x20008a20
100023ac:	20000b4c 	.word	0x20000b4c
100023b0:	20000b5c 	.word	0x20000b5c
100023b4:	20008954 	.word	0x20008954
100023b8:	20008ac4 	.word	0x20008ac4
100023bc:	100062c0 	.word	0x100062c0

100023c0 <xEventGroupCreateStatic>:
100023c0:	2320      	movs	r3, #32
100023c2:	b510      	push	{r4, lr}
100023c4:	b082      	sub	sp, #8
100023c6:	1e04      	subs	r4, r0, #0
100023c8:	9301      	str	r3, [sp, #4]
100023ca:	d005      	beq.n	100023d8 <xEventGroupCreateStatic+0x18>
100023cc:	2300      	movs	r3, #0
100023ce:	c008      	stmia	r0!, {r3}
100023d0:	f7fe f904 	bl	100005dc <vListInitialise>
100023d4:	2301      	movs	r3, #1
100023d6:	7723      	strb	r3, [r4, #28]
100023d8:	0020      	movs	r0, r4
100023da:	b002      	add	sp, #8
100023dc:	bd10      	pop	{r4, pc}
100023de:	46c0      	nop			@ (mov r8, r8)

100023e0 <vPortStartFirstTask>:
100023e0:	4a0b      	ldr	r2, [pc, #44]	@ (10002410 <pxCurrentTCBConst1>)
100023e2:	6813      	ldr	r3, [r2, #0]
100023e4:	6818      	ldr	r0, [r3, #0]
100023e6:	3020      	adds	r0, #32
100023e8:	f380 8809 	msr	PSP, r0
100023ec:	2002      	movs	r0, #2
100023ee:	f380 8814 	msr	CONTROL, r0
100023f2:	f3bf 8f6f 	isb	sy
100023f6:	bc3f      	pop	{r0, r1, r2, r3, r4, r5}
100023f8:	46ae      	mov	lr, r5
100023fa:	bc08      	pop	{r3}
100023fc:	bc04      	pop	{r2}
100023fe:	b662      	cpsie	i
10002400:	4718      	bx	r3
10002402:	46c0      	nop			@ (mov r8, r8)
10002404:	46c0      	nop			@ (mov r8, r8)
10002406:	46c0      	nop			@ (mov r8, r8)
10002408:	46c0      	nop			@ (mov r8, r8)
1000240a:	46c0      	nop			@ (mov r8, r8)
1000240c:	46c0      	nop			@ (mov r8, r8)
1000240e:	46c0      	nop			@ (mov r8, r8)

10002410 <pxCurrentTCBConst1>:
10002410:	20000b48 	.word	0x20000b48
	...

10002420 <isr_pendsv>:
10002420:	f3ef 8009 	mrs	r0, PSP
10002424:	4b16      	ldr	r3, [pc, #88]	@ (10002480 <pxCurrentTCBConst2>)
10002426:	681a      	ldr	r2, [r3, #0]
10002428:	3820      	subs	r0, #32
1000242a:	6010      	str	r0, [r2, #0]
1000242c:	c0f0      	stmia	r0!, {r4, r5, r6, r7}
1000242e:	4644      	mov	r4, r8
10002430:	464d      	mov	r5, r9
10002432:	4656      	mov	r6, sl
10002434:	465f      	mov	r7, fp
10002436:	c0f0      	stmia	r0!, {r4, r5, r6, r7}
10002438:	220d      	movs	r2, #13
1000243a:	0712      	lsls	r2, r2, #28
1000243c:	6e14      	ldr	r4, [r2, #96]	@ 0x60
1000243e:	6e55      	ldr	r5, [r2, #100]	@ 0x64
10002440:	6f56      	ldr	r6, [r2, #116]	@ 0x74
10002442:	6f17      	ldr	r7, [r2, #112]	@ 0x70
10002444:	3830      	subs	r0, #48	@ 0x30
10002446:	c0f0      	stmia	r0!, {r4, r5, r6, r7}
10002448:	b508      	push	{r3, lr}
1000244a:	b672      	cpsid	i
1000244c:	f7ff fb2a 	bl	10001aa4 <vTaskSwitchContext>
10002450:	b662      	cpsie	i
10002452:	bc0c      	pop	{r2, r3}
10002454:	6811      	ldr	r1, [r2, #0]
10002456:	6808      	ldr	r0, [r1, #0]
10002458:	3010      	adds	r0, #16
1000245a:	c8f0      	ldmia	r0!, {r4, r5, r6, r7}
1000245c:	46a0      	mov	r8, r4
1000245e:	46a9      	mov	r9, r5
10002460:	46b2      	mov	sl, r6
10002462:	46bb      	mov	fp, r7
10002464:	f380 8809 	msr	PSP, r0
10002468:	220d      	movs	r2, #13
1000246a:	0712      	lsls	r2, r2, #28
1000246c:	3830      	subs	r0, #48	@ 0x30
1000246e:	c8f0      	ldmia	r0!, {r4, r5, r6, r7}
10002470:	6614      	str	r4, [r2, #96]	@ 0x60
10002472:	6655      	str	r5, [r2, #100]	@ 0x64
10002474:	6756      	str	r6, [r2, #116]	@ 0x74
10002476:	6717      	str	r7, [r2, #112]	@ 0x70
10002478:	c8f0      	ldmia	r0!, {r4, r5, r6, r7}
1000247a:	4718      	bx	r3
1000247c:	46c0      	nop			@ (mov r8, r8)
1000247e:	46c0      	nop			@ (mov r8, r8)

10002480 <pxCurrentTCBConst2>:
10002480:	20000b48 	.word	0x20000b48

10002484 <prvTaskExitError>:
10002484:	b510      	push	{r4, lr}
10002486:	f000 f9ed 	bl	10002864 <panic_unsupported>
1000248a:	46c0      	nop			@ (mov r8, r8)

1000248c <isr_svcall>:
1000248c:	4770      	bx	lr
1000248e:	46c0      	nop			@ (mov r8, r8)

10002490 <pxPortInitialiseStack>:
10002490:	b510      	push	{r4, lr}
10002492:	2480      	movs	r4, #128	@ 0x80
10002494:	1f03      	subs	r3, r0, #4
10002496:	0464      	lsls	r4, r4, #17
10002498:	601c      	str	r4, [r3, #0]
1000249a:	3b04      	subs	r3, #4
1000249c:	6019      	str	r1, [r3, #0]
1000249e:	4903      	ldr	r1, [pc, #12]	@ (100024ac <pxPortInitialiseStack+0x1c>)
100024a0:	3b04      	subs	r3, #4
100024a2:	6019      	str	r1, [r3, #0]
100024a4:	3b14      	subs	r3, #20
100024a6:	3840      	subs	r0, #64	@ 0x40
100024a8:	601a      	str	r2, [r3, #0]
100024aa:	bd10      	pop	{r4, pc}
100024ac:	10002485 	.word	0x10002485

100024b0 <vPortYield>:
100024b0:	2280      	movs	r2, #128	@ 0x80
100024b2:	4b04      	ldr	r3, [pc, #16]	@ (100024c4 <vPortYield+0x14>)
100024b4:	0552      	lsls	r2, r2, #21
100024b6:	601a      	str	r2, [r3, #0]
100024b8:	f3bf 8f4f 	dsb	sy
100024bc:	f3bf 8f6f 	isb	sy
100024c0:	4770      	bx	lr
100024c2:	46c0      	nop			@ (mov r8, r8)
100024c4:	e000ed04 	.word	0xe000ed04

100024c8 <vPortEnterCritical>:
100024c8:	b672      	cpsid	i
100024ca:	4a04      	ldr	r2, [pc, #16]	@ (100024dc <vPortEnterCritical+0x14>)
100024cc:	6813      	ldr	r3, [r2, #0]
100024ce:	3301      	adds	r3, #1
100024d0:	6013      	str	r3, [r2, #0]
100024d2:	f3bf 8f4f 	dsb	sy
100024d6:	f3bf 8f6f 	isb	sy
100024da:	4770      	bx	lr
100024dc:	200089f4 	.word	0x200089f4

100024e0 <vPortExitCritical>:
100024e0:	4a03      	ldr	r2, [pc, #12]	@ (100024f0 <vPortExitCritical+0x10>)
100024e2:	6813      	ldr	r3, [r2, #0]
100024e4:	3b01      	subs	r3, #1
100024e6:	6013      	str	r3, [r2, #0]
100024e8:	2b00      	cmp	r3, #0
100024ea:	d100      	bne.n	100024ee <vPortExitCritical+0xe>
100024ec:	b662      	cpsie	i
100024ee:	4770      	bx	lr
100024f0:	200089f4 	.word	0x200089f4

100024f4 <ulSetInterruptMaskFromISR>:
100024f4:	f3ef 8010 	mrs	r0, PRIMASK
100024f8:	b672      	cpsid	i
100024fa:	4770      	bx	lr

100024fc <vClearInterruptMaskFromISR>:
100024fc:	f380 8810 	msr	PRIMASK, r0
10002500:	4770      	bx	lr
10002502:	46c0      	nop			@ (mov r8, r8)

10002504 <isr_systick>:
10002504:	b510      	push	{r4, lr}
10002506:	f7ff fff5 	bl	100024f4 <ulSetInterruptMaskFromISR>
1000250a:	0004      	movs	r4, r0
1000250c:	f7ff fab8 	bl	10001a80 <xTaskIncrementTick>
10002510:	2800      	cmp	r0, #0
10002512:	d003      	beq.n	1000251c <isr_systick+0x18>
10002514:	2280      	movs	r2, #128	@ 0x80
10002516:	4b03      	ldr	r3, [pc, #12]	@ (10002524 <isr_systick+0x20>)
10002518:	0552      	lsls	r2, r2, #21
1000251a:	601a      	str	r2, [r3, #0]
1000251c:	0020      	movs	r0, r4
1000251e:	f7ff ffed 	bl	100024fc <vClearInterruptMaskFromISR>
10002522:	bd10      	pop	{r4, pc}
10002524:	e000ed04 	.word	0xe000ed04

10002528 <vPortSetupTimerInterrupt>:
10002528:	2300      	movs	r3, #0
1000252a:	b510      	push	{r4, lr}
1000252c:	4a08      	ldr	r2, [pc, #32]	@ (10002550 <vPortSetupTimerInterrupt+0x28>)
1000252e:	4c09      	ldr	r4, [pc, #36]	@ (10002554 <vPortSetupTimerInterrupt+0x2c>)
10002530:	2005      	movs	r0, #5
10002532:	6023      	str	r3, [r4, #0]
10002534:	6013      	str	r3, [r2, #0]
10002536:	f001 f881 	bl	1000363c <clock_get_hz>
1000253a:	21fa      	movs	r1, #250	@ 0xfa
1000253c:	0089      	lsls	r1, r1, #2
1000253e:	f001 fa77 	bl	10003a30 <__wrap___aeabi_uidiv>
10002542:	4b05      	ldr	r3, [pc, #20]	@ (10002558 <vPortSetupTimerInterrupt+0x30>)
10002544:	3801      	subs	r0, #1
10002546:	6018      	str	r0, [r3, #0]
10002548:	2307      	movs	r3, #7
1000254a:	6023      	str	r3, [r4, #0]
1000254c:	bd10      	pop	{r4, pc}
1000254e:	46c0      	nop			@ (mov r8, r8)
10002550:	e000e018 	.word	0xe000e018
10002554:	e000e010 	.word	0xe000e010
10002558:	e000e014 	.word	0xe000e014

1000255c <xPortStartScheduler>:
1000255c:	22ff      	movs	r2, #255	@ 0xff
1000255e:	4b13      	ldr	r3, [pc, #76]	@ (100025ac <xPortStartScheduler+0x50>)
10002560:	0412      	lsls	r2, r2, #16
10002562:	6819      	ldr	r1, [r3, #0]
10002564:	b510      	push	{r4, lr}
10002566:	430a      	orrs	r2, r1
10002568:	601a      	str	r2, [r3, #0]
1000256a:	22ff      	movs	r2, #255	@ 0xff
1000256c:	6819      	ldr	r1, [r3, #0]
1000256e:	0612      	lsls	r2, r2, #24
10002570:	430a      	orrs	r2, r1
10002572:	601a      	str	r2, [r3, #0]
10002574:	490e      	ldr	r1, [pc, #56]	@ (100025b0 <xPortStartScheduler+0x54>)
10002576:	200e      	movs	r0, #14
10002578:	f003 fddc 	bl	10006134 <exception_set_exclusive_handler>
1000257c:	490d      	ldr	r1, [pc, #52]	@ (100025b4 <xPortStartScheduler+0x58>)
1000257e:	200f      	movs	r0, #15
10002580:	f003 fdd8 	bl	10006134 <exception_set_exclusive_handler>
10002584:	490c      	ldr	r1, [pc, #48]	@ (100025b8 <xPortStartScheduler+0x5c>)
10002586:	200b      	movs	r0, #11
10002588:	f003 fdd4 	bl	10006134 <exception_set_exclusive_handler>
1000258c:	f7ff ffcc 	bl	10002528 <vPortSetupTimerInterrupt>
10002590:	2200      	movs	r2, #0
10002592:	4b0a      	ldr	r3, [pc, #40]	@ (100025bc <xPortStartScheduler+0x60>)
10002594:	601a      	str	r2, [r3, #0]
10002596:	22d0      	movs	r2, #208	@ 0xd0
10002598:	0612      	lsls	r2, r2, #24
1000259a:	4b09      	ldr	r3, [pc, #36]	@ (100025c0 <xPortStartScheduler+0x64>)
1000259c:	6812      	ldr	r2, [r2, #0]
1000259e:	701a      	strb	r2, [r3, #0]
100025a0:	f7ff ff1e 	bl	100023e0 <vPortStartFirstTask>
100025a4:	f7ff fa7e 	bl	10001aa4 <vTaskSwitchContext>
100025a8:	f000 f95c 	bl	10002864 <panic_unsupported>
100025ac:	e000ed20 	.word	0xe000ed20
100025b0:	10002421 	.word	0x10002421
100025b4:	10002505 	.word	0x10002505
100025b8:	1000248d 	.word	0x1000248d
100025bc:	200089f4 	.word	0x200089f4
100025c0:	200003b8 	.word	0x200003b8

100025c4 <prvRuntimeInitializer>:
100025c4:	b510      	push	{r4, lr}
100025c6:	f000 f975 	bl	100028b4 <next_striped_spin_lock_num>
100025ca:	4a06      	ldr	r2, [pc, #24]	@ (100025e4 <prvRuntimeInitializer+0x20>)
100025cc:	4b06      	ldr	r3, [pc, #24]	@ (100025e8 <prvRuntimeInitializer+0x24>)
100025ce:	4694      	mov	ip, r2
100025d0:	4460      	add	r0, ip
100025d2:	0080      	lsls	r0, r0, #2
100025d4:	6018      	str	r0, [r3, #0]
100025d6:	4805      	ldr	r0, [pc, #20]	@ (100025ec <prvRuntimeInitializer+0x28>)
100025d8:	f7ff fef2 	bl	100023c0 <xEventGroupCreateStatic>
100025dc:	4b04      	ldr	r3, [pc, #16]	@ (100025f0 <prvRuntimeInitializer+0x2c>)
100025de:	6018      	str	r0, [r3, #0]
100025e0:	bd10      	pop	{r4, pc}
100025e2:	46c0      	nop			@ (mov r8, r8)
100025e4:	34000040 	.word	0x34000040
100025e8:	20000b44 	.word	0x20000b44
100025ec:	20008aa4 	.word	0x20008aa4
100025f0:	20008a5c 	.word	0x20008a5c

100025f4 <pvPortMalloc>:
100025f4:	b5f0      	push	{r4, r5, r6, r7, lr}
100025f6:	46c6      	mov	lr, r8
100025f8:	1e43      	subs	r3, r0, #1
100025fa:	b500      	push	{lr}
100025fc:	330a      	adds	r3, #10
100025fe:	d815      	bhi.n	1000262c <pvPortMalloc+0x38>
10002600:	2307      	movs	r3, #7
10002602:	0004      	movs	r4, r0
10002604:	001a      	movs	r2, r3
10002606:	3408      	adds	r4, #8
10002608:	4022      	ands	r2, r4
1000260a:	4223      	tst	r3, r4
1000260c:	d100      	bne.n	10002610 <pvPortMalloc+0x1c>
1000260e:	e072      	b.n	100026f6 <pvPortMalloc+0x102>
10002610:	0013      	movs	r3, r2
10002612:	3b09      	subs	r3, #9
10002614:	42a3      	cmp	r3, r4
10002616:	d309      	bcc.n	1000262c <pvPortMalloc+0x38>
10002618:	3010      	adds	r0, #16
1000261a:	1a84      	subs	r4, r0, r2
1000261c:	f7ff f8c8 	bl	100017b0 <vTaskSuspendAll>
10002620:	4a3a      	ldr	r2, [pc, #232]	@ (1000270c <pvPortMalloc+0x118>)
10002622:	0027      	movs	r7, r4
10002624:	6815      	ldr	r5, [r2, #0]
10002626:	2d00      	cmp	r5, #0
10002628:	d12a      	bne.n	10002680 <pvPortMalloc+0x8c>
1000262a:	e010      	b.n	1000264e <pvPortMalloc+0x5a>
1000262c:	f7ff f8c0 	bl	100017b0 <vTaskSuspendAll>
10002630:	4a36      	ldr	r2, [pc, #216]	@ (1000270c <pvPortMalloc+0x118>)
10002632:	6813      	ldr	r3, [r2, #0]
10002634:	2b00      	cmp	r3, #0
10002636:	d008      	beq.n	1000264a <pvPortMalloc+0x56>
10002638:	f7ff f8c2 	bl	100017c0 <xTaskResumeAll>
1000263c:	2500      	movs	r5, #0
1000263e:	f7fd ff5b 	bl	100004f8 <vApplicationMallocFailedHook>
10002642:	0028      	movs	r0, r5
10002644:	bc80      	pop	{r7}
10002646:	46b8      	mov	r8, r7
10002648:	bdf0      	pop	{r4, r5, r6, r7, pc}
1000264a:	2700      	movs	r7, #0
1000264c:	2400      	movs	r4, #0
1000264e:	2007      	movs	r0, #7
10002650:	4d2f      	ldr	r5, [pc, #188]	@ (10002710 <pvPortMalloc+0x11c>)
10002652:	002b      	movs	r3, r5
10002654:	0029      	movs	r1, r5
10002656:	4228      	tst	r0, r5
10002658:	d149      	bne.n	100026ee <pvPortMalloc+0xfa>
1000265a:	2000      	movs	r0, #0
1000265c:	4e2d      	ldr	r6, [pc, #180]	@ (10002714 <pvPortMalloc+0x120>)
1000265e:	6070      	str	r0, [r6, #4]
10002660:	6031      	str	r1, [r6, #0]
10002662:	4e2d      	ldr	r6, [pc, #180]	@ (10002718 <pvPortMalloc+0x124>)
10002664:	46b4      	mov	ip, r6
10002666:	2607      	movs	r6, #7
10002668:	4465      	add	r5, ip
1000266a:	43b5      	bics	r5, r6
1000266c:	6015      	str	r5, [r2, #0]
1000266e:	4a2b      	ldr	r2, [pc, #172]	@ (1000271c <pvPortMalloc+0x128>)
10002670:	1aeb      	subs	r3, r5, r3
10002672:	6013      	str	r3, [r2, #0]
10002674:	4a2a      	ldr	r2, [pc, #168]	@ (10002720 <pvPortMalloc+0x12c>)
10002676:	6068      	str	r0, [r5, #4]
10002678:	6028      	str	r0, [r5, #0]
1000267a:	6013      	str	r3, [r2, #0]
1000267c:	604b      	str	r3, [r1, #4]
1000267e:	600d      	str	r5, [r1, #0]
10002680:	2f00      	cmp	r7, #0
10002682:	dbd9      	blt.n	10002638 <pvPortMalloc+0x44>
10002684:	2c00      	cmp	r4, #0
10002686:	d0d7      	beq.n	10002638 <pvPortMalloc+0x44>
10002688:	4f25      	ldr	r7, [pc, #148]	@ (10002720 <pvPortMalloc+0x12c>)
1000268a:	683e      	ldr	r6, [r7, #0]
1000268c:	42a6      	cmp	r6, r4
1000268e:	d3d3      	bcc.n	10002638 <pvPortMalloc+0x44>
10002690:	4820      	ldr	r0, [pc, #128]	@ (10002714 <pvPortMalloc+0x120>)
10002692:	6803      	ldr	r3, [r0, #0]
10002694:	e004      	b.n	100026a0 <pvPortMalloc+0xac>
10002696:	681a      	ldr	r2, [r3, #0]
10002698:	2a00      	cmp	r2, #0
1000269a:	d004      	beq.n	100026a6 <pvPortMalloc+0xb2>
1000269c:	0018      	movs	r0, r3
1000269e:	0013      	movs	r3, r2
100026a0:	6859      	ldr	r1, [r3, #4]
100026a2:	42a1      	cmp	r1, r4
100026a4:	d3f7      	bcc.n	10002696 <pvPortMalloc+0xa2>
100026a6:	42ab      	cmp	r3, r5
100026a8:	d0c6      	beq.n	10002638 <pvPortMalloc+0x44>
100026aa:	001d      	movs	r5, r3
100026ac:	681a      	ldr	r2, [r3, #0]
100026ae:	3508      	adds	r5, #8
100026b0:	4690      	mov	r8, r2
100026b2:	6002      	str	r2, [r0, #0]
100026b4:	1b0a      	subs	r2, r1, r4
100026b6:	2a10      	cmp	r2, #16
100026b8:	d905      	bls.n	100026c6 <pvPortMalloc+0xd2>
100026ba:	1919      	adds	r1, r3, r4
100026bc:	604a      	str	r2, [r1, #4]
100026be:	4642      	mov	r2, r8
100026c0:	600a      	str	r2, [r1, #0]
100026c2:	6001      	str	r1, [r0, #0]
100026c4:	0021      	movs	r1, r4
100026c6:	4a15      	ldr	r2, [pc, #84]	@ (1000271c <pvPortMalloc+0x128>)
100026c8:	1a76      	subs	r6, r6, r1
100026ca:	6810      	ldr	r0, [r2, #0]
100026cc:	603e      	str	r6, [r7, #0]
100026ce:	4286      	cmp	r6, r0
100026d0:	d200      	bcs.n	100026d4 <pvPortMalloc+0xe0>
100026d2:	6016      	str	r6, [r2, #0]
100026d4:	2280      	movs	r2, #128	@ 0x80
100026d6:	0612      	lsls	r2, r2, #24
100026d8:	430a      	orrs	r2, r1
100026da:	605a      	str	r2, [r3, #4]
100026dc:	2200      	movs	r2, #0
100026de:	601a      	str	r2, [r3, #0]
100026e0:	4a10      	ldr	r2, [pc, #64]	@ (10002724 <pvPortMalloc+0x130>)
100026e2:	6813      	ldr	r3, [r2, #0]
100026e4:	3301      	adds	r3, #1
100026e6:	6013      	str	r3, [r2, #0]
100026e8:	f7ff f86a 	bl	100017c0 <xTaskResumeAll>
100026ec:	e7a9      	b.n	10002642 <pvPortMalloc+0x4e>
100026ee:	1deb      	adds	r3, r5, #7
100026f0:	4383      	bics	r3, r0
100026f2:	0019      	movs	r1, r3
100026f4:	e7b1      	b.n	1000265a <pvPortMalloc+0x66>
100026f6:	f7ff f85b 	bl	100017b0 <vTaskSuspendAll>
100026fa:	4a04      	ldr	r2, [pc, #16]	@ (1000270c <pvPortMalloc+0x118>)
100026fc:	0027      	movs	r7, r4
100026fe:	6815      	ldr	r5, [r2, #0]
10002700:	2d00      	cmp	r5, #0
10002702:	d0a4      	beq.n	1000264e <pvPortMalloc+0x5a>
10002704:	2c00      	cmp	r4, #0
10002706:	dabf      	bge.n	10002688 <pvPortMalloc+0x94>
10002708:	e796      	b.n	10002638 <pvPortMalloc+0x44>
1000270a:	46c0      	nop			@ (mov r8, r8)
1000270c:	20000b54 	.word	0x20000b54
10002710:	20001154 	.word	0x20001154
10002714:	20008a9c 	.word	0x20008a9c
10002718:	000077f8 	.word	0x000077f8
1000271c:	20008a6c 	.word	0x20008a6c
10002720:	20008a60 	.word	0x20008a60
10002724:	20008a78 	.word	0x20008a78

10002728 <vPortFree>:
10002728:	b570      	push	{r4, r5, r6, lr}
1000272a:	2800      	cmp	r0, #0
1000272c:	d004      	beq.n	10002738 <vPortFree+0x10>
1000272e:	3808      	subs	r0, #8
10002730:	6843      	ldr	r3, [r0, #4]
10002732:	0004      	movs	r4, r0
10002734:	2b00      	cmp	r3, #0
10002736:	db00      	blt.n	1000273a <vPortFree+0x12>
10002738:	bd70      	pop	{r4, r5, r6, pc}
1000273a:	6802      	ldr	r2, [r0, #0]
1000273c:	2a00      	cmp	r2, #0
1000273e:	d1fb      	bne.n	10002738 <vPortFree+0x10>
10002740:	005b      	lsls	r3, r3, #1
10002742:	085b      	lsrs	r3, r3, #1
10002744:	6043      	str	r3, [r0, #4]
10002746:	0005      	movs	r5, r0
10002748:	f7ff f832 	bl	100017b0 <vTaskSuspendAll>
1000274c:	4a18      	ldr	r2, [pc, #96]	@ (100027b0 <vPortFree+0x88>)
1000274e:	6861      	ldr	r1, [r4, #4]
10002750:	6813      	ldr	r3, [r2, #0]
10002752:	185b      	adds	r3, r3, r1
10002754:	6013      	str	r3, [r2, #0]
10002756:	4b17      	ldr	r3, [pc, #92]	@ (100027b4 <vPortFree+0x8c>)
10002758:	001a      	movs	r2, r3
1000275a:	681b      	ldr	r3, [r3, #0]
1000275c:	429c      	cmp	r4, r3
1000275e:	d8fb      	bhi.n	10002758 <vPortFree+0x30>
10002760:	6850      	ldr	r0, [r2, #4]
10002762:	1816      	adds	r6, r2, r0
10002764:	42b4      	cmp	r4, r6
10002766:	d00d      	beq.n	10002784 <vPortFree+0x5c>
10002768:	1860      	adds	r0, r4, r1
1000276a:	4283      	cmp	r3, r0
1000276c:	d01a      	beq.n	100027a4 <vPortFree+0x7c>
1000276e:	6023      	str	r3, [r4, #0]
10002770:	42aa      	cmp	r2, r5
10002772:	d000      	beq.n	10002776 <vPortFree+0x4e>
10002774:	6015      	str	r5, [r2, #0]
10002776:	4a10      	ldr	r2, [pc, #64]	@ (100027b8 <vPortFree+0x90>)
10002778:	6813      	ldr	r3, [r2, #0]
1000277a:	3301      	adds	r3, #1
1000277c:	6013      	str	r3, [r2, #0]
1000277e:	f7ff f81f 	bl	100017c0 <xTaskResumeAll>
10002782:	e7d9      	b.n	10002738 <vPortFree+0x10>
10002784:	1809      	adds	r1, r1, r0
10002786:	1850      	adds	r0, r2, r1
10002788:	6051      	str	r1, [r2, #4]
1000278a:	4283      	cmp	r3, r0
1000278c:	d1f3      	bne.n	10002776 <vPortFree+0x4e>
1000278e:	480b      	ldr	r0, [pc, #44]	@ (100027bc <vPortFree+0x94>)
10002790:	0015      	movs	r5, r2
10002792:	6800      	ldr	r0, [r0, #0]
10002794:	4298      	cmp	r0, r3
10002796:	d0ee      	beq.n	10002776 <vPortFree+0x4e>
10002798:	6858      	ldr	r0, [r3, #4]
1000279a:	681b      	ldr	r3, [r3, #0]
1000279c:	1841      	adds	r1, r0, r1
1000279e:	6069      	str	r1, [r5, #4]
100027a0:	602b      	str	r3, [r5, #0]
100027a2:	e7e5      	b.n	10002770 <vPortFree+0x48>
100027a4:	4805      	ldr	r0, [pc, #20]	@ (100027bc <vPortFree+0x94>)
100027a6:	6800      	ldr	r0, [r0, #0]
100027a8:	4283      	cmp	r3, r0
100027aa:	d1f5      	bne.n	10002798 <vPortFree+0x70>
100027ac:	e7df      	b.n	1000276e <vPortFree+0x46>
100027ae:	46c0      	nop			@ (mov r8, r8)
100027b0:	20008a60 	.word	0x20008a60
100027b4:	20008a9c 	.word	0x20008a9c
100027b8:	20008a7c 	.word	0x20008a7c
100027bc:	20000b54 	.word	0x20000b54

100027c0 <gpio_set_function>:
100027c0:	4a09      	ldr	r2, [pc, #36]	@ (100027e8 <gpio_set_function+0x28>)
100027c2:	0083      	lsls	r3, r0, #2
100027c4:	189a      	adds	r2, r3, r2
100027c6:	b510      	push	{r4, lr}
100027c8:	6814      	ldr	r4, [r2, #0]
100027ca:	2240      	movs	r2, #64	@ 0x40
100027cc:	4054      	eors	r4, r2
100027ce:	3280      	adds	r2, #128	@ 0x80
100027d0:	4022      	ands	r2, r4
100027d2:	4c06      	ldr	r4, [pc, #24]	@ (100027ec <gpio_set_function+0x2c>)
100027d4:	00c0      	lsls	r0, r0, #3
100027d6:	46a4      	mov	ip, r4
100027d8:	4463      	add	r3, ip
100027da:	601a      	str	r2, [r3, #0]
100027dc:	4b04      	ldr	r3, [pc, #16]	@ (100027f0 <gpio_set_function+0x30>)
100027de:	469c      	mov	ip, r3
100027e0:	4460      	add	r0, ip
100027e2:	6041      	str	r1, [r0, #4]
100027e4:	bd10      	pop	{r4, pc}
100027e6:	46c0      	nop			@ (mov r8, r8)
100027e8:	4001c004 	.word	0x4001c004
100027ec:	4001d004 	.word	0x4001d004
100027f0:	40014000 	.word	0x40014000

100027f4 <gpio_init>:
100027f4:	2301      	movs	r3, #1
100027f6:	22d0      	movs	r2, #208	@ 0xd0
100027f8:	4083      	lsls	r3, r0
100027fa:	0612      	lsls	r2, r2, #24
100027fc:	6293      	str	r3, [r2, #40]	@ 0x28
100027fe:	6193      	str	r3, [r2, #24]
10002800:	4a09      	ldr	r2, [pc, #36]	@ (10002828 <gpio_init+0x34>)
10002802:	0083      	lsls	r3, r0, #2
10002804:	189a      	adds	r2, r3, r2
10002806:	6811      	ldr	r1, [r2, #0]
10002808:	2240      	movs	r2, #64	@ 0x40
1000280a:	4051      	eors	r1, r2
1000280c:	3280      	adds	r2, #128	@ 0x80
1000280e:	400a      	ands	r2, r1
10002810:	4906      	ldr	r1, [pc, #24]	@ (1000282c <gpio_init+0x38>)
10002812:	00c0      	lsls	r0, r0, #3
10002814:	468c      	mov	ip, r1
10002816:	4463      	add	r3, ip
10002818:	601a      	str	r2, [r3, #0]
1000281a:	4b05      	ldr	r3, [pc, #20]	@ (10002830 <gpio_init+0x3c>)
1000281c:	469c      	mov	ip, r3
1000281e:	2305      	movs	r3, #5
10002820:	4460      	add	r0, ip
10002822:	6043      	str	r3, [r0, #4]
10002824:	4770      	bx	lr
10002826:	46c0      	nop			@ (mov r8, r8)
10002828:	4001c004 	.word	0x4001c004
1000282c:	4001d004 	.word	0x4001d004
10002830:	40014000 	.word	0x40014000

10002834 <panic>:
10002834:	b40f      	push	{r0, r1, r2, r3}
10002836:	b500      	push	{lr}
10002838:	4808      	ldr	r0, [pc, #32]	@ (1000285c <panic+0x28>)
1000283a:	b083      	sub	sp, #12
1000283c:	f003 face 	bl	10005ddc <__wrap_puts>
10002840:	9b04      	ldr	r3, [sp, #16]
10002842:	2b00      	cmp	r3, #0
10002844:	d007      	beq.n	10002856 <panic+0x22>
10002846:	a905      	add	r1, sp, #20
10002848:	0018      	movs	r0, r3
1000284a:	9101      	str	r1, [sp, #4]
1000284c:	f003 f91a 	bl	10005a84 <weak_raw_vprintf>
10002850:	4803      	ldr	r0, [pc, #12]	@ (10002860 <panic+0x2c>)
10002852:	f003 fac3 	bl	10005ddc <__wrap_puts>
10002856:	2001      	movs	r0, #1
10002858:	f003 f92c 	bl	10005ab4 <_exit>
1000285c:	100062d0 	.word	0x100062d0
10002860:	100062e0 	.word	0x100062e0

10002864 <panic_unsupported>:
10002864:	b510      	push	{r4, lr}
10002866:	4801      	ldr	r0, [pc, #4]	@ (1000286c <panic_unsupported+0x8>)
10002868:	f7ff ffe4 	bl	10002834 <panic>
1000286c:	100062e4 	.word	0x100062e4

10002870 <hw_claim_or_assert>:
10002870:	b570      	push	{r4, r5, r6, lr}
10002872:	f3ef 8c10 	mrs	ip, PRIMASK
10002876:	b672      	cpsid	i
10002878:	4d0d      	ldr	r5, [pc, #52]	@ (100028b0 <hw_claim_or_assert+0x40>)
1000287a:	682b      	ldr	r3, [r5, #0]
1000287c:	2b00      	cmp	r3, #0
1000287e:	d0fc      	beq.n	1000287a <hw_claim_or_assert+0xa>
10002880:	f3bf 8f5f 	dmb	sy
10002884:	2407      	movs	r4, #7
10002886:	08cb      	lsrs	r3, r1, #3
10002888:	18c6      	adds	r6, r0, r3
1000288a:	5cc0      	ldrb	r0, [r0, r3]
1000288c:	2301      	movs	r3, #1
1000288e:	400c      	ands	r4, r1
10002890:	40a3      	lsls	r3, r4
10002892:	001c      	movs	r4, r3
10002894:	4004      	ands	r4, r0
10002896:	4203      	tst	r3, r0
10002898:	d107      	bne.n	100028aa <hw_claim_or_assert+0x3a>
1000289a:	4318      	orrs	r0, r3
1000289c:	7030      	strb	r0, [r6, #0]
1000289e:	f3bf 8f5f 	dmb	sy
100028a2:	602c      	str	r4, [r5, #0]
100028a4:	f38c 8810 	msr	PRIMASK, ip
100028a8:	bd70      	pop	{r4, r5, r6, pc}
100028aa:	0010      	movs	r0, r2
100028ac:	f7ff ffc2 	bl	10002834 <panic>
100028b0:	d000012c 	.word	0xd000012c

100028b4 <next_striped_spin_lock_num>:
100028b4:	4a04      	ldr	r2, [pc, #16]	@ (100028c8 <next_striped_spin_lock_num+0x14>)
100028b6:	7810      	ldrb	r0, [r2, #0]
100028b8:	1c43      	adds	r3, r0, #1
100028ba:	b2db      	uxtb	r3, r3
100028bc:	2b17      	cmp	r3, #23
100028be:	d900      	bls.n	100028c2 <next_striped_spin_lock_num+0xe>
100028c0:	2310      	movs	r3, #16
100028c2:	7013      	strb	r3, [r2, #0]
100028c4:	4770      	bx	lr
100028c6:	46c0      	nop			@ (mov r8, r8)
100028c8:	200003b9 	.word	0x200003b9

100028cc <spin_locks_reset>:
100028cc:	2100      	movs	r1, #0
100028ce:	4b04      	ldr	r3, [pc, #16]	@ (100028e0 <spin_locks_reset+0x14>)
100028d0:	4a04      	ldr	r2, [pc, #16]	@ (100028e4 <spin_locks_reset+0x18>)
100028d2:	f3bf 8f5f 	dmb	sy
100028d6:	c302      	stmia	r3!, {r1}
100028d8:	4293      	cmp	r3, r2
100028da:	d1fa      	bne.n	100028d2 <spin_locks_reset+0x6>
100028dc:	4770      	bx	lr
100028de:	46c0      	nop			@ (mov r8, r8)
100028e0:	d0000100 	.word	0xd0000100
100028e4:	d0000180 	.word	0xd0000180

100028e8 <runtime_init_per_core_irq_priorities>:
100028e8:	4b05      	ldr	r3, [pc, #20]	@ (10002900 <runtime_init_per_core_irq_priorities+0x18>)
100028ea:	4a06      	ldr	r2, [pc, #24]	@ (10002904 <runtime_init_per_core_irq_priorities+0x1c>)
100028ec:	6013      	str	r3, [r2, #0]
100028ee:	4a06      	ldr	r2, [pc, #24]	@ (10002908 <runtime_init_per_core_irq_priorities+0x20>)
100028f0:	6013      	str	r3, [r2, #0]
100028f2:	6053      	str	r3, [r2, #4]
100028f4:	6093      	str	r3, [r2, #8]
100028f6:	60d3      	str	r3, [r2, #12]
100028f8:	6113      	str	r3, [r2, #16]
100028fa:	6153      	str	r3, [r2, #20]
100028fc:	6193      	str	r3, [r2, #24]
100028fe:	4770      	bx	lr
10002900:	80808080 	.word	0x80808080
10002904:	e000e400 	.word	0xe000e400
10002908:	e000e404 	.word	0xe000e404

1000290c <irq_set_enabled>:
1000290c:	231f      	movs	r3, #31
1000290e:	4018      	ands	r0, r3
10002910:	3b1e      	subs	r3, #30
10002912:	4083      	lsls	r3, r0
10002914:	2900      	cmp	r1, #0
10002916:	d005      	beq.n	10002924 <irq_set_enabled+0x18>
10002918:	21c0      	movs	r1, #192	@ 0xc0
1000291a:	4a04      	ldr	r2, [pc, #16]	@ (1000292c <irq_set_enabled+0x20>)
1000291c:	0049      	lsls	r1, r1, #1
1000291e:	5053      	str	r3, [r2, r1]
10002920:	6013      	str	r3, [r2, #0]
10002922:	4770      	bx	lr
10002924:	2280      	movs	r2, #128	@ 0x80
10002926:	4901      	ldr	r1, [pc, #4]	@ (1000292c <irq_set_enabled+0x20>)
10002928:	508b      	str	r3, [r1, r2]
1000292a:	e7fa      	b.n	10002922 <irq_set_enabled+0x16>
1000292c:	e000e100 	.word	0xe000e100

10002930 <irq_set_exclusive_handler>:
10002930:	b570      	push	{r4, r5, r6, lr}
10002932:	000d      	movs	r5, r1
10002934:	f3ef 8610 	mrs	r6, PRIMASK
10002938:	b672      	cpsid	i
1000293a:	4a0f      	ldr	r2, [pc, #60]	@ (10002978 <irq_set_exclusive_handler+0x48>)
1000293c:	6813      	ldr	r3, [r2, #0]
1000293e:	2b00      	cmp	r3, #0
10002940:	d0fc      	beq.n	1000293c <irq_set_exclusive_handler+0xc>
10002942:	f3bf 8f5f 	dmb	sy
10002946:	4b0d      	ldr	r3, [pc, #52]	@ (1000297c <irq_set_exclusive_handler+0x4c>)
10002948:	3010      	adds	r0, #16
1000294a:	689b      	ldr	r3, [r3, #8]
1000294c:	0084      	lsls	r4, r0, #2
1000294e:	591b      	ldr	r3, [r3, r4]
10002950:	4a0b      	ldr	r2, [pc, #44]	@ (10002980 <irq_set_exclusive_handler+0x50>)
10002952:	4293      	cmp	r3, r2
10002954:	d003      	beq.n	1000295e <irq_set_exclusive_handler+0x2e>
10002956:	429d      	cmp	r5, r3
10002958:	d001      	beq.n	1000295e <irq_set_exclusive_handler+0x2e>
1000295a:	f000 ff17 	bl	1000378c <hard_assertion_failure>
1000295e:	4b07      	ldr	r3, [pc, #28]	@ (1000297c <irq_set_exclusive_handler+0x4c>)
10002960:	689b      	ldr	r3, [r3, #8]
10002962:	511d      	str	r5, [r3, r4]
10002964:	f3bf 8f5f 	dmb	sy
10002968:	f3bf 8f5f 	dmb	sy
1000296c:	2200      	movs	r2, #0
1000296e:	4b02      	ldr	r3, [pc, #8]	@ (10002978 <irq_set_exclusive_handler+0x48>)
10002970:	601a      	str	r2, [r3, #0]
10002972:	f386 8810 	msr	PRIMASK, r6
10002976:	bd70      	pop	{r4, r5, r6, pc}
10002978:	d0000124 	.word	0xd0000124
1000297c:	e000ed00 	.word	0xe000ed00
10002980:	100001c1 	.word	0x100001c1

10002984 <irq_remove_handler>:
10002984:	b5f0      	push	{r4, r5, r6, r7, lr}
10002986:	46de      	mov	lr, fp
10002988:	4657      	mov	r7, sl
1000298a:	464e      	mov	r6, r9
1000298c:	4645      	mov	r5, r8
1000298e:	b5e0      	push	{r5, r6, r7, lr}
10002990:	000c      	movs	r4, r1
10002992:	b083      	sub	sp, #12
10002994:	f3ef 8810 	mrs	r8, PRIMASK
10002998:	b672      	cpsid	i
1000299a:	4a63      	ldr	r2, [pc, #396]	@ (10002b28 <irq_remove_handler+0x1a4>)
1000299c:	6813      	ldr	r3, [r2, #0]
1000299e:	2b00      	cmp	r3, #0
100029a0:	d0fc      	beq.n	1000299c <irq_remove_handler+0x18>
100029a2:	f3bf 8f5f 	dmb	sy
100029a6:	4b61      	ldr	r3, [pc, #388]	@ (10002b2c <irq_remove_handler+0x1a8>)
100029a8:	4961      	ldr	r1, [pc, #388]	@ (10002b30 <irq_remove_handler+0x1ac>)
100029aa:	689a      	ldr	r2, [r3, #8]
100029ac:	0003      	movs	r3, r0
100029ae:	3310      	adds	r3, #16
100029b0:	009f      	lsls	r7, r3, #2
100029b2:	59d5      	ldr	r5, [r2, r7]
100029b4:	9301      	str	r3, [sp, #4]
100029b6:	428d      	cmp	r5, r1
100029b8:	d043      	beq.n	10002a42 <irq_remove_handler+0xbe>
100029ba:	42a5      	cmp	r5, r4
100029bc:	d054      	beq.n	10002a68 <irq_remove_handler+0xe4>
100029be:	4e5d      	ldr	r6, [pc, #372]	@ (10002b34 <irq_remove_handler+0x1b0>)
100029c0:	1baa      	subs	r2, r5, r6
100029c2:	2a2f      	cmp	r2, #47	@ 0x2f
100029c4:	d83d      	bhi.n	10002a42 <irq_remove_handler+0xbe>
100029c6:	4b5c      	ldr	r3, [pc, #368]	@ (10002b38 <irq_remove_handler+0x1b4>)
100029c8:	469b      	mov	fp, r3
100029ca:	681b      	ldr	r3, [r3, #0]
100029cc:	4699      	mov	r9, r3
100029ce:	2301      	movs	r3, #1
100029d0:	001a      	movs	r2, r3
100029d2:	469c      	mov	ip, r3
100029d4:	4082      	lsls	r2, r0
100029d6:	464b      	mov	r3, r9
100029d8:	4013      	ands	r3, r2
100029da:	221f      	movs	r2, #31
100029dc:	4699      	mov	r9, r3
100029de:	4663      	mov	r3, ip
100029e0:	4002      	ands	r2, r0
100029e2:	4093      	lsls	r3, r2
100029e4:	469a      	mov	sl, r3
100029e6:	2280      	movs	r2, #128	@ 0x80
100029e8:	465b      	mov	r3, fp
100029ea:	4650      	mov	r0, sl
100029ec:	5098      	str	r0, [r3, r2]
100029ee:	f3bf 8f5f 	dmb	sy
100029f2:	f3ef 8305 	mrs	r3, IPSR
100029f6:	469b      	mov	fp, r3
100029f8:	2b00      	cmp	r3, #0
100029fa:	d037      	beq.n	10002a6c <irq_remove_handler+0xe8>
100029fc:	9b01      	ldr	r3, [sp, #4]
100029fe:	455b      	cmp	r3, fp
10002a00:	d001      	beq.n	10002a06 <irq_remove_handler+0x82>
10002a02:	f000 fec3 	bl	1000378c <hard_assertion_failure>
10002a06:	2301      	movs	r3, #1
10002a08:	002a      	movs	r2, r5
10002a0a:	439a      	bics	r2, r3
10002a0c:	6890      	ldr	r0, [r2, #8]
10002a0e:	4284      	cmp	r4, r0
10002a10:	d108      	bne.n	10002a24 <irq_remove_handler+0xa0>
10002a12:	e076      	b.n	10002b02 <irq_remove_handler+0x17e>
10002a14:	004b      	lsls	r3, r1, #1
10002a16:	185b      	adds	r3, r3, r1
10002a18:	009b      	lsls	r3, r3, #2
10002a1a:	18f3      	adds	r3, r6, r3
10002a1c:	6898      	ldr	r0, [r3, #8]
10002a1e:	4284      	cmp	r4, r0
10002a20:	d036      	beq.n	10002a90 <irq_remove_handler+0x10c>
10002a22:	001a      	movs	r2, r3
10002a24:	2106      	movs	r1, #6
10002a26:	5651      	ldrsb	r1, [r2, r1]
10002a28:	2900      	cmp	r1, #0
10002a2a:	daf3      	bge.n	10002a14 <irq_remove_handler+0x90>
10002a2c:	4284      	cmp	r4, r0
10002a2e:	d054      	beq.n	10002ada <irq_remove_handler+0x156>
10002a30:	464b      	mov	r3, r9
10002a32:	2b00      	cmp	r3, #0
10002a34:	d027      	beq.n	10002a86 <irq_remove_handler+0x102>
10002a36:	22c0      	movs	r2, #192	@ 0xc0
10002a38:	4651      	mov	r1, sl
10002a3a:	4b3f      	ldr	r3, [pc, #252]	@ (10002b38 <irq_remove_handler+0x1b4>)
10002a3c:	0052      	lsls	r2, r2, #1
10002a3e:	5099      	str	r1, [r3, r2]
10002a40:	6019      	str	r1, [r3, #0]
10002a42:	4b3a      	ldr	r3, [pc, #232]	@ (10002b2c <irq_remove_handler+0x1a8>)
10002a44:	689b      	ldr	r3, [r3, #8]
10002a46:	51dd      	str	r5, [r3, r7]
10002a48:	f3bf 8f5f 	dmb	sy
10002a4c:	f3bf 8f5f 	dmb	sy
10002a50:	2200      	movs	r2, #0
10002a52:	4b35      	ldr	r3, [pc, #212]	@ (10002b28 <irq_remove_handler+0x1a4>)
10002a54:	601a      	str	r2, [r3, #0]
10002a56:	f388 8810 	msr	PRIMASK, r8
10002a5a:	b003      	add	sp, #12
10002a5c:	bcf0      	pop	{r4, r5, r6, r7}
10002a5e:	46bb      	mov	fp, r7
10002a60:	46b2      	mov	sl, r6
10002a62:	46a9      	mov	r9, r5
10002a64:	46a0      	mov	r8, r4
10002a66:	bdf0      	pop	{r4, r5, r6, r7, pc}
10002a68:	000d      	movs	r5, r1
10002a6a:	e7ea      	b.n	10002a42 <irq_remove_handler+0xbe>
10002a6c:	002a      	movs	r2, r5
10002a6e:	4663      	mov	r3, ip
10002a70:	439a      	bics	r2, r3
10002a72:	6890      	ldr	r0, [r2, #8]
10002a74:	4284      	cmp	r4, r0
10002a76:	d1d5      	bne.n	10002a24 <irq_remove_handler+0xa0>
10002a78:	2006      	movs	r0, #6
10002a7a:	5610      	ldrsb	r0, [r2, r0]
10002a7c:	0013      	movs	r3, r2
10002a7e:	2800      	cmp	r0, #0
10002a80:	da0a      	bge.n	10002a98 <irq_remove_handler+0x114>
10002a82:	000d      	movs	r5, r1
10002a84:	e031      	b.n	10002aea <irq_remove_handler+0x166>
10002a86:	2380      	movs	r3, #128	@ 0x80
10002a88:	4651      	mov	r1, sl
10002a8a:	4a2b      	ldr	r2, [pc, #172]	@ (10002b38 <irq_remove_handler+0x1b4>)
10002a8c:	50d1      	str	r1, [r2, r3]
10002a8e:	e7d8      	b.n	10002a42 <irq_remove_handler+0xbe>
10002a90:	2006      	movs	r0, #6
10002a92:	5618      	ldrsb	r0, [r3, r0]
10002a94:	2800      	cmp	r0, #0
10002a96:	db21      	blt.n	10002adc <irq_remove_handler+0x158>
10002a98:	0042      	lsls	r2, r0, #1
10002a9a:	1811      	adds	r1, r2, r0
10002a9c:	0089      	lsls	r1, r1, #2
10002a9e:	1874      	adds	r4, r6, r1
10002aa0:	468b      	mov	fp, r1
10002aa2:	68a1      	ldr	r1, [r4, #8]
10002aa4:	6099      	str	r1, [r3, #8]
10002aa6:	79e1      	ldrb	r1, [r4, #7]
10002aa8:	71d9      	strb	r1, [r3, #7]
10002aaa:	2106      	movs	r1, #6
10002aac:	5661      	ldrsb	r1, [r4, r1]
10002aae:	7199      	strb	r1, [r3, #6]
10002ab0:	2900      	cmp	r1, #0
10002ab2:	db24      	blt.n	10002afe <irq_remove_handler+0x17a>
10002ab4:	88a4      	ldrh	r4, [r4, #4]
10002ab6:	1af1      	subs	r1, r6, r3
10002ab8:	0564      	lsls	r4, r4, #21
10002aba:	1524      	asrs	r4, r4, #20
10002abc:	445c      	add	r4, fp
10002abe:	1909      	adds	r1, r1, r4
10002ac0:	0509      	lsls	r1, r1, #20
10002ac2:	4c1e      	ldr	r4, [pc, #120]	@ (10002b3c <irq_remove_handler+0x1b8>)
10002ac4:	0d49      	lsrs	r1, r1, #21
10002ac6:	4321      	orrs	r1, r4
10002ac8:	8099      	strh	r1, [r3, #4]
10002aca:	1813      	adds	r3, r2, r0
10002acc:	4a1c      	ldr	r2, [pc, #112]	@ (10002b40 <irq_remove_handler+0x1bc>)
10002ace:	009b      	lsls	r3, r3, #2
10002ad0:	7811      	ldrb	r1, [r2, #0]
10002ad2:	18f3      	adds	r3, r6, r3
10002ad4:	7199      	strb	r1, [r3, #6]
10002ad6:	7010      	strb	r0, [r2, #0]
10002ad8:	e7aa      	b.n	10002a30 <irq_remove_handler+0xac>
10002ada:	0013      	movs	r3, r2
10002adc:	4659      	mov	r1, fp
10002ade:	2900      	cmp	r1, #0
10002ae0:	d114      	bne.n	10002b0c <irq_remove_handler+0x188>
10002ae2:	31ff      	adds	r1, #255	@ 0xff
10002ae4:	7191      	strb	r1, [r2, #6]
10002ae6:	4917      	ldr	r1, [pc, #92]	@ (10002b44 <irq_remove_handler+0x1c0>)
10002ae8:	8091      	strh	r1, [r2, #4]
10002aea:	4915      	ldr	r1, [pc, #84]	@ (10002b40 <irq_remove_handler+0x1bc>)
10002aec:	780a      	ldrb	r2, [r1, #0]
10002aee:	719a      	strb	r2, [r3, #6]
10002af0:	4a15      	ldr	r2, [pc, #84]	@ (10002b48 <irq_remove_handler+0x1c4>)
10002af2:	1b9b      	subs	r3, r3, r6
10002af4:	415b      	adcs	r3, r3
10002af6:	435a      	muls	r2, r3
10002af8:	0d12      	lsrs	r2, r2, #20
10002afa:	700a      	strb	r2, [r1, #0]
10002afc:	e798      	b.n	10002a30 <irq_remove_handler+0xac>
10002afe:	4911      	ldr	r1, [pc, #68]	@ (10002b44 <irq_remove_handler+0x1c0>)
10002b00:	e7e2      	b.n	10002ac8 <irq_remove_handler+0x144>
10002b02:	2006      	movs	r0, #6
10002b04:	5610      	ldrsb	r0, [r2, r0]
10002b06:	0013      	movs	r3, r2
10002b08:	2800      	cmp	r0, #0
10002b0a:	dac5      	bge.n	10002a98 <irq_remove_handler+0x114>
10002b0c:	4a0f      	ldr	r2, [pc, #60]	@ (10002b4c <irq_remove_handler+0x1c8>)
10002b0e:	4910      	ldr	r1, [pc, #64]	@ (10002b50 <irq_remove_handler+0x1cc>)
10002b10:	1ad2      	subs	r2, r2, r3
10002b12:	3a08      	subs	r2, #8
10002b14:	0250      	lsls	r0, r2, #9
10002b16:	0d40      	lsrs	r0, r0, #21
10002b18:	4301      	orrs	r1, r0
10002b1a:	8099      	strh	r1, [r3, #4]
10002b1c:	490d      	ldr	r1, [pc, #52]	@ (10002b54 <irq_remove_handler+0x1d0>)
10002b1e:	0852      	lsrs	r2, r2, #1
10002b20:	430a      	orrs	r2, r1
10002b22:	80da      	strh	r2, [r3, #6]
10002b24:	e784      	b.n	10002a30 <irq_remove_handler+0xac>
10002b26:	46c0      	nop			@ (mov r8, r8)
10002b28:	d0000124 	.word	0xd0000124
10002b2c:	e000ed00 	.word	0xe000ed00
10002b30:	100001c1 	.word	0x100001c1
10002b34:	200003bc 	.word	0x200003bc
10002b38:	e000e100 	.word	0xe000e100
10002b3c:	ffffe000 	.word	0xffffe000
10002b40:	20008b4d 	.word	0x20008b4d
10002b44:	ffffbd01 	.word	0xffffbd01
10002b48:	0000aaaa 	.word	0x0000aaaa
10002b4c:	200003f6 	.word	0x200003f6
10002b50:	fffff000 	.word	0xfffff000
10002b54:	fffff800 	.word	0xfffff800

10002b58 <irq_add_tail_to_free_list>:
10002b58:	b570      	push	{r4, r5, r6, lr}
10002b5a:	2401      	movs	r4, #1
10002b5c:	4304      	orrs	r4, r0
10002b5e:	f3ef 8105 	mrs	r1, IPSR
10002b62:	f3ef 8c10 	mrs	ip, PRIMASK
10002b66:	b672      	cpsid	i
10002b68:	4a21      	ldr	r2, [pc, #132]	@ (10002bf0 <irq_add_tail_to_free_list+0x98>)
10002b6a:	6813      	ldr	r3, [r2, #0]
10002b6c:	2b00      	cmp	r3, #0
10002b6e:	d0fc      	beq.n	10002b6a <irq_add_tail_to_free_list+0x12>
10002b70:	f3bf 8f5f 	dmb	sy
10002b74:	4b1f      	ldr	r3, [pc, #124]	@ (10002bf4 <irq_add_tail_to_free_list+0x9c>)
10002b76:	0005      	movs	r5, r0
10002b78:	4a1f      	ldr	r2, [pc, #124]	@ (10002bf8 <irq_add_tail_to_free_list+0xa0>)
10002b7a:	1aed      	subs	r5, r5, r3
10002b7c:	416d      	adcs	r5, r5
10002b7e:	436a      	muls	r2, r5
10002b80:	0d12      	lsrs	r2, r2, #20
10002b82:	4d1e      	ldr	r5, [pc, #120]	@ (10002bfc <irq_add_tail_to_free_list+0xa4>)
10002b84:	0089      	lsls	r1, r1, #2
10002b86:	68ae      	ldr	r6, [r5, #8]
10002b88:	b252      	sxtb	r2, r2
10002b8a:	5876      	ldr	r6, [r6, r1]
10002b8c:	42a6      	cmp	r6, r4
10002b8e:	d01c      	beq.n	10002bca <irq_add_tail_to_free_list+0x72>
10002b90:	2106      	movs	r1, #6
10002b92:	5659      	ldrsb	r1, [r3, r1]
10002b94:	4291      	cmp	r1, r2
10002b96:	d01c      	beq.n	10002bd2 <irq_add_tail_to_free_list+0x7a>
10002b98:	2112      	movs	r1, #18
10002b9a:	5659      	ldrsb	r1, [r3, r1]
10002b9c:	4291      	cmp	r1, r2
10002b9e:	d022      	beq.n	10002be6 <irq_add_tail_to_free_list+0x8e>
10002ba0:	211e      	movs	r1, #30
10002ba2:	5659      	ldrsb	r1, [r3, r1]
10002ba4:	4291      	cmp	r1, r2
10002ba6:	d020      	beq.n	10002bea <irq_add_tail_to_free_list+0x92>
10002ba8:	212a      	movs	r1, #42	@ 0x2a
10002baa:	5659      	ldrsb	r1, [r3, r1]
10002bac:	2403      	movs	r4, #3
10002bae:	4291      	cmp	r1, r2
10002bb0:	d010      	beq.n	10002bd4 <irq_add_tail_to_free_list+0x7c>
10002bb2:	4b13      	ldr	r3, [pc, #76]	@ (10002c00 <irq_add_tail_to_free_list+0xa8>)
10002bb4:	7819      	ldrb	r1, [r3, #0]
10002bb6:	701a      	strb	r2, [r3, #0]
10002bb8:	7181      	strb	r1, [r0, #6]
10002bba:	f3bf 8f5f 	dmb	sy
10002bbe:	2200      	movs	r2, #0
10002bc0:	4b0b      	ldr	r3, [pc, #44]	@ (10002bf0 <irq_add_tail_to_free_list+0x98>)
10002bc2:	601a      	str	r2, [r3, #0]
10002bc4:	f38c 8810 	msr	PRIMASK, ip
10002bc8:	bd70      	pop	{r4, r5, r6, pc}
10002bca:	68ab      	ldr	r3, [r5, #8]
10002bcc:	4c0d      	ldr	r4, [pc, #52]	@ (10002c04 <irq_add_tail_to_free_list+0xac>)
10002bce:	505c      	str	r4, [r3, r1]
10002bd0:	e7ef      	b.n	10002bb2 <irq_add_tail_to_free_list+0x5a>
10002bd2:	2400      	movs	r4, #0
10002bd4:	0061      	lsls	r1, r4, #1
10002bd6:	1909      	adds	r1, r1, r4
10002bd8:	0089      	lsls	r1, r1, #2
10002bda:	185b      	adds	r3, r3, r1
10002bdc:	21ff      	movs	r1, #255	@ 0xff
10002bde:	7199      	strb	r1, [r3, #6]
10002be0:	4909      	ldr	r1, [pc, #36]	@ (10002c08 <irq_add_tail_to_free_list+0xb0>)
10002be2:	8099      	strh	r1, [r3, #4]
10002be4:	e7e5      	b.n	10002bb2 <irq_add_tail_to_free_list+0x5a>
10002be6:	2401      	movs	r4, #1
10002be8:	e7f4      	b.n	10002bd4 <irq_add_tail_to_free_list+0x7c>
10002bea:	2402      	movs	r4, #2
10002bec:	e7f2      	b.n	10002bd4 <irq_add_tail_to_free_list+0x7c>
10002bee:	46c0      	nop			@ (mov r8, r8)
10002bf0:	d0000124 	.word	0xd0000124
10002bf4:	200003bc 	.word	0x200003bc
10002bf8:	0000aaaa 	.word	0x0000aaaa
10002bfc:	e000ed00 	.word	0xe000ed00
10002c00:	20008b4d 	.word	0x20008b4d
10002c04:	100001c1 	.word	0x100001c1
10002c08:	ffffbd01 	.word	0xffffbd01

10002c0c <lock_init>:
10002c0c:	4b02      	ldr	r3, [pc, #8]	@ (10002c18 <lock_init+0xc>)
10002c0e:	469c      	mov	ip, r3
10002c10:	4461      	add	r1, ip
10002c12:	0089      	lsls	r1, r1, #2
10002c14:	6001      	str	r1, [r0, #0]
10002c16:	4770      	bx	lr
10002c18:	34000040 	.word	0x34000040

10002c1c <runtime_init_mutex>:
10002c1c:	b570      	push	{r4, r5, r6, lr}
10002c1e:	4c11      	ldr	r4, [pc, #68]	@ (10002c64 <runtime_init_mutex+0x48>)
10002c20:	4d11      	ldr	r5, [pc, #68]	@ (10002c68 <runtime_init_mutex+0x4c>)
10002c22:	42ac      	cmp	r4, r5
10002c24:	d20f      	bcs.n	10002c46 <runtime_init_mutex+0x2a>
10002c26:	26ff      	movs	r6, #255	@ 0xff
10002c28:	6823      	ldr	r3, [r4, #0]
10002c2a:	2b00      	cmp	r3, #0
10002c2c:	d00c      	beq.n	10002c48 <runtime_init_mutex+0x2c>
10002c2e:	f7ff fe41 	bl	100028b4 <next_striped_spin_lock_num>
10002c32:	0001      	movs	r1, r0
10002c34:	0020      	movs	r0, r4
10002c36:	f7ff ffe9 	bl	10002c0c <lock_init>
10002c3a:	80a6      	strh	r6, [r4, #4]
10002c3c:	f3bf 8f5f 	dmb	sy
10002c40:	3408      	adds	r4, #8
10002c42:	42ac      	cmp	r4, r5
10002c44:	d3f0      	bcc.n	10002c28 <runtime_init_mutex+0xc>
10002c46:	bd70      	pop	{r4, r5, r6, pc}
10002c48:	f7ff fe34 	bl	100028b4 <next_striped_spin_lock_num>
10002c4c:	0001      	movs	r1, r0
10002c4e:	0020      	movs	r0, r4
10002c50:	f7ff ffdc 	bl	10002c0c <lock_init>
10002c54:	7126      	strb	r6, [r4, #4]
10002c56:	f3bf 8f5f 	dmb	sy
10002c5a:	3408      	adds	r4, #8
10002c5c:	42ac      	cmp	r4, r5
10002c5e:	d3e3      	bcc.n	10002c28 <runtime_init_mutex+0xc>
10002c60:	e7f1      	b.n	10002c46 <runtime_init_mutex+0x2a>
10002c62:	46c0      	nop			@ (mov r8, r8)
10002c64:	20000458 	.word	0x20000458
10002c68:	20000460 	.word	0x20000460

10002c6c <sleep_until_callback>:
10002c6c:	4b0a      	ldr	r3, [pc, #40]	@ (10002c98 <sleep_until_callback+0x2c>)
10002c6e:	6819      	ldr	r1, [r3, #0]
10002c70:	f3ef 8010 	mrs	r0, PRIMASK
10002c74:	b672      	cpsid	i
10002c76:	680a      	ldr	r2, [r1, #0]
10002c78:	2a00      	cmp	r2, #0
10002c7a:	d0fc      	beq.n	10002c76 <sleep_until_callback+0xa>
10002c7c:	f3bf 8f5f 	dmb	sy
10002c80:	681b      	ldr	r3, [r3, #0]
10002c82:	f3bf 8f5f 	dmb	sy
10002c86:	2200      	movs	r2, #0
10002c88:	601a      	str	r2, [r3, #0]
10002c8a:	f380 8810 	msr	PRIMASK, r0
10002c8e:	bf40      	sev
10002c90:	2000      	movs	r0, #0
10002c92:	2100      	movs	r1, #0
10002c94:	4770      	bx	lr
10002c96:	46c0      	nop			@ (mov r8, r8)
10002c98:	20000cd0 	.word	0x20000cd0

10002c9c <alarm_pool_irq_handler>:
10002c9c:	b5f0      	push	{r4, r5, r6, r7, lr}
10002c9e:	46de      	mov	lr, fp
10002ca0:	4657      	mov	r7, sl
10002ca2:	464e      	mov	r6, r9
10002ca4:	4645      	mov	r5, r8
10002ca6:	b5e0      	push	{r5, r6, r7, lr}
10002ca8:	b087      	sub	sp, #28
10002caa:	f3ef 8305 	mrs	r3, IPSR
10002cae:	2203      	movs	r2, #3
10002cb0:	2501      	movs	r5, #1
10002cb2:	401a      	ands	r2, r3
10002cb4:	4095      	lsls	r5, r2
10002cb6:	0091      	lsls	r1, r2, #2
10002cb8:	4688      	mov	r8, r1
10002cba:	46a9      	mov	r9, r5
10002cbc:	4bb1      	ldr	r3, [pc, #708]	@ (10002f84 <alarm_pool_irq_handler+0x2e8>)
10002cbe:	9203      	str	r2, [sp, #12]
10002cc0:	585c      	ldr	r4, [r3, r1]
10002cc2:	4bb1      	ldr	r3, [pc, #708]	@ (10002f88 <alarm_pool_irq_handler+0x2ec>)
10002cc4:	601d      	str	r5, [r3, #0]
10002cc6:	4bb1      	ldr	r3, [pc, #708]	@ (10002f8c <alarm_pool_irq_handler+0x2f0>)
10002cc8:	9304      	str	r3, [sp, #16]
10002cca:	464b      	mov	r3, r9
10002ccc:	48b0      	ldr	r0, [pc, #704]	@ (10002f90 <alarm_pool_irq_handler+0x2f4>)
10002cce:	6343      	str	r3, [r0, #52]	@ 0x34
10002cd0:	2308      	movs	r3, #8
10002cd2:	5ee5      	ldrsh	r5, [r4, r3]
10002cd4:	2d00      	cmp	r5, #0
10002cd6:	da37      	bge.n	10002d48 <alarm_pool_irq_handler+0xac>
10002cd8:	88a3      	ldrh	r3, [r4, #4]
10002cda:	b21b      	sxth	r3, r3
10002cdc:	2b00      	cmp	r3, #0
10002cde:	db00      	blt.n	10002ce2 <alarm_pool_irq_handler+0x46>
10002ce0:	e0ad      	b.n	10002e3e <alarm_pool_irq_handler+0x1a2>
10002ce2:	79a3      	ldrb	r3, [r4, #6]
10002ce4:	2b00      	cmp	r3, #0
10002ce6:	d000      	beq.n	10002cea <alarm_pool_irq_handler+0x4e>
10002ce8:	e0ee      	b.n	10002ec8 <alarm_pool_irq_handler+0x22c>
10002cea:	2308      	movs	r3, #8
10002cec:	5ee1      	ldrsh	r1, [r4, r3]
10002cee:	2900      	cmp	r1, #0
10002cf0:	db20      	blt.n	10002d34 <alarm_pool_irq_handler+0x98>
10002cf2:	004b      	lsls	r3, r1, #1
10002cf4:	6962      	ldr	r2, [r4, #20]
10002cf6:	185b      	adds	r3, r3, r1
10002cf8:	00db      	lsls	r3, r3, #3
10002cfa:	18d3      	adds	r3, r2, r3
10002cfc:	689e      	ldr	r6, [r3, #8]
10002cfe:	68dd      	ldr	r5, [r3, #12]
10002d00:	1c73      	adds	r3, r6, #1
10002d02:	d100      	bne.n	10002d06 <alarm_pool_irq_handler+0x6a>
10002d04:	e10d      	b.n	10002f22 <alarm_pool_irq_handler+0x286>
10002d06:	48a2      	ldr	r0, [pc, #648]	@ (10002f90 <alarm_pool_irq_handler+0x2f4>)
10002d08:	0001      	movs	r1, r0
10002d0a:	4441      	add	r1, r8
10002d0c:	6a82      	ldr	r2, [r0, #40]	@ 0x28
10002d0e:	690b      	ldr	r3, [r1, #16]
10002d10:	1ab7      	subs	r7, r6, r2
10002d12:	1a9b      	subs	r3, r3, r2
10002d14:	429f      	cmp	r7, r3
10002d16:	d315      	bcc.n	10002d44 <alarm_pool_irq_handler+0xa8>
10002d18:	2301      	movs	r3, #1
10002d1a:	6a02      	ldr	r2, [r0, #32]
10002d1c:	9803      	ldr	r0, [sp, #12]
10002d1e:	4083      	lsls	r3, r0
10002d20:	421a      	tst	r2, r3
10002d22:	d00f      	beq.n	10002d44 <alarm_pool_irq_handler+0xa8>
10002d24:	489a      	ldr	r0, [pc, #616]	@ (10002f90 <alarm_pool_irq_handler+0x2f4>)
10002d26:	f000 fac5 	bl	100032b4 <timer_time_us_64>
10002d2a:	428d      	cmp	r5, r1
10002d2c:	dc02      	bgt.n	10002d34 <alarm_pool_irq_handler+0x98>
10002d2e:	d1cc      	bne.n	10002cca <alarm_pool_irq_handler+0x2e>
10002d30:	4286      	cmp	r6, r0
10002d32:	d9ca      	bls.n	10002cca <alarm_pool_irq_handler+0x2e>
10002d34:	bf40      	sev
10002d36:	b007      	add	sp, #28
10002d38:	bcf0      	pop	{r4, r5, r6, r7}
10002d3a:	46bb      	mov	fp, r7
10002d3c:	46b2      	mov	sl, r6
10002d3e:	46a9      	mov	r9, r5
10002d40:	46a0      	mov	r8, r4
10002d42:	bdf0      	pop	{r4, r5, r6, r7, pc}
10002d44:	610e      	str	r6, [r1, #16]
10002d46:	e7ed      	b.n	10002d24 <alarm_pool_irq_handler+0x88>
10002d48:	6962      	ldr	r2, [r4, #20]
10002d4a:	006b      	lsls	r3, r5, #1
10002d4c:	4692      	mov	sl, r2
10002d4e:	195b      	adds	r3, r3, r5
10002d50:	00db      	lsls	r3, r3, #3
10002d52:	449a      	add	sl, r3
10002d54:	4653      	mov	r3, sl
10002d56:	689e      	ldr	r6, [r3, #8]
10002d58:	68df      	ldr	r7, [r3, #12]
10002d5a:	f000 faab 	bl	100032b4 <timer_time_us_64>
10002d5e:	428f      	cmp	r7, r1
10002d60:	dcba      	bgt.n	10002cd8 <alarm_pool_irq_handler+0x3c>
10002d62:	d100      	bne.n	10002d66 <alarm_pool_irq_handler+0xca>
10002d64:	e0ff      	b.n	10002f66 <alarm_pool_irq_handler+0x2ca>
10002d66:	2f00      	cmp	r7, #0
10002d68:	da00      	bge.n	10002d6c <alarm_pool_irq_handler+0xd0>
10002d6a:	e0e4      	b.n	10002f36 <alarm_pool_irq_handler+0x29a>
10002d6c:	4652      	mov	r2, sl
10002d6e:	4653      	mov	r3, sl
10002d70:	6952      	ldr	r2, [r2, #20]
10002d72:	691b      	ldr	r3, [r3, #16]
10002d74:	4693      	mov	fp, r2
10002d76:	9a04      	ldr	r2, [sp, #16]
10002d78:	4293      	cmp	r3, r2
10002d7a:	d100      	bne.n	10002d7e <alarm_pool_irq_handler+0xe2>
10002d7c:	e0d5      	b.n	10002f2a <alarm_pool_irq_handler+0x28e>
10002d7e:	4652      	mov	r2, sl
10002d80:	2108      	movs	r1, #8
10002d82:	5e60      	ldrsh	r0, [r4, r1]
10002d84:	8852      	ldrh	r2, [r2, #2]
10002d86:	0400      	lsls	r0, r0, #16
10002d88:	4659      	mov	r1, fp
10002d8a:	4310      	orrs	r0, r2
10002d8c:	4798      	blx	r3
10002d8e:	9000      	str	r0, [sp, #0]
10002d90:	9101      	str	r1, [sp, #4]
10002d92:	9900      	ldr	r1, [sp, #0]
10002d94:	9a01      	ldr	r2, [sp, #4]
10002d96:	000b      	movs	r3, r1
10002d98:	0010      	movs	r0, r2
10002d9a:	4313      	orrs	r3, r2
10002d9c:	d100      	bne.n	10002da0 <alarm_pool_irq_handler+0x104>
10002d9e:	e0ca      	b.n	10002f36 <alarm_pool_irq_handler+0x29a>
10002da0:	0013      	movs	r3, r2
10002da2:	000a      	movs	r2, r1
10002da4:	1ab6      	subs	r6, r6, r2
10002da6:	419f      	sbcs	r7, r3
10002da8:	2800      	cmp	r0, #0
10002daa:	db06      	blt.n	10002dba <alarm_pool_irq_handler+0x11e>
10002dac:	4878      	ldr	r0, [pc, #480]	@ (10002f90 <alarm_pool_irq_handler+0x2f4>)
10002dae:	f000 fa81 	bl	100032b4 <timer_time_us_64>
10002db2:	9e00      	ldr	r6, [sp, #0]
10002db4:	9f01      	ldr	r7, [sp, #4]
10002db6:	1836      	adds	r6, r6, r0
10002db8:	414f      	adcs	r7, r1
10002dba:	4653      	mov	r3, sl
10002dbc:	609e      	str	r6, [r3, #8]
10002dbe:	60df      	str	r7, [r3, #12]
10002dc0:	2200      	movs	r2, #0
10002dc2:	5e9a      	ldrsh	r2, [r3, r2]
10002dc4:	2a00      	cmp	r2, #0
10002dc6:	da00      	bge.n	10002dca <alarm_pool_irq_handler+0x12e>
10002dc8:	e786      	b.n	10002cd8 <alarm_pool_irq_handler+0x3c>
10002dca:	0053      	lsls	r3, r2, #1
10002dcc:	1899      	adds	r1, r3, r2
10002dce:	6960      	ldr	r0, [r4, #20]
10002dd0:	00c9      	lsls	r1, r1, #3
10002dd2:	1841      	adds	r1, r0, r1
10002dd4:	9302      	str	r3, [sp, #8]
10002dd6:	688b      	ldr	r3, [r1, #8]
10002dd8:	68c9      	ldr	r1, [r1, #12]
10002dda:	469b      	mov	fp, r3
10002ddc:	42b9      	cmp	r1, r7
10002dde:	dd00      	ble.n	10002de2 <alarm_pool_irq_handler+0x146>
10002de0:	e77a      	b.n	10002cd8 <alarm_pool_irq_handler+0x3c>
10002de2:	d102      	bne.n	10002dea <alarm_pool_irq_handler+0x14e>
10002de4:	42b3      	cmp	r3, r6
10002de6:	d900      	bls.n	10002dea <alarm_pool_irq_handler+0x14e>
10002de8:	e776      	b.n	10002cd8 <alarm_pool_irq_handler+0x3c>
10002dea:	2308      	movs	r3, #8
10002dec:	469c      	mov	ip, r3
10002dee:	44a4      	add	ip, r4
10002df0:	9505      	str	r5, [sp, #20]
10002df2:	4665      	mov	r5, ip
10002df4:	8122      	strh	r2, [r4, #8]
10002df6:	46a4      	mov	ip, r4
10002df8:	9b02      	ldr	r3, [sp, #8]
10002dfa:	002c      	movs	r4, r5
10002dfc:	e006      	b.n	10002e0c <alarm_pool_irq_handler+0x170>
10002dfe:	0053      	lsls	r3, r2, #1
10002e00:	1899      	adds	r1, r3, r2
10002e02:	00c9      	lsls	r1, r1, #3
10002e04:	1841      	adds	r1, r0, r1
10002e06:	688d      	ldr	r5, [r1, #8]
10002e08:	68c9      	ldr	r1, [r1, #12]
10002e0a:	46ab      	mov	fp, r5
10002e0c:	189b      	adds	r3, r3, r2
10002e0e:	00db      	lsls	r3, r3, #3
10002e10:	18c3      	adds	r3, r0, r3
10002e12:	42b9      	cmp	r1, r7
10002e14:	dc06      	bgt.n	10002e24 <alarm_pool_irq_handler+0x188>
10002e16:	d100      	bne.n	10002e1a <alarm_pool_irq_handler+0x17e>
10002e18:	e0af      	b.n	10002f7a <alarm_pool_irq_handler+0x2de>
10002e1a:	001c      	movs	r4, r3
10002e1c:	2300      	movs	r3, #0
10002e1e:	5ee2      	ldrsh	r2, [r4, r3]
10002e20:	2a00      	cmp	r2, #0
10002e22:	daec      	bge.n	10002dfe <alarm_pool_irq_handler+0x162>
10002e24:	0023      	movs	r3, r4
10002e26:	4664      	mov	r4, ip
10002e28:	469c      	mov	ip, r3
10002e2a:	4653      	mov	r3, sl
10002e2c:	801a      	strh	r2, [r3, #0]
10002e2e:	4663      	mov	r3, ip
10002e30:	9d05      	ldr	r5, [sp, #20]
10002e32:	801d      	strh	r5, [r3, #0]
10002e34:	88a3      	ldrh	r3, [r4, #4]
10002e36:	b21b      	sxth	r3, r3
10002e38:	2b00      	cmp	r3, #0
10002e3a:	da00      	bge.n	10002e3e <alarm_pool_irq_handler+0x1a2>
10002e3c:	e751      	b.n	10002ce2 <alarm_pool_irq_handler+0x46>
10002e3e:	6922      	ldr	r2, [r4, #16]
10002e40:	f3ef 8110 	mrs	r1, PRIMASK
10002e44:	b672      	cpsid	i
10002e46:	6813      	ldr	r3, [r2, #0]
10002e48:	2b00      	cmp	r3, #0
10002e4a:	d0fc      	beq.n	10002e46 <alarm_pool_irq_handler+0x1aa>
10002e4c:	f3bf 8f5f 	dmb	sy
10002e50:	2301      	movs	r3, #1
10002e52:	88a7      	ldrh	r7, [r4, #4]
10002e54:	425b      	negs	r3, r3
10002e56:	80a3      	strh	r3, [r4, #4]
10002e58:	b23f      	sxth	r7, r7
10002e5a:	6923      	ldr	r3, [r4, #16]
10002e5c:	f3bf 8f5f 	dmb	sy
10002e60:	2200      	movs	r2, #0
10002e62:	601a      	str	r2, [r3, #0]
10002e64:	f381 8810 	msr	PRIMASK, r1
10002e68:	2f00      	cmp	r7, #0
10002e6a:	da00      	bge.n	10002e6e <alarm_pool_irq_handler+0x1d2>
10002e6c:	e739      	b.n	10002ce2 <alarm_pool_irq_handler+0x46>
10002e6e:	0023      	movs	r3, r4
10002e70:	3308      	adds	r3, #8
10002e72:	0022      	movs	r2, r4
10002e74:	469a      	mov	sl, r3
10002e76:	6966      	ldr	r6, [r4, #20]
10002e78:	007b      	lsls	r3, r7, #1
10002e7a:	19db      	adds	r3, r3, r7
10002e7c:	00db      	lsls	r3, r3, #3
10002e7e:	18f3      	adds	r3, r6, r3
10002e80:	6899      	ldr	r1, [r3, #8]
10002e82:	4650      	mov	r0, sl
10002e84:	468c      	mov	ip, r1
10002e86:	2408      	movs	r4, #8
10002e88:	5f11      	ldrsh	r1, [r2, r4]
10002e8a:	68dd      	ldr	r5, [r3, #12]
10002e8c:	2900      	cmp	r1, #0
10002e8e:	db10      	blt.n	10002eb2 <alarm_pool_irq_handler+0x216>
10002e90:	9302      	str	r3, [sp, #8]
10002e92:	e006      	b.n	10002ea2 <alarm_pool_irq_handler+0x206>
10002e94:	42ab      	cmp	r3, r5
10002e96:	d040      	beq.n	10002f1a <alarm_pool_irq_handler+0x27e>
10002e98:	2300      	movs	r3, #0
10002e9a:	5ee1      	ldrsh	r1, [r4, r3]
10002e9c:	0020      	movs	r0, r4
10002e9e:	2900      	cmp	r1, #0
10002ea0:	db06      	blt.n	10002eb0 <alarm_pool_irq_handler+0x214>
10002ea2:	004c      	lsls	r4, r1, #1
10002ea4:	1864      	adds	r4, r4, r1
10002ea6:	00e4      	lsls	r4, r4, #3
10002ea8:	1934      	adds	r4, r6, r4
10002eaa:	68e3      	ldr	r3, [r4, #12]
10002eac:	42ab      	cmp	r3, r5
10002eae:	ddf1      	ble.n	10002e94 <alarm_pool_irq_handler+0x1f8>
10002eb0:	9b02      	ldr	r3, [sp, #8]
10002eb2:	8007      	strh	r7, [r0, #0]
10002eb4:	2000      	movs	r0, #0
10002eb6:	5e1f      	ldrsh	r7, [r3, r0]
10002eb8:	8019      	strh	r1, [r3, #0]
10002eba:	2f00      	cmp	r7, #0
10002ebc:	dadc      	bge.n	10002e78 <alarm_pool_irq_handler+0x1dc>
10002ebe:	0014      	movs	r4, r2
10002ec0:	79a3      	ldrb	r3, [r4, #6]
10002ec2:	2b00      	cmp	r3, #0
10002ec4:	d100      	bne.n	10002ec8 <alarm_pool_irq_handler+0x22c>
10002ec6:	e710      	b.n	10002cea <alarm_pool_irq_handler+0x4e>
10002ec8:	2300      	movs	r3, #0
10002eca:	71a3      	strb	r3, [r4, #6]
10002ecc:	0026      	movs	r6, r4
10002ece:	2308      	movs	r3, #8
10002ed0:	5ee1      	ldrsh	r1, [r4, r3]
10002ed2:	3608      	adds	r6, #8
10002ed4:	1c4b      	adds	r3, r1, #1
10002ed6:	d100      	bne.n	10002eda <alarm_pool_irq_handler+0x23e>
10002ed8:	e72c      	b.n	10002d34 <alarm_pool_irq_handler+0x98>
10002eda:	46b4      	mov	ip, r6
10002edc:	6965      	ldr	r5, [r4, #20]
10002ede:	e003      	b.n	10002ee8 <alarm_pool_irq_handler+0x24c>
10002ee0:	4684      	mov	ip, r0
10002ee2:	1c4b      	adds	r3, r1, #1
10002ee4:	d100      	bne.n	10002ee8 <alarm_pool_irq_handler+0x24c>
10002ee6:	e700      	b.n	10002cea <alarm_pool_irq_handler+0x4e>
10002ee8:	004b      	lsls	r3, r1, #1
10002eea:	185b      	adds	r3, r3, r1
10002eec:	00db      	lsls	r3, r3, #3
10002eee:	18e8      	adds	r0, r5, r3
10002ef0:	000a      	movs	r2, r1
10002ef2:	5ee9      	ldrsh	r1, [r5, r3]
10002ef4:	8843      	ldrh	r3, [r0, #2]
10002ef6:	b21b      	sxth	r3, r3
10002ef8:	2b00      	cmp	r3, #0
10002efa:	daf1      	bge.n	10002ee0 <alarm_pool_irq_handler+0x244>
10002efc:	2601      	movs	r6, #1
10002efe:	4276      	negs	r6, r6
10002f00:	17f7      	asrs	r7, r6, #31
10002f02:	6086      	str	r6, [r0, #8]
10002f04:	60c7      	str	r7, [r0, #12]
10002f06:	2608      	movs	r6, #8
10002f08:	5fa3      	ldrsh	r3, [r4, r6]
10002f0a:	4293      	cmp	r3, r2
10002f0c:	d0e9      	beq.n	10002ee2 <alarm_pool_irq_handler+0x246>
10002f0e:	4663      	mov	r3, ip
10002f10:	8019      	strh	r1, [r3, #0]
10002f12:	8923      	ldrh	r3, [r4, #8]
10002f14:	8003      	strh	r3, [r0, #0]
10002f16:	8122      	strh	r2, [r4, #8]
10002f18:	e7e3      	b.n	10002ee2 <alarm_pool_irq_handler+0x246>
10002f1a:	68a3      	ldr	r3, [r4, #8]
10002f1c:	4563      	cmp	r3, ip
10002f1e:	d9bb      	bls.n	10002e98 <alarm_pool_irq_handler+0x1fc>
10002f20:	e7c6      	b.n	10002eb0 <alarm_pool_irq_handler+0x214>
10002f22:	1c6b      	adds	r3, r5, #1
10002f24:	d000      	beq.n	10002f28 <alarm_pool_irq_handler+0x28c>
10002f26:	e6ee      	b.n	10002d06 <alarm_pool_irq_handler+0x6a>
10002f28:	e6fc      	b.n	10002d24 <alarm_pool_irq_handler+0x88>
10002f2a:	465b      	mov	r3, fp
10002f2c:	4658      	mov	r0, fp
10002f2e:	691b      	ldr	r3, [r3, #16]
10002f30:	4798      	blx	r3
10002f32:	2800      	cmp	r0, #0
10002f34:	d11b      	bne.n	10002f6e <alarm_pool_irq_handler+0x2d2>
10002f36:	4653      	mov	r3, sl
10002f38:	881b      	ldrh	r3, [r3, #0]
10002f3a:	6922      	ldr	r2, [r4, #16]
10002f3c:	8123      	strh	r3, [r4, #8]
10002f3e:	f3ef 8310 	mrs	r3, PRIMASK
10002f42:	b672      	cpsid	i
10002f44:	6811      	ldr	r1, [r2, #0]
10002f46:	2900      	cmp	r1, #0
10002f48:	d0fc      	beq.n	10002f44 <alarm_pool_irq_handler+0x2a8>
10002f4a:	f3bf 8f5f 	dmb	sy
10002f4e:	4651      	mov	r1, sl
10002f50:	8862      	ldrh	r2, [r4, #2]
10002f52:	800a      	strh	r2, [r1, #0]
10002f54:	6922      	ldr	r2, [r4, #16]
10002f56:	8065      	strh	r5, [r4, #2]
10002f58:	f3bf 8f5f 	dmb	sy
10002f5c:	2100      	movs	r1, #0
10002f5e:	6011      	str	r1, [r2, #0]
10002f60:	f383 8810 	msr	PRIMASK, r3
10002f64:	e6b8      	b.n	10002cd8 <alarm_pool_irq_handler+0x3c>
10002f66:	4286      	cmp	r6, r0
10002f68:	d800      	bhi.n	10002f6c <alarm_pool_irq_handler+0x2d0>
10002f6a:	e6fc      	b.n	10002d66 <alarm_pool_irq_handler+0xca>
10002f6c:	e6b4      	b.n	10002cd8 <alarm_pool_irq_handler+0x3c>
10002f6e:	465b      	mov	r3, fp
10002f70:	681a      	ldr	r2, [r3, #0]
10002f72:	685b      	ldr	r3, [r3, #4]
10002f74:	9200      	str	r2, [sp, #0]
10002f76:	9301      	str	r3, [sp, #4]
10002f78:	e70b      	b.n	10002d92 <alarm_pool_irq_handler+0xf6>
10002f7a:	45b3      	cmp	fp, r6
10002f7c:	d800      	bhi.n	10002f80 <alarm_pool_irq_handler+0x2e4>
10002f7e:	e74c      	b.n	10002e1a <alarm_pool_irq_handler+0x17e>
10002f80:	e750      	b.n	10002e24 <alarm_pool_irq_handler+0x188>
10002f82:	46c0      	nop			@ (mov r8, r8)
10002f84:	20000b34 	.word	0x20000b34
10002f88:	4005703c 	.word	0x4005703c
10002f8c:	10002c9d 	.word	0x10002c9d
10002f90:	40054000 	.word	0x40054000

10002f94 <runtime_init_default_alarm_pool>:
10002f94:	b570      	push	{r4, r5, r6, lr}
10002f96:	4c2e      	ldr	r4, [pc, #184]	@ (10003050 <runtime_init_default_alarm_pool+0xbc>)
10002f98:	6925      	ldr	r5, [r4, #16]
10002f9a:	2d00      	cmp	r5, #0
10002f9c:	d004      	beq.n	10002fa8 <runtime_init_default_alarm_pool+0x14>
10002f9e:	210a      	movs	r1, #10
10002fa0:	482c      	ldr	r0, [pc, #176]	@ (10003054 <runtime_init_default_alarm_pool+0xc0>)
10002fa2:	f7ff fe33 	bl	10002c0c <lock_init>
10002fa6:	bd70      	pop	{r4, r5, r6, pc}
10002fa8:	4e2b      	ldr	r6, [pc, #172]	@ (10003058 <runtime_init_default_alarm_pool+0xc4>)
10002faa:	2103      	movs	r1, #3
10002fac:	0030      	movs	r0, r6
10002fae:	f000 f977 	bl	100032a0 <timer_hardware_alarm_claim>
10002fb2:	60e6      	str	r6, [r4, #12]
10002fb4:	f7ff fc7e 	bl	100028b4 <next_striped_spin_lock_num>
10002fb8:	4b28      	ldr	r3, [pc, #160]	@ (1000305c <runtime_init_default_alarm_pool+0xc8>)
10002fba:	2203      	movs	r2, #3
10002fbc:	469c      	mov	ip, r3
10002fbe:	23d0      	movs	r3, #208	@ 0xd0
10002fc0:	7022      	strb	r2, [r4, #0]
10002fc2:	061b      	lsls	r3, r3, #24
10002fc4:	681b      	ldr	r3, [r3, #0]
10002fc6:	2101      	movs	r1, #1
10002fc8:	7063      	strb	r3, [r4, #1]
10002fca:	4b25      	ldr	r3, [pc, #148]	@ (10003060 <runtime_init_default_alarm_pool+0xcc>)
10002fcc:	4460      	add	r0, ip
10002fce:	60a3      	str	r3, [r4, #8]
10002fd0:	230f      	movs	r3, #15
10002fd2:	0080      	lsls	r0, r0, #2
10002fd4:	6120      	str	r0, [r4, #16]
10002fd6:	2002      	movs	r0, #2
10002fd8:	8063      	strh	r3, [r4, #2]
10002fda:	6963      	ldr	r3, [r4, #20]
10002fdc:	4249      	negs	r1, r1
10002fde:	80a1      	strh	r1, [r4, #4]
10002fe0:	8019      	strh	r1, [r3, #0]
10002fe2:	3102      	adds	r1, #2
10002fe4:	8619      	strh	r1, [r3, #48]	@ 0x30
10002fe6:	3147      	adds	r1, #71	@ 0x47
10002fe8:	831d      	strh	r5, [r3, #24]
10002fea:	5258      	strh	r0, [r3, r1]
10002fec:	3118      	adds	r1, #24
10002fee:	525a      	strh	r2, [r3, r1]
10002ff0:	3275      	adds	r2, #117	@ 0x75
10002ff2:	395c      	subs	r1, #92	@ 0x5c
10002ff4:	5299      	strh	r1, [r3, r2]
10002ff6:	3218      	adds	r2, #24
10002ff8:	3101      	adds	r1, #1
10002ffa:	5299      	strh	r1, [r3, r2]
10002ffc:	3218      	adds	r2, #24
10002ffe:	3101      	adds	r1, #1
10003000:	5299      	strh	r1, [r3, r2]
10003002:	3218      	adds	r2, #24
10003004:	3101      	adds	r1, #1
10003006:	5299      	strh	r1, [r3, r2]
10003008:	3508      	adds	r5, #8
1000300a:	3218      	adds	r2, #24
1000300c:	529d      	strh	r5, [r3, r2]
1000300e:	3102      	adds	r1, #2
10003010:	3218      	adds	r2, #24
10003012:	5299      	strh	r1, [r3, r2]
10003014:	3218      	adds	r2, #24
10003016:	3101      	adds	r1, #1
10003018:	5299      	strh	r1, [r3, r2]
1000301a:	3218      	adds	r2, #24
1000301c:	3101      	adds	r1, #1
1000301e:	5299      	strh	r1, [r3, r2]
10003020:	3218      	adds	r2, #24
10003022:	3101      	adds	r1, #1
10003024:	5299      	strh	r1, [r3, r2]
10003026:	3218      	adds	r2, #24
10003028:	3101      	adds	r1, #1
1000302a:	5299      	strh	r1, [r3, r2]
1000302c:	3218      	adds	r2, #24
1000302e:	3101      	adds	r1, #1
10003030:	5299      	strh	r1, [r3, r2]
10003032:	4b0c      	ldr	r3, [pc, #48]	@ (10003064 <runtime_init_default_alarm_pool+0xd0>)
10003034:	490c      	ldr	r1, [pc, #48]	@ (10003068 <runtime_init_default_alarm_pool+0xd4>)
10003036:	60dc      	str	r4, [r3, #12]
10003038:	3001      	adds	r0, #1
1000303a:	6235      	str	r5, [r6, #32]
1000303c:	f7ff fc78 	bl	10002930 <irq_set_exclusive_handler>
10003040:	2101      	movs	r1, #1
10003042:	2003      	movs	r0, #3
10003044:	f7ff fc62 	bl	1000290c <irq_set_enabled>
10003048:	4b08      	ldr	r3, [pc, #32]	@ (1000306c <runtime_init_default_alarm_pool+0xd8>)
1000304a:	601d      	str	r5, [r3, #0]
1000304c:	e7a7      	b.n	10002f9e <runtime_init_default_alarm_pool+0xa>
1000304e:	46c0      	nop			@ (mov r8, r8)
10003050:	20000404 	.word	0x20000404
10003054:	20000cd0 	.word	0x20000cd0
10003058:	40054000 	.word	0x40054000
1000305c:	34000040 	.word	0x34000040
10003060:	0010ffff 	.word	0x0010ffff
10003064:	20000b34 	.word	0x20000b34
10003068:	10002c9d 	.word	0x10002c9d
1000306c:	40056038 	.word	0x40056038

10003070 <alarm_pool_add_alarm_at_force_in_context>:
10003070:	b570      	push	{r4, r5, r6, lr}
10003072:	0001      	movs	r1, r0
10003074:	6904      	ldr	r4, [r0, #16]
10003076:	f3ef 8c10 	mrs	ip, PRIMASK
1000307a:	b672      	cpsid	i
1000307c:	6820      	ldr	r0, [r4, #0]
1000307e:	2800      	cmp	r0, #0
10003080:	d0fc      	beq.n	1000307c <alarm_pool_add_alarm_at_force_in_context+0xc>
10003082:	f3bf 8f5f 	dmb	sy
10003086:	2002      	movs	r0, #2
10003088:	5e0d      	ldrsh	r5, [r1, r0]
1000308a:	694c      	ldr	r4, [r1, #20]
1000308c:	0068      	lsls	r0, r5, #1
1000308e:	1940      	adds	r0, r0, r5
10003090:	00c0      	lsls	r0, r0, #3
10003092:	1824      	adds	r4, r4, r0
10003094:	6908      	ldr	r0, [r1, #16]
10003096:	2d00      	cmp	r5, #0
10003098:	db36      	blt.n	10003108 <alarm_pool_add_alarm_at_force_in_context+0x98>
1000309a:	8826      	ldrh	r6, [r4, #0]
1000309c:	804e      	strh	r6, [r1, #2]
1000309e:	f3bf 8f5f 	dmb	sy
100030a2:	2600      	movs	r6, #0
100030a4:	6006      	str	r6, [r0, #0]
100030a6:	f38c 8810 	msr	PRIMASK, ip
100030aa:	60e3      	str	r3, [r4, #12]
100030ac:	8863      	ldrh	r3, [r4, #2]
100030ae:	9804      	ldr	r0, [sp, #16]
100030b0:	3301      	adds	r3, #1
100030b2:	6120      	str	r0, [r4, #16]
100030b4:	045b      	lsls	r3, r3, #17
100030b6:	9805      	ldr	r0, [sp, #20]
100030b8:	0c5b      	lsrs	r3, r3, #17
100030ba:	60a2      	str	r2, [r4, #8]
100030bc:	6160      	str	r0, [r4, #20]
100030be:	1c1a      	adds	r2, r3, #0
100030c0:	2b00      	cmp	r3, #0
100030c2:	d01f      	beq.n	10003104 <alarm_pool_add_alarm_at_force_in_context+0x94>
100030c4:	b293      	uxth	r3, r2
100030c6:	0428      	lsls	r0, r5, #16
100030c8:	8062      	strh	r2, [r4, #2]
100030ca:	4318      	orrs	r0, r3
100030cc:	690a      	ldr	r2, [r1, #16]
100030ce:	f3ef 8c10 	mrs	ip, PRIMASK
100030d2:	b672      	cpsid	i
100030d4:	6813      	ldr	r3, [r2, #0]
100030d6:	2b00      	cmp	r3, #0
100030d8:	d0fc      	beq.n	100030d4 <alarm_pool_add_alarm_at_force_in_context+0x64>
100030da:	f3bf 8f5f 	dmb	sy
100030de:	888b      	ldrh	r3, [r1, #4]
100030e0:	8023      	strh	r3, [r4, #0]
100030e2:	808d      	strh	r5, [r1, #4]
100030e4:	690b      	ldr	r3, [r1, #16]
100030e6:	f3bf 8f5f 	dmb	sy
100030ea:	2200      	movs	r2, #0
100030ec:	601a      	str	r2, [r3, #0]
100030ee:	f38c 8810 	msr	PRIMASK, ip
100030f2:	780b      	ldrb	r3, [r1, #0]
100030f4:	3201      	adds	r2, #1
100030f6:	409a      	lsls	r2, r3
100030f8:	68cb      	ldr	r3, [r1, #12]
100030fa:	4908      	ldr	r1, [pc, #32]	@ (1000311c <alarm_pool_add_alarm_at_force_in_context+0xac>)
100030fc:	468c      	mov	ip, r1
100030fe:	4463      	add	r3, ip
10003100:	601a      	str	r2, [r3, #0]
10003102:	bd70      	pop	{r4, r5, r6, pc}
10003104:	2201      	movs	r2, #1
10003106:	e7dd      	b.n	100030c4 <alarm_pool_add_alarm_at_force_in_context+0x54>
10003108:	f3bf 8f5f 	dmb	sy
1000310c:	2300      	movs	r3, #0
1000310e:	6003      	str	r3, [r0, #0]
10003110:	f38c 8810 	msr	PRIMASK, ip
10003114:	2001      	movs	r0, #1
10003116:	4240      	negs	r0, r0
10003118:	e7f3      	b.n	10003102 <alarm_pool_add_alarm_at_force_in_context+0x92>
1000311a:	46c0      	nop			@ (mov r8, r8)
1000311c:	0000203c 	.word	0x0000203c

10003120 <alarm_pool_cancel_alarm>:
10003120:	b510      	push	{r4, lr}
10003122:	8943      	ldrh	r3, [r0, #10]
10003124:	140a      	asrs	r2, r1, #16
10003126:	4293      	cmp	r3, r2
10003128:	dd1a      	ble.n	10003160 <alarm_pool_cancel_alarm+0x40>
1000312a:	0053      	lsls	r3, r2, #1
1000312c:	189b      	adds	r3, r3, r2
1000312e:	6942      	ldr	r2, [r0, #20]
10003130:	00db      	lsls	r3, r3, #3
10003132:	18d3      	adds	r3, r2, r3
10003134:	6904      	ldr	r4, [r0, #16]
10003136:	f3ef 8c10 	mrs	ip, PRIMASK
1000313a:	b672      	cpsid	i
1000313c:	6822      	ldr	r2, [r4, #0]
1000313e:	2a00      	cmp	r2, #0
10003140:	d0fc      	beq.n	1000313c <alarm_pool_cancel_alarm+0x1c>
10003142:	f3bf 8f5f 	dmb	sy
10003146:	885a      	ldrh	r2, [r3, #2]
10003148:	0409      	lsls	r1, r1, #16
1000314a:	b294      	uxth	r4, r2
1000314c:	0c09      	lsrs	r1, r1, #16
1000314e:	428a      	cmp	r2, r1
10003150:	d008      	beq.n	10003164 <alarm_pool_cancel_alarm+0x44>
10003152:	6903      	ldr	r3, [r0, #16]
10003154:	f3bf 8f5f 	dmb	sy
10003158:	2200      	movs	r2, #0
1000315a:	601a      	str	r2, [r3, #0]
1000315c:	f38c 8810 	msr	PRIMASK, ip
10003160:	2000      	movs	r0, #0
10003162:	bd10      	pop	{r4, pc}
10003164:	2280      	movs	r2, #128	@ 0x80
10003166:	0212      	lsls	r2, r2, #8
10003168:	4314      	orrs	r4, r2
1000316a:	805c      	strh	r4, [r3, #2]
1000316c:	2301      	movs	r3, #1
1000316e:	6902      	ldr	r2, [r0, #16]
10003170:	7183      	strb	r3, [r0, #6]
10003172:	f3bf 8f5f 	dmb	sy
10003176:	2100      	movs	r1, #0
10003178:	6011      	str	r1, [r2, #0]
1000317a:	f38c 8810 	msr	PRIMASK, ip
1000317e:	4904      	ldr	r1, [pc, #16]	@ (10003190 <alarm_pool_cancel_alarm+0x70>)
10003180:	7802      	ldrb	r2, [r0, #0]
10003182:	468c      	mov	ip, r1
10003184:	4093      	lsls	r3, r2
10003186:	68c2      	ldr	r2, [r0, #12]
10003188:	2001      	movs	r0, #1
1000318a:	4462      	add	r2, ip
1000318c:	6013      	str	r3, [r2, #0]
1000318e:	e7e8      	b.n	10003162 <alarm_pool_cancel_alarm+0x42>
10003190:	0000203c 	.word	0x0000203c

10003194 <best_effort_wfe_or_timeout>:
10003194:	b5f0      	push	{r4, r5, r6, r7, lr}
10003196:	4657      	mov	r7, sl
10003198:	464e      	mov	r6, r9
1000319a:	46de      	mov	lr, fp
1000319c:	4645      	mov	r5, r8
1000319e:	b5e0      	push	{r5, r6, r7, lr}
100031a0:	0006      	movs	r6, r0
100031a2:	000f      	movs	r7, r1
100031a4:	b085      	sub	sp, #20
100031a6:	f3ef 8305 	mrs	r3, IPSR
100031aa:	4699      	mov	r9, r3
100031ac:	468b      	mov	fp, r1
100031ae:	2b00      	cmp	r3, #0
100031b0:	d012      	beq.n	100031d8 <best_effort_wfe_or_timeout+0x44>
100031b2:	4938      	ldr	r1, [pc, #224]	@ (10003294 <best_effort_wfe_or_timeout+0x100>)
100031b4:	2000      	movs	r0, #0
100031b6:	6a4b      	ldr	r3, [r1, #36]	@ 0x24
100031b8:	42bb      	cmp	r3, r7
100031ba:	d306      	bcc.n	100031ca <best_effort_wfe_or_timeout+0x36>
100031bc:	6a8a      	ldr	r2, [r1, #40]	@ 0x28
100031be:	1bdb      	subs	r3, r3, r7
100031c0:	1e59      	subs	r1, r3, #1
100031c2:	418b      	sbcs	r3, r1
100031c4:	42b2      	cmp	r2, r6
100031c6:	4140      	adcs	r0, r0
100031c8:	4318      	orrs	r0, r3
100031ca:	b005      	add	sp, #20
100031cc:	bcf0      	pop	{r4, r5, r6, r7}
100031ce:	46bb      	mov	fp, r7
100031d0:	46b2      	mov	sl, r6
100031d2:	46a9      	mov	r9, r5
100031d4:	46a0      	mov	r8, r4
100031d6:	bdf0      	pop	{r4, r5, r6, r7, pc}
100031d8:	4b2f      	ldr	r3, [pc, #188]	@ (10003298 <best_effort_wfe_or_timeout+0x104>)
100031da:	469a      	mov	sl, r3
100031dc:	68db      	ldr	r3, [r3, #12]
100031de:	4698      	mov	r8, r3
100031e0:	4653      	mov	r3, sl
100031e2:	781b      	ldrb	r3, [r3, #0]
100031e4:	4640      	mov	r0, r8
100031e6:	9303      	str	r3, [sp, #12]
100031e8:	f000 f864 	bl	100032b4 <timer_time_us_64>
100031ec:	4642      	mov	r2, r8
100031ee:	9b03      	ldr	r3, [sp, #12]
100031f0:	0004      	movs	r4, r0
100031f2:	3304      	adds	r3, #4
100031f4:	009b      	lsls	r3, r3, #2
100031f6:	589b      	ldr	r3, [r3, r2]
100031f8:	000d      	movs	r5, r1
100031fa:	1a1b      	subs	r3, r3, r0
100031fc:	0039      	movs	r1, r7
100031fe:	0030      	movs	r0, r6
10003200:	1b00      	subs	r0, r0, r4
10003202:	41a9      	sbcs	r1, r5
10003204:	4589      	cmp	r9, r1
10003206:	dc10      	bgt.n	1000322a <best_effort_wfe_or_timeout+0x96>
10003208:	d00d      	beq.n	10003226 <best_effort_wfe_or_timeout+0x92>
1000320a:	bf20      	wfe
1000320c:	4a21      	ldr	r2, [pc, #132]	@ (10003294 <best_effort_wfe_or_timeout+0x100>)
1000320e:	2000      	movs	r0, #0
10003210:	6a53      	ldr	r3, [r2, #36]	@ 0x24
10003212:	455b      	cmp	r3, fp
10003214:	d3d9      	bcc.n	100031ca <best_effort_wfe_or_timeout+0x36>
10003216:	6a92      	ldr	r2, [r2, #40]	@ 0x28
10003218:	1bdb      	subs	r3, r3, r7
1000321a:	1e59      	subs	r1, r3, #1
1000321c:	418b      	sbcs	r3, r1
1000321e:	42b2      	cmp	r2, r6
10003220:	4140      	adcs	r0, r0
10003222:	4318      	orrs	r0, r3
10003224:	e7d1      	b.n	100031ca <best_effort_wfe_or_timeout+0x36>
10003226:	4283      	cmp	r3, r0
10003228:	d9ef      	bls.n	1000320a <best_effort_wfe_or_timeout+0x76>
1000322a:	f000 f84b 	bl	100032c4 <time_us_64>
1000322e:	0032      	movs	r2, r6
10003230:	003b      	movs	r3, r7
10003232:	1a12      	subs	r2, r2, r0
10003234:	418b      	sbcs	r3, r1
10003236:	2b00      	cmp	r3, #0
10003238:	db1a      	blt.n	10003270 <best_effort_wfe_or_timeout+0xdc>
1000323a:	2300      	movs	r3, #0
1000323c:	9301      	str	r3, [sp, #4]
1000323e:	4b17      	ldr	r3, [pc, #92]	@ (1000329c <best_effort_wfe_or_timeout+0x108>)
10003240:	0032      	movs	r2, r6
10003242:	9300      	str	r3, [sp, #0]
10003244:	4650      	mov	r0, sl
10003246:	003b      	movs	r3, r7
10003248:	f7ff ff12 	bl	10003070 <alarm_pool_add_alarm_at_force_in_context>
1000324c:	1e01      	subs	r1, r0, #0
1000324e:	dd0f      	ble.n	10003270 <best_effort_wfe_or_timeout+0xdc>
10003250:	4b10      	ldr	r3, [pc, #64]	@ (10003294 <best_effort_wfe_or_timeout+0x100>)
10003252:	6a5a      	ldr	r2, [r3, #36]	@ 0x24
10003254:	455a      	cmp	r2, fp
10003256:	d31b      	bcc.n	10003290 <best_effort_wfe_or_timeout+0xfc>
10003258:	6a9b      	ldr	r3, [r3, #40]	@ 0x28
1000325a:	42b3      	cmp	r3, r6
1000325c:	d316      	bcc.n	1000328c <best_effort_wfe_or_timeout+0xf8>
1000325e:	4650      	mov	r0, sl
10003260:	f7ff ff5e 	bl	10003120 <alarm_pool_cancel_alarm>
10003264:	4a0b      	ldr	r2, [pc, #44]	@ (10003294 <best_effort_wfe_or_timeout+0x100>)
10003266:	2000      	movs	r0, #0
10003268:	6a53      	ldr	r3, [r2, #36]	@ 0x24
1000326a:	455b      	cmp	r3, fp
1000326c:	d3ad      	bcc.n	100031ca <best_effort_wfe_or_timeout+0x36>
1000326e:	e7d2      	b.n	10003216 <best_effort_wfe_or_timeout+0x82>
10003270:	4a08      	ldr	r2, [pc, #32]	@ (10003294 <best_effort_wfe_or_timeout+0x100>)
10003272:	2000      	movs	r0, #0
10003274:	6a53      	ldr	r3, [r2, #36]	@ 0x24
10003276:	455b      	cmp	r3, fp
10003278:	d3a7      	bcc.n	100031ca <best_effort_wfe_or_timeout+0x36>
1000327a:	2000      	movs	r0, #0
1000327c:	6a92      	ldr	r2, [r2, #40]	@ 0x28
1000327e:	1bdb      	subs	r3, r3, r7
10003280:	42b2      	cmp	r2, r6
10003282:	4140      	adcs	r0, r0
10003284:	1e5a      	subs	r2, r3, #1
10003286:	4193      	sbcs	r3, r2
10003288:	4318      	orrs	r0, r3
1000328a:	e79e      	b.n	100031ca <best_effort_wfe_or_timeout+0x36>
1000328c:	455a      	cmp	r2, fp
1000328e:	d1e6      	bne.n	1000325e <best_effort_wfe_or_timeout+0xca>
10003290:	bf20      	wfe
10003292:	e7e4      	b.n	1000325e <best_effort_wfe_or_timeout+0xca>
10003294:	40054000 	.word	0x40054000
10003298:	20000404 	.word	0x20000404
1000329c:	10002c6d 	.word	0x10002c6d

100032a0 <timer_hardware_alarm_claim>:
100032a0:	b510      	push	{r4, lr}
100032a2:	4a02      	ldr	r2, [pc, #8]	@ (100032ac <timer_hardware_alarm_claim+0xc>)
100032a4:	4802      	ldr	r0, [pc, #8]	@ (100032b0 <timer_hardware_alarm_claim+0x10>)
100032a6:	f7ff fae3 	bl	10002870 <hw_claim_or_assert>
100032aa:	bd10      	pop	{r4, pc}
100032ac:	100062f4 	.word	0x100062f4
100032b0:	20000838 	.word	0x20000838

100032b4 <timer_time_us_64>:
100032b4:	0003      	movs	r3, r0
100032b6:	6a41      	ldr	r1, [r0, #36]	@ 0x24
100032b8:	000a      	movs	r2, r1
100032ba:	6a98      	ldr	r0, [r3, #40]	@ 0x28
100032bc:	6a59      	ldr	r1, [r3, #36]	@ 0x24
100032be:	428a      	cmp	r2, r1
100032c0:	d1fa      	bne.n	100032b8 <timer_time_us_64+0x4>
100032c2:	4770      	bx	lr

100032c4 <time_us_64>:
100032c4:	4b03      	ldr	r3, [pc, #12]	@ (100032d4 <time_us_64+0x10>)
100032c6:	6a59      	ldr	r1, [r3, #36]	@ 0x24
100032c8:	000a      	movs	r2, r1
100032ca:	6a98      	ldr	r0, [r3, #40]	@ 0x28
100032cc:	6a59      	ldr	r1, [r3, #36]	@ 0x24
100032ce:	4291      	cmp	r1, r2
100032d0:	d1fa      	bne.n	100032c8 <time_us_64+0x4>
100032d2:	4770      	bx	lr
100032d4:	40054000 	.word	0x40054000

100032d8 <busy_wait_us>:
100032d8:	b570      	push	{r4, r5, r6, lr}
100032da:	0004      	movs	r4, r0
100032dc:	000d      	movs	r5, r1
100032de:	4a17      	ldr	r2, [pc, #92]	@ (1000333c <busy_wait_us+0x64>)
100032e0:	6a53      	ldr	r3, [r2, #36]	@ 0x24
100032e2:	0019      	movs	r1, r3
100032e4:	6a96      	ldr	r6, [r2, #40]	@ 0x28
100032e6:	6a53      	ldr	r3, [r2, #36]	@ 0x24
100032e8:	428b      	cmp	r3, r1
100032ea:	d1fa      	bne.n	100032e2 <busy_wait_us+0xa>
100032ec:	0030      	movs	r0, r6
100032ee:	0019      	movs	r1, r3
100032f0:	1824      	adds	r4, r4, r0
100032f2:	414d      	adcs	r5, r1
100032f4:	42ab      	cmp	r3, r5
100032f6:	d816      	bhi.n	10003326 <busy_wait_us+0x4e>
100032f8:	d013      	beq.n	10003322 <busy_wait_us+0x4a>
100032fa:	4b10      	ldr	r3, [pc, #64]	@ (1000333c <busy_wait_us+0x64>)
100032fc:	002a      	movs	r2, r5
100032fe:	6a5b      	ldr	r3, [r3, #36]	@ 0x24
10003300:	429d      	cmp	r5, r3
10003302:	d903      	bls.n	1000330c <busy_wait_us+0x34>
10003304:	490d      	ldr	r1, [pc, #52]	@ (1000333c <busy_wait_us+0x64>)
10003306:	6a4b      	ldr	r3, [r1, #36]	@ 0x24
10003308:	4293      	cmp	r3, r2
1000330a:	d3fc      	bcc.n	10003306 <busy_wait_us+0x2e>
1000330c:	4293      	cmp	r3, r2
1000330e:	d107      	bne.n	10003320 <busy_wait_us+0x48>
10003310:	4a0a      	ldr	r2, [pc, #40]	@ (1000333c <busy_wait_us+0x64>)
10003312:	e002      	b.n	1000331a <busy_wait_us+0x42>
10003314:	6a51      	ldr	r1, [r2, #36]	@ 0x24
10003316:	4299      	cmp	r1, r3
10003318:	d102      	bne.n	10003320 <busy_wait_us+0x48>
1000331a:	6a91      	ldr	r1, [r2, #40]	@ 0x28
1000331c:	42a1      	cmp	r1, r4
1000331e:	d3f9      	bcc.n	10003314 <busy_wait_us+0x3c>
10003320:	bd70      	pop	{r4, r5, r6, pc}
10003322:	42a6      	cmp	r6, r4
10003324:	d9e9      	bls.n	100032fa <busy_wait_us+0x22>
10003326:	4b05      	ldr	r3, [pc, #20]	@ (1000333c <busy_wait_us+0x64>)
10003328:	6a5b      	ldr	r3, [r3, #36]	@ 0x24
1000332a:	001c      	movs	r4, r3
1000332c:	1c5a      	adds	r2, r3, #1
1000332e:	d0ef      	beq.n	10003310 <busy_wait_us+0x38>
10003330:	2201      	movs	r2, #1
10003332:	2401      	movs	r4, #1
10003334:	4264      	negs	r4, r4
10003336:	17e5      	asrs	r5, r4, #31
10003338:	4252      	negs	r2, r2
1000333a:	e7e3      	b.n	10003304 <busy_wait_us+0x2c>
1000333c:	40054000 	.word	0x40054000

10003340 <uart_init>:
10003340:	b5f8      	push	{r3, r4, r5, r6, r7, lr}
10003342:	0004      	movs	r4, r0
10003344:	2006      	movs	r0, #6
10003346:	000d      	movs	r5, r1
10003348:	f000 f978 	bl	1000363c <clock_get_hz>
1000334c:	2800      	cmp	r0, #0
1000334e:	d044      	beq.n	100033da <uart_init+0x9a>
10003350:	4b37      	ldr	r3, [pc, #220]	@ (10003430 <uart_init+0xf0>)
10003352:	4938      	ldr	r1, [pc, #224]	@ (10003434 <uart_init+0xf4>)
10003354:	18e3      	adds	r3, r4, r3
10003356:	1e5a      	subs	r2, r3, #1
10003358:	4193      	sbcs	r3, r2
1000335a:	2280      	movs	r2, #128	@ 0x80
1000335c:	0412      	lsls	r2, r2, #16
1000335e:	4694      	mov	ip, r2
10003360:	425b      	negs	r3, r3
10003362:	0d9b      	lsrs	r3, r3, #22
10003364:	4a34      	ldr	r2, [pc, #208]	@ (10003438 <uart_init+0xf8>)
10003366:	059b      	lsls	r3, r3, #22
10003368:	4463      	add	r3, ip
1000336a:	6013      	str	r3, [r2, #0]
1000336c:	4a33      	ldr	r2, [pc, #204]	@ (1000343c <uart_init+0xfc>)
1000336e:	6013      	str	r3, [r2, #0]
10003370:	0018      	movs	r0, r3
10003372:	680a      	ldr	r2, [r1, #0]
10003374:	4390      	bics	r0, r2
10003376:	d1fb      	bne.n	10003370 <uart_init+0x30>
10003378:	4b2d      	ldr	r3, [pc, #180]	@ (10003430 <uart_init+0xf0>)
1000337a:	4a31      	ldr	r2, [pc, #196]	@ (10003440 <uart_init+0x100>)
1000337c:	18e3      	adds	r3, r4, r3
1000337e:	4259      	negs	r1, r3
10003380:	414b      	adcs	r3, r1
10003382:	2180      	movs	r1, #128	@ 0x80
10003384:	005b      	lsls	r3, r3, #1
10003386:	0049      	lsls	r1, r1, #1
10003388:	2006      	movs	r0, #6
1000338a:	5299      	strh	r1, [r3, r2]
1000338c:	f000 f956 	bl	1000363c <clock_get_hz>
10003390:	0029      	movs	r1, r5
10003392:	00c0      	lsls	r0, r0, #3
10003394:	f000 fb4c 	bl	10003a30 <__wrap___aeabi_uidiv>
10003398:	3001      	adds	r0, #1
1000339a:	09c3      	lsrs	r3, r0, #7
1000339c:	d11e      	bne.n	100033dc <uart_init+0x9c>
1000339e:	2740      	movs	r7, #64	@ 0x40
100033a0:	2201      	movs	r2, #1
100033a2:	6262      	str	r2, [r4, #36]	@ 0x24
100033a4:	62a3      	str	r3, [r4, #40]	@ 0x28
100033a6:	6b26      	ldr	r6, [r4, #48]	@ 0x30
100033a8:	07f3      	lsls	r3, r6, #31
100033aa:	d422      	bmi.n	100033f2 <uart_init+0xb2>
100033ac:	6ae3      	ldr	r3, [r4, #44]	@ 0x2c
100033ae:	4b25      	ldr	r3, [pc, #148]	@ (10003444 <uart_init+0x104>)
100033b0:	2006      	movs	r0, #6
100033b2:	18e5      	adds	r5, r4, r3
100033b4:	2300      	movs	r3, #0
100033b6:	602b      	str	r3, [r5, #0]
100033b8:	6326      	str	r6, [r4, #48]	@ 0x30
100033ba:	f000 f93f 	bl	1000363c <clock_get_hz>
100033be:	0039      	movs	r1, r7
100033c0:	0080      	lsls	r0, r0, #2
100033c2:	f000 fb35 	bl	10003a30 <__wrap___aeabi_uidiv>
100033c6:	2370      	movs	r3, #112	@ 0x70
100033c8:	6ae2      	ldr	r2, [r4, #44]	@ 0x2c
100033ca:	405a      	eors	r2, r3
100033cc:	330e      	adds	r3, #14
100033ce:	4013      	ands	r3, r2
100033d0:	602b      	str	r3, [r5, #0]
100033d2:	4b1d      	ldr	r3, [pc, #116]	@ (10003448 <uart_init+0x108>)
100033d4:	6323      	str	r3, [r4, #48]	@ 0x30
100033d6:	2303      	movs	r3, #3
100033d8:	64a3      	str	r3, [r4, #72]	@ 0x48
100033da:	bdf8      	pop	{r3, r4, r5, r6, r7, pc}
100033dc:	4a1b      	ldr	r2, [pc, #108]	@ (1000344c <uart_init+0x10c>)
100033de:	4293      	cmp	r3, r2
100033e0:	d91e      	bls.n	10003420 <uart_init+0xe0>
100033e2:	2300      	movs	r3, #0
100033e4:	4a1a      	ldr	r2, [pc, #104]	@ (10003450 <uart_init+0x110>)
100033e6:	4f1b      	ldr	r7, [pc, #108]	@ (10003454 <uart_init+0x114>)
100033e8:	6262      	str	r2, [r4, #36]	@ 0x24
100033ea:	62a3      	str	r3, [r4, #40]	@ 0x28
100033ec:	6b26      	ldr	r6, [r4, #48]	@ 0x30
100033ee:	07f3      	lsls	r3, r6, #31
100033f0:	d5dc      	bpl.n	100033ac <uart_init+0x6c>
100033f2:	4b19      	ldr	r3, [pc, #100]	@ (10003458 <uart_init+0x118>)
100033f4:	4a14      	ldr	r2, [pc, #80]	@ (10003448 <uart_init+0x108>)
100033f6:	18e3      	adds	r3, r4, r3
100033f8:	601a      	str	r2, [r3, #0]
100033fa:	6a65      	ldr	r5, [r4, #36]	@ 0x24
100033fc:	6aa3      	ldr	r3, [r4, #40]	@ 0x28
100033fe:	2006      	movs	r0, #6
10003400:	01ad      	lsls	r5, r5, #6
10003402:	18ed      	adds	r5, r5, r3
10003404:	f000 f91a 	bl	1000363c <clock_get_hz>
10003408:	4914      	ldr	r1, [pc, #80]	@ (1000345c <uart_init+0x11c>)
1000340a:	f000 fb11 	bl	10003a30 <__wrap___aeabi_uidiv>
1000340e:	02ad      	lsls	r5, r5, #10
10003410:	0001      	movs	r1, r0
10003412:	0028      	movs	r0, r5
10003414:	f000 fb0c 	bl	10003a30 <__wrap___aeabi_uidiv>
10003418:	2100      	movs	r1, #0
1000341a:	f7ff ff5d 	bl	100032d8 <busy_wait_us>
1000341e:	e7c5      	b.n	100033ac <uart_init+0x6c>
10003420:	0640      	lsls	r0, r0, #25
10003422:	0e80      	lsrs	r0, r0, #26
10003424:	019f      	lsls	r7, r3, #6
10003426:	001a      	movs	r2, r3
10003428:	183f      	adds	r7, r7, r0
1000342a:	0003      	movs	r3, r0
1000342c:	e7b9      	b.n	100033a2 <uart_init+0x62>
1000342e:	46c0      	nop			@ (mov r8, r8)
10003430:	bffc8000 	.word	0xbffc8000
10003434:	4000c008 	.word	0x4000c008
10003438:	4000e000 	.word	0x4000e000
1000343c:	4000f000 	.word	0x4000f000
10003440:	2000114c 	.word	0x2000114c
10003444:	0000102c 	.word	0x0000102c
10003448:	00000301 	.word	0x00000301
1000344c:	0000fffe 	.word	0x0000fffe
10003450:	0000ffff 	.word	0x0000ffff
10003454:	003fffc0 	.word	0x003fffc0
10003458:	00003030 	.word	0x00003030
1000345c:	00000e4e 	.word	0x00000e4e

10003460 <clock_configure_int_divider>:
10003460:	b5f8      	push	{r3, r4, r5, r6, r7, lr}
10003462:	46de      	mov	lr, fp
10003464:	464e      	mov	r6, r9
10003466:	4657      	mov	r7, sl
10003468:	4645      	mov	r5, r8
1000346a:	b5e0      	push	{r5, r6, r7, lr}
1000346c:	468b      	mov	fp, r1
1000346e:	0005      	movs	r5, r0
10003470:	990a      	ldr	r1, [sp, #40]	@ 0x28
10003472:	0018      	movs	r0, r3
10003474:	0016      	movs	r6, r2
10003476:	f000 fadb 	bl	10003a30 <__wrap___aeabi_uidiv>
1000347a:	9b0a      	ldr	r3, [sp, #40]	@ 0x28
1000347c:	006c      	lsls	r4, r5, #1
1000347e:	021f      	lsls	r7, r3, #8
10003480:	4b32      	ldr	r3, [pc, #200]	@ (1000354c <clock_configure_int_divider+0xec>)
10003482:	1964      	adds	r4, r4, r5
10003484:	469c      	mov	ip, r3
10003486:	00a4      	lsls	r4, r4, #2
10003488:	4464      	add	r4, ip
1000348a:	6863      	ldr	r3, [r4, #4]
1000348c:	4681      	mov	r9, r0
1000348e:	429f      	cmp	r7, r3
10003490:	d900      	bls.n	10003494 <clock_configure_int_divider+0x34>
10003492:	6067      	str	r7, [r4, #4]
10003494:	1f2b      	subs	r3, r5, #4
10003496:	b2db      	uxtb	r3, r3
10003498:	4698      	mov	r8, r3
1000349a:	2b01      	cmp	r3, #1
1000349c:	d930      	bls.n	10003500 <clock_configure_int_divider+0xa0>
1000349e:	23c0      	movs	r3, #192	@ 0xc0
100034a0:	2280      	movs	r2, #128	@ 0x80
100034a2:	019b      	lsls	r3, r3, #6
100034a4:	18e3      	adds	r3, r4, r3
100034a6:	0112      	lsls	r2, r2, #4
100034a8:	601a      	str	r2, [r3, #0]
100034aa:	4b29      	ldr	r3, [pc, #164]	@ (10003550 <clock_configure_int_divider+0xf0>)
100034ac:	00ad      	lsls	r5, r5, #2
100034ae:	5959      	ldr	r1, [r3, r5]
100034b0:	469a      	mov	sl, r3
100034b2:	2900      	cmp	r1, #0
100034b4:	d11b      	bne.n	100034ee <clock_configure_int_divider+0x8e>
100034b6:	0173      	lsls	r3, r6, #5
100034b8:	26e0      	movs	r6, #224	@ 0xe0
100034ba:	6822      	ldr	r2, [r4, #0]
100034bc:	4053      	eors	r3, r2
100034be:	401e      	ands	r6, r3
100034c0:	2380      	movs	r3, #128	@ 0x80
100034c2:	4642      	mov	r2, r8
100034c4:	015b      	lsls	r3, r3, #5
100034c6:	18e3      	adds	r3, r4, r3
100034c8:	601e      	str	r6, [r3, #0]
100034ca:	2a01      	cmp	r2, #1
100034cc:	d930      	bls.n	10003530 <clock_configure_int_divider+0xd0>
100034ce:	2380      	movs	r3, #128	@ 0x80
100034d0:	2280      	movs	r2, #128	@ 0x80
100034d2:	019b      	lsls	r3, r3, #6
100034d4:	18e3      	adds	r3, r4, r3
100034d6:	0112      	lsls	r2, r2, #4
100034d8:	601a      	str	r2, [r3, #0]
100034da:	4653      	mov	r3, sl
100034dc:	464a      	mov	r2, r9
100034de:	6067      	str	r7, [r4, #4]
100034e0:	515a      	str	r2, [r3, r5]
100034e2:	bcf0      	pop	{r4, r5, r6, r7}
100034e4:	46bb      	mov	fp, r7
100034e6:	46b2      	mov	sl, r6
100034e8:	46a9      	mov	r9, r5
100034ea:	46a0      	mov	r8, r4
100034ec:	bdf8      	pop	{r3, r4, r5, r6, r7, pc}
100034ee:	6958      	ldr	r0, [r3, #20]
100034f0:	f000 fa9e 	bl	10003a30 <__wrap___aeabi_uidiv>
100034f4:	3001      	adds	r0, #1
100034f6:	0043      	lsls	r3, r0, #1
100034f8:	181b      	adds	r3, r3, r0
100034fa:	3b03      	subs	r3, #3
100034fc:	d2fd      	bcs.n	100034fa <clock_configure_int_divider+0x9a>
100034fe:	e7da      	b.n	100034b6 <clock_configure_int_divider+0x56>
10003500:	465b      	mov	r3, fp
10003502:	2b01      	cmp	r3, #1
10003504:	d1cb      	bne.n	1000349e <clock_configure_int_divider+0x3e>
10003506:	23c0      	movs	r3, #192	@ 0xc0
10003508:	2203      	movs	r2, #3
1000350a:	019b      	lsls	r3, r3, #6
1000350c:	18e3      	adds	r3, r4, r3
1000350e:	601a      	str	r2, [r3, #0]
10003510:	3a02      	subs	r2, #2
10003512:	68a3      	ldr	r3, [r4, #8]
10003514:	421a      	tst	r2, r3
10003516:	d0fc      	beq.n	10003512 <clock_configure_int_divider+0xb2>
10003518:	0173      	lsls	r3, r6, #5
1000351a:	26e0      	movs	r6, #224	@ 0xe0
1000351c:	6822      	ldr	r2, [r4, #0]
1000351e:	00ad      	lsls	r5, r5, #2
10003520:	4053      	eors	r3, r2
10003522:	401e      	ands	r6, r3
10003524:	2380      	movs	r3, #128	@ 0x80
10003526:	4a0a      	ldr	r2, [pc, #40]	@ (10003550 <clock_configure_int_divider+0xf0>)
10003528:	015b      	lsls	r3, r3, #5
1000352a:	4692      	mov	sl, r2
1000352c:	18e3      	adds	r3, r4, r3
1000352e:	601e      	str	r6, [r3, #0]
10003530:	465a      	mov	r2, fp
10003532:	6821      	ldr	r1, [r4, #0]
10003534:	4051      	eors	r1, r2
10003536:	2203      	movs	r2, #3
10003538:	400a      	ands	r2, r1
1000353a:	601a      	str	r2, [r3, #0]
1000353c:	2201      	movs	r2, #1
1000353e:	465b      	mov	r3, fp
10003540:	409a      	lsls	r2, r3
10003542:	68a3      	ldr	r3, [r4, #8]
10003544:	421a      	tst	r2, r3
10003546:	d0fc      	beq.n	10003542 <clock_configure_int_divider+0xe2>
10003548:	e7c1      	b.n	100034ce <clock_configure_int_divider+0x6e>
1000354a:	46c0      	nop			@ (mov r8, r8)
1000354c:	40008000 	.word	0x40008000
10003550:	2000083c 	.word	0x2000083c

10003554 <clock_configure_undivided>:
10003554:	b5f0      	push	{r4, r5, r6, r7, lr}
10003556:	4646      	mov	r6, r8
10003558:	464f      	mov	r7, r9
1000355a:	46d6      	mov	lr, sl
1000355c:	b5c0      	push	{r6, r7, lr}
1000355e:	001f      	movs	r7, r3
10003560:	4b34      	ldr	r3, [pc, #208]	@ (10003634 <clock_configure_undivided+0xe0>)
10003562:	0044      	lsls	r4, r0, #1
10003564:	469c      	mov	ip, r3
10003566:	1824      	adds	r4, r4, r0
10003568:	00a4      	lsls	r4, r4, #2
1000356a:	4464      	add	r4, ip
1000356c:	6863      	ldr	r3, [r4, #4]
1000356e:	4688      	mov	r8, r1
10003570:	0016      	movs	r6, r2
10003572:	2bff      	cmp	r3, #255	@ 0xff
10003574:	d802      	bhi.n	1000357c <clock_configure_undivided+0x28>
10003576:	2380      	movs	r3, #128	@ 0x80
10003578:	005b      	lsls	r3, r3, #1
1000357a:	6063      	str	r3, [r4, #4]
1000357c:	1f03      	subs	r3, r0, #4
1000357e:	b2db      	uxtb	r3, r3
10003580:	469a      	mov	sl, r3
10003582:	2b01      	cmp	r3, #1
10003584:	d930      	bls.n	100035e8 <clock_configure_undivided+0x94>
10003586:	23c0      	movs	r3, #192	@ 0xc0
10003588:	2280      	movs	r2, #128	@ 0x80
1000358a:	019b      	lsls	r3, r3, #6
1000358c:	18e3      	adds	r3, r4, r3
1000358e:	0112      	lsls	r2, r2, #4
10003590:	601a      	str	r2, [r3, #0]
10003592:	4b29      	ldr	r3, [pc, #164]	@ (10003638 <clock_configure_undivided+0xe4>)
10003594:	0085      	lsls	r5, r0, #2
10003596:	5959      	ldr	r1, [r3, r5]
10003598:	4699      	mov	r9, r3
1000359a:	2900      	cmp	r1, #0
1000359c:	d11b      	bne.n	100035d6 <clock_configure_undivided+0x82>
1000359e:	0173      	lsls	r3, r6, #5
100035a0:	26e0      	movs	r6, #224	@ 0xe0
100035a2:	6822      	ldr	r2, [r4, #0]
100035a4:	4053      	eors	r3, r2
100035a6:	401e      	ands	r6, r3
100035a8:	2380      	movs	r3, #128	@ 0x80
100035aa:	4652      	mov	r2, sl
100035ac:	015b      	lsls	r3, r3, #5
100035ae:	18e3      	adds	r3, r4, r3
100035b0:	601e      	str	r6, [r3, #0]
100035b2:	2a01      	cmp	r2, #1
100035b4:	d930      	bls.n	10003618 <clock_configure_undivided+0xc4>
100035b6:	2380      	movs	r3, #128	@ 0x80
100035b8:	2280      	movs	r2, #128	@ 0x80
100035ba:	019b      	lsls	r3, r3, #6
100035bc:	18e3      	adds	r3, r4, r3
100035be:	0112      	lsls	r2, r2, #4
100035c0:	601a      	str	r2, [r3, #0]
100035c2:	2380      	movs	r3, #128	@ 0x80
100035c4:	005b      	lsls	r3, r3, #1
100035c6:	6063      	str	r3, [r4, #4]
100035c8:	464b      	mov	r3, r9
100035ca:	515f      	str	r7, [r3, r5]
100035cc:	bce0      	pop	{r5, r6, r7}
100035ce:	46ba      	mov	sl, r7
100035d0:	46b1      	mov	r9, r6
100035d2:	46a8      	mov	r8, r5
100035d4:	bdf0      	pop	{r4, r5, r6, r7, pc}
100035d6:	6958      	ldr	r0, [r3, #20]
100035d8:	f000 fa2a 	bl	10003a30 <__wrap___aeabi_uidiv>
100035dc:	3001      	adds	r0, #1
100035de:	0043      	lsls	r3, r0, #1
100035e0:	181b      	adds	r3, r3, r0
100035e2:	3b03      	subs	r3, #3
100035e4:	d2fd      	bcs.n	100035e2 <clock_configure_undivided+0x8e>
100035e6:	e7da      	b.n	1000359e <clock_configure_undivided+0x4a>
100035e8:	4643      	mov	r3, r8
100035ea:	2b01      	cmp	r3, #1
100035ec:	d1cb      	bne.n	10003586 <clock_configure_undivided+0x32>
100035ee:	23c0      	movs	r3, #192	@ 0xc0
100035f0:	2203      	movs	r2, #3
100035f2:	019b      	lsls	r3, r3, #6
100035f4:	18e3      	adds	r3, r4, r3
100035f6:	601a      	str	r2, [r3, #0]
100035f8:	3a02      	subs	r2, #2
100035fa:	68a3      	ldr	r3, [r4, #8]
100035fc:	421a      	tst	r2, r3
100035fe:	d0fc      	beq.n	100035fa <clock_configure_undivided+0xa6>
10003600:	0173      	lsls	r3, r6, #5
10003602:	26e0      	movs	r6, #224	@ 0xe0
10003604:	6822      	ldr	r2, [r4, #0]
10003606:	0085      	lsls	r5, r0, #2
10003608:	4053      	eors	r3, r2
1000360a:	401e      	ands	r6, r3
1000360c:	2380      	movs	r3, #128	@ 0x80
1000360e:	4a0a      	ldr	r2, [pc, #40]	@ (10003638 <clock_configure_undivided+0xe4>)
10003610:	015b      	lsls	r3, r3, #5
10003612:	4691      	mov	r9, r2
10003614:	18e3      	adds	r3, r4, r3
10003616:	601e      	str	r6, [r3, #0]
10003618:	4642      	mov	r2, r8
1000361a:	6821      	ldr	r1, [r4, #0]
1000361c:	4051      	eors	r1, r2
1000361e:	2203      	movs	r2, #3
10003620:	400a      	ands	r2, r1
10003622:	601a      	str	r2, [r3, #0]
10003624:	2301      	movs	r3, #1
10003626:	4642      	mov	r2, r8
10003628:	4093      	lsls	r3, r2
1000362a:	68a2      	ldr	r2, [r4, #8]
1000362c:	4213      	tst	r3, r2
1000362e:	d0fc      	beq.n	1000362a <clock_configure_undivided+0xd6>
10003630:	e7c1      	b.n	100035b6 <clock_configure_undivided+0x62>
10003632:	46c0      	nop			@ (mov r8, r8)
10003634:	40008000 	.word	0x40008000
10003638:	2000083c 	.word	0x2000083c

1000363c <clock_get_hz>:
1000363c:	4b01      	ldr	r3, [pc, #4]	@ (10003644 <clock_get_hz+0x8>)
1000363e:	0080      	lsls	r0, r0, #2
10003640:	58c0      	ldr	r0, [r0, r3]
10003642:	4770      	bx	lr
10003644:	2000083c 	.word	0x2000083c

10003648 <pll_init>:
10003648:	b5f8      	push	{r3, r4, r5, r6, r7, lr}
1000364a:	0004      	movs	r4, r0
1000364c:	4821      	ldr	r0, [pc, #132]	@ (100036d4 <pll_init+0x8c>)
1000364e:	001e      	movs	r6, r3
10003650:	0017      	movs	r7, r2
10003652:	000d      	movs	r5, r1
10003654:	f000 f9ec 	bl	10003a30 <__wrap___aeabi_uidiv>
10003658:	0001      	movs	r1, r0
1000365a:	0038      	movs	r0, r7
1000365c:	f000 f9e8 	bl	10003a30 <__wrap___aeabi_uidiv>
10003660:	9b06      	ldr	r3, [sp, #24]
10003662:	0436      	lsls	r6, r6, #16
10003664:	031b      	lsls	r3, r3, #12
10003666:	431e      	orrs	r6, r3
10003668:	6823      	ldr	r3, [r4, #0]
1000366a:	2b00      	cmp	r3, #0
1000366c:	db20      	blt.n	100036b0 <pll_init+0x68>
1000366e:	4b1a      	ldr	r3, [pc, #104]	@ (100036d8 <pll_init+0x90>)
10003670:	491a      	ldr	r1, [pc, #104]	@ (100036dc <pll_init+0x94>)
10003672:	18e3      	adds	r3, r4, r3
10003674:	1e5a      	subs	r2, r3, #1
10003676:	4193      	sbcs	r3, r2
10003678:	2280      	movs	r2, #128	@ 0x80
1000367a:	0192      	lsls	r2, r2, #6
1000367c:	4694      	mov	ip, r2
1000367e:	425b      	negs	r3, r3
10003680:	0b1b      	lsrs	r3, r3, #12
10003682:	4a17      	ldr	r2, [pc, #92]	@ (100036e0 <pll_init+0x98>)
10003684:	031b      	lsls	r3, r3, #12
10003686:	4463      	add	r3, ip
10003688:	6013      	str	r3, [r2, #0]
1000368a:	4a16      	ldr	r2, [pc, #88]	@ (100036e4 <pll_init+0x9c>)
1000368c:	6013      	str	r3, [r2, #0]
1000368e:	001f      	movs	r7, r3
10003690:	680a      	ldr	r2, [r1, #0]
10003692:	4397      	bics	r7, r2
10003694:	d1fb      	bne.n	1000368e <pll_init+0x46>
10003696:	4b14      	ldr	r3, [pc, #80]	@ (100036e8 <pll_init+0xa0>)
10003698:	6025      	str	r5, [r4, #0]
1000369a:	18e2      	adds	r2, r4, r3
1000369c:	2321      	movs	r3, #33	@ 0x21
1000369e:	60a0      	str	r0, [r4, #8]
100036a0:	6013      	str	r3, [r2, #0]
100036a2:	6823      	ldr	r3, [r4, #0]
100036a4:	2b00      	cmp	r3, #0
100036a6:	dafc      	bge.n	100036a2 <pll_init+0x5a>
100036a8:	2308      	movs	r3, #8
100036aa:	60e6      	str	r6, [r4, #12]
100036ac:	6013      	str	r3, [r2, #0]
100036ae:	bdf8      	pop	{r3, r4, r5, r6, r7, pc}
100036b0:	233f      	movs	r3, #63	@ 0x3f
100036b2:	6822      	ldr	r2, [r4, #0]
100036b4:	4013      	ands	r3, r2
100036b6:	42ab      	cmp	r3, r5
100036b8:	d1d9      	bne.n	1000366e <pll_init+0x26>
100036ba:	68a3      	ldr	r3, [r4, #8]
100036bc:	051b      	lsls	r3, r3, #20
100036be:	0d1b      	lsrs	r3, r3, #20
100036c0:	4283      	cmp	r3, r0
100036c2:	d1d4      	bne.n	1000366e <pll_init+0x26>
100036c4:	22ee      	movs	r2, #238	@ 0xee
100036c6:	68e3      	ldr	r3, [r4, #12]
100036c8:	02d2      	lsls	r2, r2, #11
100036ca:	4013      	ands	r3, r2
100036cc:	42b3      	cmp	r3, r6
100036ce:	d1ce      	bne.n	1000366e <pll_init+0x26>
100036d0:	e7ed      	b.n	100036ae <pll_init+0x66>
100036d2:	46c0      	nop			@ (mov r8, r8)
100036d4:	00b71b00 	.word	0x00b71b00
100036d8:	bffd4000 	.word	0xbffd4000
100036dc:	4000c008 	.word	0x4000c008
100036e0:	4000e000 	.word	0x4000e000
100036e4:	4000f000 	.word	0x4000f000
100036e8:	00003004 	.word	0x00003004

100036ec <tick_start>:
100036ec:	2380      	movs	r3, #128	@ 0x80
100036ee:	4a02      	ldr	r2, [pc, #8]	@ (100036f8 <tick_start+0xc>)
100036f0:	009b      	lsls	r3, r3, #2
100036f2:	430b      	orrs	r3, r1
100036f4:	62d3      	str	r3, [r2, #44]	@ 0x2c
100036f6:	4770      	bx	lr
100036f8:	40058000 	.word	0x40058000

100036fc <rom_func_lookup>:
100036fc:	2300      	movs	r3, #0
100036fe:	b510      	push	{r4, lr}
10003700:	0001      	movs	r1, r0
10003702:	8a98      	ldrh	r0, [r3, #20]
10003704:	8b1b      	ldrh	r3, [r3, #24]
10003706:	4798      	blx	r3
10003708:	bd10      	pop	{r4, pc}
1000370a:	46c0      	nop			@ (mov r8, r8)

1000370c <rom_data_lookup>:
1000370c:	2316      	movs	r3, #22
1000370e:	b510      	push	{r4, lr}
10003710:	0001      	movs	r1, r0
10003712:	8818      	ldrh	r0, [r3, #0]
10003714:	3302      	adds	r3, #2
10003716:	881b      	ldrh	r3, [r3, #0]
10003718:	4798      	blx	r3
1000371a:	bd10      	pop	{r4, pc}

1000371c <rom_funcs_lookup>:
1000371c:	b5f8      	push	{r3, r4, r5, r6, r7, lr}
1000371e:	4647      	mov	r7, r8
10003720:	46ce      	mov	lr, r9
10003722:	b580      	push	{r7, lr}
10003724:	1e0f      	subs	r7, r1, #0
10003726:	d018      	beq.n	1000375a <rom_funcs_lookup+0x3e>
10003728:	2314      	movs	r3, #20
1000372a:	4699      	mov	r9, r3
1000372c:	3304      	adds	r3, #4
1000372e:	0004      	movs	r4, r0
10003730:	2500      	movs	r5, #0
10003732:	2601      	movs	r6, #1
10003734:	4698      	mov	r8, r3
10003736:	464b      	mov	r3, r9
10003738:	8818      	ldrh	r0, [r3, #0]
1000373a:	4643      	mov	r3, r8
1000373c:	6821      	ldr	r1, [r4, #0]
1000373e:	881b      	ldrh	r3, [r3, #0]
10003740:	4798      	blx	r3
10003742:	c401      	stmia	r4!, {r0}
10003744:	1e43      	subs	r3, r0, #1
10003746:	4198      	sbcs	r0, r3
10003748:	3501      	adds	r5, #1
1000374a:	4006      	ands	r6, r0
1000374c:	42af      	cmp	r7, r5
1000374e:	d1f2      	bne.n	10003736 <rom_funcs_lookup+0x1a>
10003750:	0030      	movs	r0, r6
10003752:	bcc0      	pop	{r6, r7}
10003754:	46b9      	mov	r9, r7
10003756:	46b0      	mov	r8, r6
10003758:	bdf8      	pop	{r3, r4, r5, r6, r7, pc}
1000375a:	2601      	movs	r6, #1
1000375c:	e7f8      	b.n	10003750 <rom_funcs_lookup+0x34>
1000375e:	46c0      	nop			@ (mov r8, r8)

10003760 <xosc_init>:
10003760:	23aa      	movs	r3, #170	@ 0xaa
10003762:	4a06      	ldr	r2, [pc, #24]	@ (1000377c <xosc_init+0x1c>)
10003764:	011b      	lsls	r3, r3, #4
10003766:	6013      	str	r3, [r2, #0]
10003768:	238d      	movs	r3, #141	@ 0x8d
1000376a:	005b      	lsls	r3, r3, #1
1000376c:	60d3      	str	r3, [r2, #12]
1000376e:	4904      	ldr	r1, [pc, #16]	@ (10003780 <xosc_init+0x20>)
10003770:	4b04      	ldr	r3, [pc, #16]	@ (10003784 <xosc_init+0x24>)
10003772:	6019      	str	r1, [r3, #0]
10003774:	6853      	ldr	r3, [r2, #4]
10003776:	2b00      	cmp	r3, #0
10003778:	dafc      	bge.n	10003774 <xosc_init+0x14>
1000377a:	4770      	bx	lr
1000377c:	40024000 	.word	0x40024000
10003780:	00fab000 	.word	0x00fab000
10003784:	40026000 	.word	0x40026000

10003788 <first_per_core_initializer>:
10003788:	4770      	bx	lr
1000378a:	46c0      	nop			@ (mov r8, r8)

1000378c <hard_assertion_failure>:
1000378c:	b510      	push	{r4, lr}
1000378e:	4801      	ldr	r0, [pc, #4]	@ (10003794 <hard_assertion_failure+0x8>)
10003790:	f7ff f850 	bl	10002834 <panic>
10003794:	10006318 	.word	0x10006318

10003798 <runtime_run_initializers>:
10003798:	b570      	push	{r4, r5, r6, lr}
1000379a:	4d07      	ldr	r5, [pc, #28]	@ (100037b8 <runtime_run_initializers+0x20>)
1000379c:	4e07      	ldr	r6, [pc, #28]	@ (100037bc <runtime_run_initializers+0x24>)
1000379e:	42b5      	cmp	r5, r6
100037a0:	d209      	bcs.n	100037b6 <runtime_run_initializers+0x1e>
100037a2:	2400      	movs	r4, #0
100037a4:	3e01      	subs	r6, #1
100037a6:	1b76      	subs	r6, r6, r5
100037a8:	08b6      	lsrs	r6, r6, #2
100037aa:	cd08      	ldmia	r5!, {r3}
100037ac:	4798      	blx	r3
100037ae:	0023      	movs	r3, r4
100037b0:	3401      	adds	r4, #1
100037b2:	42b3      	cmp	r3, r6
100037b4:	d1f9      	bne.n	100037aa <runtime_run_initializers+0x12>
100037b6:	bd70      	pop	{r4, r5, r6, pc}
100037b8:	10006230 	.word	0x10006230
100037bc:	1000626c 	.word	0x1000626c

100037c0 <runtime_init_early_resets>:
100037c0:	4b05      	ldr	r3, [pc, #20]	@ (100037d8 <runtime_init_early_resets+0x18>)
100037c2:	4a06      	ldr	r2, [pc, #24]	@ (100037dc <runtime_init_early_resets+0x1c>)
100037c4:	4906      	ldr	r1, [pc, #24]	@ (100037e0 <runtime_init_early_resets+0x20>)
100037c6:	601a      	str	r2, [r3, #0]
100037c8:	4a06      	ldr	r2, [pc, #24]	@ (100037e4 <runtime_init_early_resets+0x24>)
100037ca:	4b07      	ldr	r3, [pc, #28]	@ (100037e8 <runtime_init_early_resets+0x28>)
100037cc:	601a      	str	r2, [r3, #0]
100037ce:	0010      	movs	r0, r2
100037d0:	680b      	ldr	r3, [r1, #0]
100037d2:	4398      	bics	r0, r3
100037d4:	d1fb      	bne.n	100037ce <runtime_init_early_resets+0xe>
100037d6:	4770      	bx	lr
100037d8:	4000e000 	.word	0x4000e000
100037dc:	fefbcdbf 	.word	0xfefbcdbf
100037e0:	4000c008 	.word	0x4000c008
100037e4:	003c7ffe 	.word	0x003c7ffe
100037e8:	4000f000 	.word	0x4000f000

100037ec <runtime_init_usb_power_down>:
100037ec:	4b04      	ldr	r3, [pc, #16]	@ (10003800 <runtime_init_usb_power_down+0x14>)
100037ee:	6cdb      	ldr	r3, [r3, #76]	@ 0x4c
100037f0:	2b00      	cmp	r3, #0
100037f2:	d103      	bne.n	100037fc <runtime_init_usb_power_down+0x10>
100037f4:	2280      	movs	r2, #128	@ 0x80
100037f6:	4b03      	ldr	r3, [pc, #12]	@ (10003804 <runtime_init_usb_power_down+0x18>)
100037f8:	02d2      	lsls	r2, r2, #11
100037fa:	601a      	str	r2, [r3, #0]
100037fc:	4770      	bx	lr
100037fe:	46c0      	nop			@ (mov r8, r8)
10003800:	50110000 	.word	0x50110000
10003804:	5011204c 	.word	0x5011204c

10003808 <runtime_init_post_clock_resets>:
10003808:	4a04      	ldr	r2, [pc, #16]	@ (1000381c <runtime_init_post_clock_resets+0x14>)
1000380a:	4b05      	ldr	r3, [pc, #20]	@ (10003820 <runtime_init_post_clock_resets+0x18>)
1000380c:	601a      	str	r2, [r3, #0]
1000380e:	4a05      	ldr	r2, [pc, #20]	@ (10003824 <runtime_init_post_clock_resets+0x1c>)
10003810:	6813      	ldr	r3, [r2, #0]
10003812:	01db      	lsls	r3, r3, #7
10003814:	3380      	adds	r3, #128	@ 0x80
10003816:	d1fb      	bne.n	10003810 <runtime_init_post_clock_resets+0x8>
10003818:	4770      	bx	lr
1000381a:	46c0      	nop			@ (mov r8, r8)
1000381c:	01ffffff 	.word	0x01ffffff
10003820:	4000f000 	.word	0x4000f000
10003824:	4000c008 	.word	0x4000c008

10003828 <runtime_init_rp2040_gpio_ie_disable>:
10003828:	2240      	movs	r2, #64	@ 0x40
1000382a:	4b03      	ldr	r3, [pc, #12]	@ (10003838 <runtime_init_rp2040_gpio_ie_disable+0x10>)
1000382c:	679a      	str	r2, [r3, #120]	@ 0x78
1000382e:	675a      	str	r2, [r3, #116]	@ 0x74
10003830:	671a      	str	r2, [r3, #112]	@ 0x70
10003832:	66da      	str	r2, [r3, #108]	@ 0x6c
10003834:	4770      	bx	lr
10003836:	46c0      	nop			@ (mov r8, r8)
10003838:	4001f000 	.word	0x4001f000

1000383c <runtime_init_spin_locks_reset>:
1000383c:	b510      	push	{r4, lr}
1000383e:	f7ff f845 	bl	100028cc <spin_locks_reset>
10003842:	bd10      	pop	{r4, pc}

10003844 <runtime_init_install_ram_vector_table>:
10003844:	b5f8      	push	{r3, r4, r5, r6, r7, lr}
10003846:	4927      	ldr	r1, [pc, #156]	@ (100038e4 <runtime_init_install_ram_vector_table+0xa0>)
10003848:	4c27      	ldr	r4, [pc, #156]	@ (100038e8 <runtime_init_install_ram_vector_table+0xa4>)
1000384a:	4d28      	ldr	r5, [pc, #160]	@ (100038ec <runtime_init_install_ram_vector_table+0xa8>)
1000384c:	1a64      	subs	r4, r4, r1
1000384e:	10a6      	asrs	r6, r4, #2
10003850:	0032      	movs	r2, r6
10003852:	2e30      	cmp	r6, #48	@ 0x30
10003854:	d900      	bls.n	10003858 <runtime_init_install_ram_vector_table+0x14>
10003856:	2230      	movs	r2, #48	@ 0x30
10003858:	0028      	movs	r0, r5
1000385a:	0092      	lsls	r2, r2, #2
1000385c:	f000 fcaa 	bl	100041b4 <__wrap___aeabi_memcpy>
10003860:	2cbc      	cmp	r4, #188	@ 0xbc
10003862:	d83b      	bhi.n	100038dc <runtime_init_install_ram_vector_table+0x98>
10003864:	2030      	movs	r0, #48	@ 0x30
10003866:	232f      	movs	r3, #47	@ 0x2f
10003868:	192c      	adds	r4, r5, r4
1000386a:	0764      	lsls	r4, r4, #29
1000386c:	4a20      	ldr	r2, [pc, #128]	@ (100038f0 <runtime_init_install_ram_vector_table+0xac>)
1000386e:	1b80      	subs	r0, r0, r6
10003870:	0fe4      	lsrs	r4, r4, #31
10003872:	1b9b      	subs	r3, r3, r6
10003874:	2b05      	cmp	r3, #5
10003876:	d916      	bls.n	100038a6 <runtime_init_install_ram_vector_table+0x62>
10003878:	0037      	movs	r7, r6
1000387a:	2c00      	cmp	r4, #0
1000387c:	d002      	beq.n	10003884 <runtime_init_install_ram_vector_table+0x40>
1000387e:	00b3      	lsls	r3, r6, #2
10003880:	1c77      	adds	r7, r6, #1
10003882:	50ea      	str	r2, [r5, r3]
10003884:	1b00      	subs	r0, r0, r4
10003886:	1933      	adds	r3, r6, r4
10003888:	009b      	lsls	r3, r3, #2
1000388a:	0841      	lsrs	r1, r0, #1
1000388c:	18eb      	adds	r3, r5, r3
1000388e:	00c9      	lsls	r1, r1, #3
10003890:	18c9      	adds	r1, r1, r3
10003892:	601a      	str	r2, [r3, #0]
10003894:	605a      	str	r2, [r3, #4]
10003896:	3308      	adds	r3, #8
10003898:	4299      	cmp	r1, r3
1000389a:	d1fa      	bne.n	10003892 <runtime_init_install_ram_vector_table+0x4e>
1000389c:	2301      	movs	r3, #1
1000389e:	4203      	tst	r3, r0
100038a0:	d01c      	beq.n	100038dc <runtime_init_install_ram_vector_table+0x98>
100038a2:	4398      	bics	r0, r3
100038a4:	19c6      	adds	r6, r0, r7
100038a6:	00b3      	lsls	r3, r6, #2
100038a8:	50ea      	str	r2, [r5, r3]
100038aa:	1c73      	adds	r3, r6, #1
100038ac:	2e2f      	cmp	r6, #47	@ 0x2f
100038ae:	d015      	beq.n	100038dc <runtime_init_install_ram_vector_table+0x98>
100038b0:	009b      	lsls	r3, r3, #2
100038b2:	50ea      	str	r2, [r5, r3]
100038b4:	1cb3      	adds	r3, r6, #2
100038b6:	2e2e      	cmp	r6, #46	@ 0x2e
100038b8:	d010      	beq.n	100038dc <runtime_init_install_ram_vector_table+0x98>
100038ba:	009b      	lsls	r3, r3, #2
100038bc:	50ea      	str	r2, [r5, r3]
100038be:	1cf3      	adds	r3, r6, #3
100038c0:	2e2d      	cmp	r6, #45	@ 0x2d
100038c2:	d00b      	beq.n	100038dc <runtime_init_install_ram_vector_table+0x98>
100038c4:	009b      	lsls	r3, r3, #2
100038c6:	50ea      	str	r2, [r5, r3]
100038c8:	1d33      	adds	r3, r6, #4
100038ca:	2e2c      	cmp	r6, #44	@ 0x2c
100038cc:	d006      	beq.n	100038dc <runtime_init_install_ram_vector_table+0x98>
100038ce:	009b      	lsls	r3, r3, #2
100038d0:	50ea      	str	r2, [r5, r3]
100038d2:	1d73      	adds	r3, r6, #5
100038d4:	2e2b      	cmp	r6, #43	@ 0x2b
100038d6:	d001      	beq.n	100038dc <runtime_init_install_ram_vector_table+0x98>
100038d8:	009b      	lsls	r3, r3, #2
100038da:	50ea      	str	r2, [r5, r3]
100038dc:	4b05      	ldr	r3, [pc, #20]	@ (100038f4 <runtime_init_install_ram_vector_table+0xb0>)
100038de:	609d      	str	r5, [r3, #8]
100038e0:	bdf8      	pop	{r3, r4, r5, r6, r7, pc}
100038e2:	46c0      	nop			@ (mov r8, r8)
100038e4:	10000100 	.word	0x10000100
100038e8:	100001c0 	.word	0x100001c0
100038ec:	20000000 	.word	0x20000000
100038f0:	100001c1 	.word	0x100001c1
100038f4:	e000ed00 	.word	0xe000ed00

100038f8 <runtime_init_clocks>:
100038f8:	2300      	movs	r3, #0
100038fa:	b510      	push	{r4, lr}
100038fc:	4c29      	ldr	r4, [pc, #164]	@ (100039a4 <runtime_init_clocks+0xac>)
100038fe:	b082      	sub	sp, #8
10003900:	67a3      	str	r3, [r4, #120]	@ 0x78
10003902:	f7ff ff2d 	bl	10003760 <xosc_init>
10003906:	2201      	movs	r2, #1
10003908:	4b27      	ldr	r3, [pc, #156]	@ (100039a8 <runtime_init_clocks+0xb0>)
1000390a:	601a      	str	r2, [r3, #0]
1000390c:	6c63      	ldr	r3, [r4, #68]	@ 0x44
1000390e:	2b01      	cmp	r3, #1
10003910:	d1fc      	bne.n	1000390c <runtime_init_clocks+0x14>
10003912:	2203      	movs	r2, #3
10003914:	4b25      	ldr	r3, [pc, #148]	@ (100039ac <runtime_init_clocks+0xb4>)
10003916:	601a      	str	r2, [r3, #0]
10003918:	4a22      	ldr	r2, [pc, #136]	@ (100039a4 <runtime_init_clocks+0xac>)
1000391a:	6b93      	ldr	r3, [r2, #56]	@ 0x38
1000391c:	2b01      	cmp	r3, #1
1000391e:	d1fc      	bne.n	1000391a <runtime_init_clocks+0x22>
10003920:	3301      	adds	r3, #1
10003922:	9300      	str	r3, [sp, #0]
10003924:	2101      	movs	r1, #1
10003926:	4a22      	ldr	r2, [pc, #136]	@ (100039b0 <runtime_init_clocks+0xb8>)
10003928:	4822      	ldr	r0, [pc, #136]	@ (100039b4 <runtime_init_clocks+0xbc>)
1000392a:	3304      	adds	r3, #4
1000392c:	f7ff fe8c 	bl	10003648 <pll_init>
10003930:	2305      	movs	r3, #5
10003932:	2101      	movs	r1, #1
10003934:	9300      	str	r3, [sp, #0]
10003936:	4a20      	ldr	r2, [pc, #128]	@ (100039b8 <runtime_init_clocks+0xc0>)
10003938:	4820      	ldr	r0, [pc, #128]	@ (100039bc <runtime_init_clocks+0xc4>)
1000393a:	f7ff fe85 	bl	10003648 <pll_init>
1000393e:	2200      	movs	r2, #0
10003940:	2102      	movs	r1, #2
10003942:	2004      	movs	r0, #4
10003944:	4b1e      	ldr	r3, [pc, #120]	@ (100039c0 <runtime_init_clocks+0xc8>)
10003946:	f7ff fe05 	bl	10003554 <clock_configure_undivided>
1000394a:	2200      	movs	r2, #0
1000394c:	2101      	movs	r1, #1
1000394e:	2005      	movs	r0, #5
10003950:	4b1c      	ldr	r3, [pc, #112]	@ (100039c4 <runtime_init_clocks+0xcc>)
10003952:	f7ff fdff 	bl	10003554 <clock_configure_undivided>
10003956:	2200      	movs	r2, #0
10003958:	2100      	movs	r1, #0
1000395a:	2007      	movs	r0, #7
1000395c:	4b1a      	ldr	r3, [pc, #104]	@ (100039c8 <runtime_init_clocks+0xd0>)
1000395e:	f7ff fdf9 	bl	10003554 <clock_configure_undivided>
10003962:	2200      	movs	r2, #0
10003964:	2100      	movs	r1, #0
10003966:	2008      	movs	r0, #8
10003968:	4b17      	ldr	r3, [pc, #92]	@ (100039c8 <runtime_init_clocks+0xd0>)
1000396a:	f7ff fdf3 	bl	10003554 <clock_configure_undivided>
1000396e:	2380      	movs	r3, #128	@ 0x80
10003970:	00db      	lsls	r3, r3, #3
10003972:	9300      	str	r3, [sp, #0]
10003974:	2200      	movs	r2, #0
10003976:	2100      	movs	r1, #0
10003978:	2009      	movs	r0, #9
1000397a:	4b13      	ldr	r3, [pc, #76]	@ (100039c8 <runtime_init_clocks+0xd0>)
1000397c:	f7ff fd70 	bl	10003460 <clock_configure_int_divider>
10003980:	2200      	movs	r2, #0
10003982:	4b10      	ldr	r3, [pc, #64]	@ (100039c4 <runtime_init_clocks+0xcc>)
10003984:	2100      	movs	r1, #0
10003986:	2006      	movs	r0, #6
10003988:	f7ff fde4 	bl	10003554 <clock_configure_undivided>
1000398c:	2004      	movs	r0, #4
1000398e:	f7ff fe55 	bl	1000363c <clock_get_hz>
10003992:	490e      	ldr	r1, [pc, #56]	@ (100039cc <runtime_init_clocks+0xd4>)
10003994:	f000 f84c 	bl	10003a30 <__wrap___aeabi_uidiv>
10003998:	0001      	movs	r1, r0
1000399a:	2000      	movs	r0, #0
1000399c:	f7ff fea6 	bl	100036ec <tick_start>
100039a0:	b002      	add	sp, #8
100039a2:	bd10      	pop	{r4, pc}
100039a4:	40008000 	.word	0x40008000
100039a8:	4000b03c 	.word	0x4000b03c
100039ac:	4000b030 	.word	0x4000b030
100039b0:	59682f00 	.word	0x59682f00
100039b4:	40028000 	.word	0x40028000
100039b8:	47868c00 	.word	0x47868c00
100039bc:	4002c000 	.word	0x4002c000
100039c0:	00b71b00 	.word	0x00b71b00
100039c4:	07735940 	.word	0x07735940
100039c8:	02dc6c00 	.word	0x02dc6c00
100039cc:	000f4240 	.word	0x000f4240

100039d0 <__aeabi_bits_init>:
100039d0:	4801      	ldr	r0, [pc, #4]	@ (100039d8 <__aeabi_bits_init+0x8>)
100039d2:	2104      	movs	r1, #4
100039d4:	4b01      	ldr	r3, [pc, #4]	@ (100039dc <__aeabi_bits_init+0xc>)
100039d6:	4718      	bx	r3
100039d8:	20000420 	.word	0x20000420
100039dc:	1000371d 	.word	0x1000371d

100039e0 <__wrap___aeabi_idiv>:
100039e0:	4a12      	ldr	r2, [pc, #72]	@ (10003a2c <divmod_s32s32_savestate+0x18>)
100039e2:	6f93      	ldr	r3, [r2, #120]	@ 0x78
100039e4:	089b      	lsrs	r3, r3, #2
100039e6:	d215      	bcs.n	10003a14 <divmod_s32s32_savestate>

100039e8 <divmod_s32s32_unsafe>:
100039e8:	6690      	str	r0, [r2, #104]	@ 0x68
100039ea:	66d1      	str	r1, [r2, #108]	@ 0x6c
100039ec:	2900      	cmp	r1, #0
100039ee:	d005      	beq.n	100039fc <divmod_s32s32_unsafe+0x14>
100039f0:	e7ff      	b.n	100039f2 <divmod_s32s32_unsafe+0xa>
100039f2:	e7ff      	b.n	100039f4 <divmod_s32s32_unsafe+0xc>
100039f4:	e7ff      	b.n	100039f6 <divmod_s32s32_unsafe+0xe>
100039f6:	6f51      	ldr	r1, [r2, #116]	@ 0x74
100039f8:	6f10      	ldr	r0, [r2, #112]	@ 0x70
100039fa:	4770      	bx	lr
100039fc:	b504      	push	{r2, lr}
100039fe:	2180      	movs	r1, #128	@ 0x80
10003a00:	0609      	lsls	r1, r1, #24
10003a02:	17c2      	asrs	r2, r0, #31
10003a04:	4051      	eors	r1, r2
10003a06:	2800      	cmp	r0, #0
10003a08:	d000      	beq.n	10003a0c <divmod_s32s32_unsafe+0x24>
10003a0a:	43c8      	mvns	r0, r1
10003a0c:	f002 fc00 	bl	10006210 <____aeabi_idiv0_veneer>
10003a10:	2100      	movs	r1, #0
10003a12:	bd04      	pop	{r2, pc}

10003a14 <divmod_s32s32_savestate>:
10003a14:	b5f0      	push	{r4, r5, r6, r7, lr}
10003a16:	6e14      	ldr	r4, [r2, #96]	@ 0x60
10003a18:	6e55      	ldr	r5, [r2, #100]	@ 0x64
10003a1a:	6f57      	ldr	r7, [r2, #116]	@ 0x74
10003a1c:	6f16      	ldr	r6, [r2, #112]	@ 0x70
10003a1e:	f7ff ffe3 	bl	100039e8 <divmod_s32s32_unsafe>
10003a22:	6614      	str	r4, [r2, #96]	@ 0x60
10003a24:	6655      	str	r5, [r2, #100]	@ 0x64
10003a26:	6757      	str	r7, [r2, #116]	@ 0x74
10003a28:	6716      	str	r6, [r2, #112]	@ 0x70
10003a2a:	bdf0      	pop	{r4, r5, r6, r7, pc}
10003a2c:	d0000000 	.word	0xd0000000

10003a30 <__wrap___aeabi_uidiv>:
10003a30:	4a11      	ldr	r2, [pc, #68]	@ (10003a78 <divmod_u32u32_savestate+0x18>)
10003a32:	6f93      	ldr	r3, [r2, #120]	@ 0x78
10003a34:	089b      	lsrs	r3, r3, #2
10003a36:	d213      	bcs.n	10003a60 <divmod_u32u32_savestate>

10003a38 <divmod_u32u32_unsafe>:
10003a38:	6610      	str	r0, [r2, #96]	@ 0x60
10003a3a:	6651      	str	r1, [r2, #100]	@ 0x64
10003a3c:	2900      	cmp	r1, #0
10003a3e:	d005      	beq.n	10003a4c <divmod_u32u32_unsafe+0x14>
10003a40:	e7ff      	b.n	10003a42 <divmod_u32u32_unsafe+0xa>
10003a42:	e7ff      	b.n	10003a44 <divmod_u32u32_unsafe+0xc>
10003a44:	e7ff      	b.n	10003a46 <divmod_u32u32_unsafe+0xe>
10003a46:	6f51      	ldr	r1, [r2, #116]	@ 0x74
10003a48:	6f10      	ldr	r0, [r2, #112]	@ 0x70
10003a4a:	4770      	bx	lr
10003a4c:	b504      	push	{r2, lr}
10003a4e:	2800      	cmp	r0, #0
10003a50:	d001      	beq.n	10003a56 <divmod_u32u32_unsafe+0x1e>
10003a52:	2000      	movs	r0, #0
10003a54:	43c0      	mvns	r0, r0
10003a56:	f002 fbdb 	bl	10006210 <____aeabi_idiv0_veneer>
10003a5a:	2100      	movs	r1, #0
10003a5c:	bd04      	pop	{r2, pc}
10003a5e:	46c0      	nop			@ (mov r8, r8)

10003a60 <divmod_u32u32_savestate>:
10003a60:	b5f0      	push	{r4, r5, r6, r7, lr}
10003a62:	6e14      	ldr	r4, [r2, #96]	@ 0x60
10003a64:	6e55      	ldr	r5, [r2, #100]	@ 0x64
10003a66:	6f57      	ldr	r7, [r2, #116]	@ 0x74
10003a68:	6f16      	ldr	r6, [r2, #112]	@ 0x70
10003a6a:	f7ff ffe5 	bl	10003a38 <divmod_u32u32_unsafe>
10003a6e:	6614      	str	r4, [r2, #96]	@ 0x60
10003a70:	6655      	str	r5, [r2, #100]	@ 0x64
10003a72:	6757      	str	r7, [r2, #116]	@ 0x74
10003a74:	6716      	str	r6, [r2, #112]	@ 0x70
10003a76:	bdf0      	pop	{r4, r5, r6, r7, pc}
10003a78:	d0000000 	.word	0xd0000000

10003a7c <__wrap___aeabi_ldivmod>:
10003a7c:	4694      	mov	ip, r2
10003a7e:	4a4a      	ldr	r2, [pc, #296]	@ (10003ba8 <udiv0+0x1a>)
10003a80:	6f92      	ldr	r2, [r2, #120]	@ 0x78
10003a82:	0892      	lsrs	r2, r2, #2
10003a84:	4662      	mov	r2, ip
10003a86:	d201      	bcs.n	10003a8c <divmod_s64s64_savestate>
10003a88:	e028      	b.n	10003adc <divmod_s64s64_unsafe>
10003a8a:	46c0      	nop			@ (mov r8, r8)

10003a8c <divmod_s64s64_savestate>:
10003a8c:	b5f0      	push	{r4, r5, r6, r7, lr}
10003a8e:	4e46      	ldr	r6, [pc, #280]	@ (10003ba8 <udiv0+0x1a>)
10003a90:	6e34      	ldr	r4, [r6, #96]	@ 0x60
10003a92:	6e75      	ldr	r5, [r6, #100]	@ 0x64
10003a94:	6f77      	ldr	r7, [r6, #116]	@ 0x74
10003a96:	6f36      	ldr	r6, [r6, #112]	@ 0x70
10003a98:	f000 f820 	bl	10003adc <divmod_s64s64_unsafe>
10003a9c:	4694      	mov	ip, r2
10003a9e:	4a42      	ldr	r2, [pc, #264]	@ (10003ba8 <udiv0+0x1a>)
10003aa0:	6614      	str	r4, [r2, #96]	@ 0x60
10003aa2:	6655      	str	r5, [r2, #100]	@ 0x64
10003aa4:	6757      	str	r7, [r2, #116]	@ 0x74
10003aa6:	6716      	str	r6, [r2, #112]	@ 0x70
10003aa8:	4662      	mov	r2, ip
10003aaa:	bdf0      	pop	{r4, r5, r6, r7, pc}

10003aac <__wrap___aeabi_uldivmod>:
10003aac:	4694      	mov	ip, r2
10003aae:	4a3e      	ldr	r2, [pc, #248]	@ (10003ba8 <udiv0+0x1a>)
10003ab0:	6f92      	ldr	r2, [r2, #120]	@ 0x78
10003ab2:	0892      	lsrs	r2, r2, #2
10003ab4:	4662      	mov	r2, ip
10003ab6:	d201      	bcs.n	10003abc <divmod_u64u64_savestate>
10003ab8:	e054      	b.n	10003b64 <divmod_u64u64_unsafe>
10003aba:	46c0      	nop			@ (mov r8, r8)

10003abc <divmod_u64u64_savestate>:
10003abc:	b5f0      	push	{r4, r5, r6, r7, lr}
10003abe:	4e3a      	ldr	r6, [pc, #232]	@ (10003ba8 <udiv0+0x1a>)
10003ac0:	6e34      	ldr	r4, [r6, #96]	@ 0x60
10003ac2:	6e75      	ldr	r5, [r6, #100]	@ 0x64
10003ac4:	6f77      	ldr	r7, [r6, #116]	@ 0x74
10003ac6:	6f36      	ldr	r6, [r6, #112]	@ 0x70
10003ac8:	f000 f84c 	bl	10003b64 <divmod_u64u64_unsafe>
10003acc:	4694      	mov	ip, r2
10003ace:	4a36      	ldr	r2, [pc, #216]	@ (10003ba8 <udiv0+0x1a>)
10003ad0:	6614      	str	r4, [r2, #96]	@ 0x60
10003ad2:	6655      	str	r5, [r2, #100]	@ 0x64
10003ad4:	6757      	str	r7, [r2, #116]	@ 0x74
10003ad6:	6716      	str	r6, [r2, #112]	@ 0x70
10003ad8:	4662      	mov	r2, ip
10003ada:	bdf0      	pop	{r4, r5, r6, r7, pc}

10003adc <divmod_s64s64_unsafe>:
10003adc:	2b00      	cmp	r3, #0
10003ade:	db24      	blt.n	10003b2a <l42_1+0x26>
10003ae0:	d011      	beq.n	10003b06 <l42_1+0x2>
10003ae2:	2900      	cmp	r1, #0
10003ae4:	da3e      	bge.n	10003b64 <divmod_u64u64_unsafe>
10003ae6:	b500      	push	{lr}
10003ae8:	43c9      	mvns	r1, r1
10003aea:	4240      	negs	r0, r0
10003aec:	d100      	bne.n	10003af0 <l40_1>
10003aee:	3101      	adds	r1, #1

10003af0 <l40_1>:
10003af0:	f000 f838 	bl	10003b64 <divmod_u64u64_unsafe>
10003af4:	43c9      	mvns	r1, r1
10003af6:	4240      	negs	r0, r0
10003af8:	d100      	bne.n	10003afc <l41_1>
10003afa:	3101      	adds	r1, #1

10003afc <l41_1>:
10003afc:	43db      	mvns	r3, r3
10003afe:	4252      	negs	r2, r2
10003b00:	d100      	bne.n	10003b04 <l42_1>
10003b02:	3301      	adds	r3, #1

10003b04 <l42_1>:
10003b04:	bd00      	pop	{pc}
10003b06:	2a00      	cmp	r2, #0
10003b08:	d1eb      	bne.n	10003ae2 <divmod_s64s64_unsafe+0x6>
10003b0a:	2800      	cmp	r0, #0
10003b0c:	d101      	bne.n	10003b12 <l42_1+0xe>
10003b0e:	2900      	cmp	r1, #0
10003b10:	d005      	beq.n	10003b1e <l42_1+0x1a>
10003b12:	2000      	movs	r0, #0
10003b14:	0fc9      	lsrs	r1, r1, #31
10003b16:	07c9      	lsls	r1, r1, #31
10003b18:	d101      	bne.n	10003b1e <l42_1+0x1a>
10003b1a:	43c0      	mvns	r0, r0
10003b1c:	0841      	lsrs	r1, r0, #1
10003b1e:	b500      	push	{lr}
10003b20:	f002 fb6e 	bl	10006200 <____aeabi_ldiv0_veneer>
10003b24:	2200      	movs	r2, #0
10003b26:	2300      	movs	r3, #0
10003b28:	bd00      	pop	{pc}
10003b2a:	b500      	push	{lr}
10003b2c:	2900      	cmp	r1, #0
10003b2e:	db0a      	blt.n	10003b46 <l44_1+0x2>
10003b30:	43db      	mvns	r3, r3
10003b32:	4252      	negs	r2, r2
10003b34:	d100      	bne.n	10003b38 <l43_1>
10003b36:	3301      	adds	r3, #1

10003b38 <l43_1>:
10003b38:	f000 f814 	bl	10003b64 <divmod_u64u64_unsafe>
10003b3c:	43c9      	mvns	r1, r1
10003b3e:	4240      	negs	r0, r0
10003b40:	d100      	bne.n	10003b44 <l44_1>
10003b42:	3101      	adds	r1, #1

10003b44 <l44_1>:
10003b44:	bd00      	pop	{pc}
10003b46:	43c9      	mvns	r1, r1
10003b48:	4240      	negs	r0, r0
10003b4a:	d100      	bne.n	10003b4e <l45_1>
10003b4c:	3101      	adds	r1, #1

10003b4e <l45_1>:
10003b4e:	43db      	mvns	r3, r3
10003b50:	4252      	negs	r2, r2
10003b52:	d100      	bne.n	10003b56 <l46_1>
10003b54:	3301      	adds	r3, #1

10003b56 <l46_1>:
10003b56:	f000 f805 	bl	10003b64 <divmod_u64u64_unsafe>
10003b5a:	43db      	mvns	r3, r3
10003b5c:	4252      	negs	r2, r2
10003b5e:	d100      	bne.n	10003b62 <l47_1>
10003b60:	3301      	adds	r3, #1

10003b62 <l47_1>:
10003b62:	bd00      	pop	{pc}

10003b64 <divmod_u64u64_unsafe>:
10003b64:	2900      	cmp	r1, #0
10003b66:	d123      	bne.n	10003bb0 <y64>
10003b68:	2b00      	cmp	r3, #0
10003b6a:	d118      	bne.n	10003b9e <udiv0+0x10>
10003b6c:	2a00      	cmp	r2, #0
10003b6e:	d00c      	beq.n	10003b8a <divmod_u64u64_unsafe+0x26>
10003b70:	46bc      	mov	ip, r7
10003b72:	4f0d      	ldr	r7, [pc, #52]	@ (10003ba8 <udiv0+0x1a>)
10003b74:	6638      	str	r0, [r7, #96]	@ 0x60
10003b76:	667a      	str	r2, [r7, #100]	@ 0x64
10003b78:	2100      	movs	r1, #0
10003b7a:	2300      	movs	r3, #0
10003b7c:	e7ff      	b.n	10003b7e <divmod_u64u64_unsafe+0x1a>
10003b7e:	e7ff      	b.n	10003b80 <divmod_u64u64_unsafe+0x1c>
10003b80:	e7ff      	b.n	10003b82 <divmod_u64u64_unsafe+0x1e>
10003b82:	6f7a      	ldr	r2, [r7, #116]	@ 0x74
10003b84:	6f38      	ldr	r0, [r7, #112]	@ 0x70
10003b86:	4667      	mov	r7, ip
10003b88:	4770      	bx	lr
10003b8a:	2800      	cmp	r0, #0
10003b8c:	d001      	beq.n	10003b92 <udiv0+0x4>

10003b8e <udiv0>:
10003b8e:	4807      	ldr	r0, [pc, #28]	@ (10003bac <udiv0+0x1e>)
10003b90:	0001      	movs	r1, r0
10003b92:	b500      	push	{lr}
10003b94:	f002 fb34 	bl	10006200 <____aeabi_ldiv0_veneer>
10003b98:	2200      	movs	r2, #0
10003b9a:	2300      	movs	r3, #0
10003b9c:	bd00      	pop	{pc}
10003b9e:	0002      	movs	r2, r0
10003ba0:	000b      	movs	r3, r1
10003ba2:	2000      	movs	r0, #0
10003ba4:	2100      	movs	r1, #0
10003ba6:	4770      	bx	lr
10003ba8:	d0000000 	.word	0xd0000000
10003bac:	ffffffff 	.word	0xffffffff

10003bb0 <y64>:
10003bb0:	2b00      	cmp	r3, #0
10003bb2:	d000      	beq.n	10003bb6 <y64+0x6>
10003bb4:	e0bf      	b.n	10003d36 <y64_x48>
10003bb6:	0c13      	lsrs	r3, r2, #16
10003bb8:	d128      	bne.n	10003c0c <y64_x32>
10003bba:	2a00      	cmp	r2, #0
10003bbc:	d0e7      	beq.n	10003b8e <udiv0>
10003bbe:	b480      	push	{r7}
10003bc0:	4f11      	ldr	r7, [pc, #68]	@ (10003c08 <y64+0x58>)
10003bc2:	6639      	str	r1, [r7, #96]	@ 0x60
10003bc4:	667a      	str	r2, [r7, #100]	@ 0x64
10003bc6:	e7ff      	b.n	10003bc8 <y64+0x18>
10003bc8:	e7ff      	b.n	10003bca <y64+0x1a>
10003bca:	b430      	push	{r4, r5}
10003bcc:	0c04      	lsrs	r4, r0, #16
10003bce:	6f7b      	ldr	r3, [r7, #116]	@ 0x74
10003bd0:	6f39      	ldr	r1, [r7, #112]	@ 0x70
10003bd2:	041b      	lsls	r3, r3, #16
10003bd4:	4323      	orrs	r3, r4
10003bd6:	663b      	str	r3, [r7, #96]	@ 0x60
10003bd8:	667a      	str	r2, [r7, #100]	@ 0x64
10003bda:	e7ff      	b.n	10003bdc <y64+0x2c>
10003bdc:	e7ff      	b.n	10003bde <y64+0x2e>
10003bde:	e7ff      	b.n	10003be0 <y64+0x30>
10003be0:	46c0      	nop			@ (mov r8, r8)
10003be2:	b284      	uxth	r4, r0
10003be4:	6f7b      	ldr	r3, [r7, #116]	@ 0x74
10003be6:	6f3d      	ldr	r5, [r7, #112]	@ 0x70
10003be8:	041b      	lsls	r3, r3, #16
10003bea:	4323      	orrs	r3, r4
10003bec:	663b      	str	r3, [r7, #96]	@ 0x60
10003bee:	667a      	str	r2, [r7, #100]	@ 0x64
10003bf0:	e7ff      	b.n	10003bf2 <y64+0x42>
10003bf2:	e7ff      	b.n	10003bf4 <y64+0x44>
10003bf4:	46c0      	nop			@ (mov r8, r8)
10003bf6:	2300      	movs	r3, #0
10003bf8:	042c      	lsls	r4, r5, #16
10003bfa:	0c2d      	lsrs	r5, r5, #16
10003bfc:	6f7a      	ldr	r2, [r7, #116]	@ 0x74
10003bfe:	6f38      	ldr	r0, [r7, #112]	@ 0x70
10003c00:	1900      	adds	r0, r0, r4
10003c02:	4169      	adcs	r1, r5
10003c04:	bcb0      	pop	{r4, r5, r7}
10003c06:	4770      	bx	lr
10003c08:	d0000000 	.word	0xd0000000

10003c0c <y64_x32>:
10003c0c:	b5f0      	push	{r4, r5, r6, r7, lr}
10003c0e:	4694      	mov	ip, r2
10003c10:	2500      	movs	r5, #0
10003c12:	0e14      	lsrs	r4, r2, #24
10003c14:	d101      	bne.n	10003c1a <y64_x32+0xe>
10003c16:	0212      	lsls	r2, r2, #8
10003c18:	3508      	adds	r5, #8
10003c1a:	0f14      	lsrs	r4, r2, #28
10003c1c:	d101      	bne.n	10003c22 <y64_x32+0x16>
10003c1e:	0112      	lsls	r2, r2, #4
10003c20:	3504      	adds	r5, #4
10003c22:	0f94      	lsrs	r4, r2, #30
10003c24:	d101      	bne.n	10003c2a <y64_x32+0x1e>
10003c26:	0092      	lsls	r2, r2, #2
10003c28:	3502      	adds	r5, #2
10003c2a:	0fd4      	lsrs	r4, r2, #31
10003c2c:	d101      	bne.n	10003c32 <y64_x32+0x26>
10003c2e:	0052      	lsls	r2, r2, #1
10003c30:	3501      	adds	r5, #1
10003c32:	0bd4      	lsrs	r4, r2, #15
10003c34:	3401      	adds	r4, #1
10003c36:	4f25      	ldr	r7, [pc, #148]	@ (10003ccc <y64_x32+0xc0>)
10003c38:	667c      	str	r4, [r7, #100]	@ 0x64
10003c3a:	4c25      	ldr	r4, [pc, #148]	@ (10003cd0 <y64_x32+0xc4>)
10003c3c:	663c      	str	r4, [r7, #96]	@ 0x60
10003c3e:	0c0e      	lsrs	r6, r1, #16
10003c40:	b293      	uxth	r3, r2
10003c42:	e7ff      	b.n	10003c44 <y64_x32+0x38>
10003c44:	e7ff      	b.n	10003c46 <y64_x32+0x3a>
10003c46:	e7ff      	b.n	10003c48 <y64_x32+0x3c>
10003c48:	6f3c      	ldr	r4, [r7, #112]	@ 0x70
10003c4a:	4366      	muls	r6, r4
10003c4c:	0c36      	lsrs	r6, r6, #16
10003c4e:	0377      	lsls	r7, r6, #13
10003c50:	46be      	mov	lr, r7
10003c52:	4373      	muls	r3, r6
10003c54:	0bdf      	lsrs	r7, r3, #15
10003c56:	045b      	lsls	r3, r3, #17
10003c58:	1ac0      	subs	r0, r0, r3
10003c5a:	41b9      	sbcs	r1, r7
10003c5c:	0c13      	lsrs	r3, r2, #16
10003c5e:	4373      	muls	r3, r6
10003c60:	18db      	adds	r3, r3, r3
10003c62:	1ac9      	subs	r1, r1, r3
10003c64:	08ce      	lsrs	r6, r1, #3
10003c66:	4366      	muls	r6, r4
10003c68:	0c36      	lsrs	r6, r6, #16
10003c6a:	44b6      	add	lr, r6
10003c6c:	b293      	uxth	r3, r2
10003c6e:	4373      	muls	r3, r6
10003c70:	0f1f      	lsrs	r7, r3, #28
10003c72:	011b      	lsls	r3, r3, #4
10003c74:	1ac0      	subs	r0, r0, r3
10003c76:	41b9      	sbcs	r1, r7
10003c78:	0c13      	lsrs	r3, r2, #16
10003c7a:	4373      	muls	r3, r6
10003c7c:	0b1f      	lsrs	r7, r3, #12
10003c7e:	051b      	lsls	r3, r3, #20
10003c80:	1ac0      	subs	r0, r0, r3
10003c82:	41b9      	sbcs	r1, r7
10003c84:	0d86      	lsrs	r6, r0, #22
10003c86:	028f      	lsls	r7, r1, #10
10003c88:	433e      	orrs	r6, r7
10003c8a:	4366      	muls	r6, r4
10003c8c:	0c36      	lsrs	r6, r6, #16
10003c8e:	2d09      	cmp	r5, #9
10003c90:	db24      	blt.n	10003cdc <last0>
10003c92:	0a52      	lsrs	r2, r2, #9
10003c94:	4372      	muls	r2, r6
10003c96:	1a80      	subs	r0, r0, r2
10003c98:	0377      	lsls	r7, r6, #13
10003c9a:	0a46      	lsrs	r6, r0, #9
10003c9c:	4366      	muls	r6, r4
10003c9e:	0c36      	lsrs	r6, r6, #16
10003ca0:	2316      	movs	r3, #22
10003ca2:	1b5b      	subs	r3, r3, r5
10003ca4:	40de      	lsrs	r6, r3
10003ca6:	40df      	lsrs	r7, r3
10003ca8:	19bf      	adds	r7, r7, r6
10003caa:	4664      	mov	r4, ip
10003cac:	4366      	muls	r6, r4
10003cae:	1b82      	subs	r2, r0, r6
10003cb0:	4670      	mov	r0, lr
10003cb2:	3504      	adds	r5, #4
10003cb4:	3306      	adds	r3, #6
10003cb6:	0001      	movs	r1, r0
10003cb8:	40d9      	lsrs	r1, r3
10003cba:	40a8      	lsls	r0, r5
10003cbc:	19c0      	adds	r0, r0, r7
10003cbe:	d300      	bcc.n	10003cc2 <y64_x32+0xb6>
10003cc0:	3101      	adds	r1, #1
10003cc2:	42a2      	cmp	r2, r4
10003cc4:	d206      	bcs.n	10003cd4 <y64_x32+0xc8>
10003cc6:	2300      	movs	r3, #0
10003cc8:	bdf0      	pop	{r4, r5, r6, r7, pc}
10003cca:	0000      	.short	0x0000
10003ccc:	d0000000 	.word	0xd0000000
10003cd0:	ffffffff 	.word	0xffffffff
10003cd4:	1b12      	subs	r2, r2, r4
10003cd6:	3001      	adds	r0, #1
10003cd8:	d3f3      	bcc.n	10003cc2 <y64_x32+0xb6>
10003cda:	e7f1      	b.n	10003cc0 <y64_x32+0xb4>

10003cdc <last0>:
10003cdc:	2709      	movs	r7, #9
10003cde:	1b7f      	subs	r7, r7, r5
10003ce0:	40fe      	lsrs	r6, r7
10003ce2:	4664      	mov	r4, ip
10003ce4:	b2a2      	uxth	r2, r4
10003ce6:	4372      	muls	r2, r6
10003ce8:	1a80      	subs	r0, r0, r2
10003cea:	d200      	bcs.n	10003cee <last0+0x12>
10003cec:	3901      	subs	r1, #1
10003cee:	0c22      	lsrs	r2, r4, #16
10003cf0:	4372      	muls	r2, r6
10003cf2:	0c13      	lsrs	r3, r2, #16
10003cf4:	0412      	lsls	r2, r2, #16
10003cf6:	1a82      	subs	r2, r0, r2
10003cf8:	4199      	sbcs	r1, r3
10003cfa:	000b      	movs	r3, r1
10003cfc:	4670      	mov	r0, lr
10003cfe:	3504      	adds	r5, #4
10003d00:	3713      	adds	r7, #19
10003d02:	0001      	movs	r1, r0
10003d04:	40f9      	lsrs	r1, r7
10003d06:	40a8      	lsls	r0, r5
10003d08:	1980      	adds	r0, r0, r6
10003d0a:	d300      	bcc.n	10003d0e <last0+0x32>
10003d0c:	3101      	adds	r1, #1
10003d0e:	2b00      	cmp	r3, #0
10003d10:	d102      	bne.n	10003d18 <last0+0x3c>
10003d12:	42a2      	cmp	r2, r4
10003d14:	d20a      	bcs.n	10003d2c <last0+0x50>
10003d16:	bdf0      	pop	{r4, r5, r6, r7, pc}
10003d18:	3001      	adds	r0, #1
10003d1a:	d300      	bcc.n	10003d1e <last0+0x42>
10003d1c:	3101      	adds	r1, #1
10003d1e:	1b12      	subs	r2, r2, r4
10003d20:	d2fa      	bcs.n	10003d18 <last0+0x3c>
10003d22:	3b01      	subs	r3, #1
10003d24:	d1f8      	bne.n	10003d18 <last0+0x3c>
10003d26:	42a2      	cmp	r2, r4
10003d28:	d200      	bcs.n	10003d2c <last0+0x50>
10003d2a:	bdf0      	pop	{r4, r5, r6, r7, pc}
10003d2c:	3001      	adds	r0, #1
10003d2e:	d300      	bcc.n	10003d32 <last0+0x56>
10003d30:	3101      	adds	r1, #1
10003d32:	1b12      	subs	r2, r2, r4
10003d34:	e7f7      	b.n	10003d26 <last0+0x4a>

10003d36 <y64_x48>:
10003d36:	b5f0      	push	{r4, r5, r6, r7, lr}
10003d38:	0c1c      	lsrs	r4, r3, #16
10003d3a:	d000      	beq.n	10003d3e <y64_x48+0x8>
10003d3c:	e080      	b.n	10003e40 <y64_x64>
10003d3e:	b40c      	push	{r2, r3}
10003d40:	2500      	movs	r5, #0
10003d42:	0a1c      	lsrs	r4, r3, #8
10003d44:	d104      	bne.n	10003d50 <y64_x48+0x1a>
10003d46:	021b      	lsls	r3, r3, #8
10003d48:	0e16      	lsrs	r6, r2, #24
10003d4a:	4333      	orrs	r3, r6
10003d4c:	0212      	lsls	r2, r2, #8
10003d4e:	3508      	adds	r5, #8
10003d50:	0b1c      	lsrs	r4, r3, #12
10003d52:	d104      	bne.n	10003d5e <y64_x48+0x28>
10003d54:	011b      	lsls	r3, r3, #4
10003d56:	0f16      	lsrs	r6, r2, #28
10003d58:	4333      	orrs	r3, r6
10003d5a:	0112      	lsls	r2, r2, #4
10003d5c:	3504      	adds	r5, #4
10003d5e:	0b9c      	lsrs	r4, r3, #14
10003d60:	d104      	bne.n	10003d6c <y64_x48+0x36>
10003d62:	009b      	lsls	r3, r3, #2
10003d64:	0f96      	lsrs	r6, r2, #30
10003d66:	4333      	orrs	r3, r6
10003d68:	0092      	lsls	r2, r2, #2
10003d6a:	3502      	adds	r5, #2
10003d6c:	0bdc      	lsrs	r4, r3, #15
10003d6e:	d102      	bne.n	10003d76 <y64_x48+0x40>
10003d70:	1892      	adds	r2, r2, r2
10003d72:	415b      	adcs	r3, r3
10003d74:	3501      	adds	r5, #1
10003d76:	001c      	movs	r4, r3
10003d78:	1897      	adds	r7, r2, r2
10003d7a:	4164      	adcs	r4, r4
10003d7c:	3401      	adds	r4, #1
10003d7e:	4f46      	ldr	r7, [pc, #280]	@ (10003e98 <y64_x64+0x58>)
10003d80:	667c      	str	r4, [r7, #100]	@ 0x64
10003d82:	4c46      	ldr	r4, [pc, #280]	@ (10003e9c <y64_x64+0x5c>)
10003d84:	663c      	str	r4, [r7, #96]	@ 0x60
10003d86:	0c0e      	lsrs	r6, r1, #16
10003d88:	e7ff      	b.n	10003d8a <y64_x48+0x54>
10003d8a:	e7ff      	b.n	10003d8c <y64_x48+0x56>
10003d8c:	e7ff      	b.n	10003d8e <y64_x48+0x58>
10003d8e:	46c0      	nop			@ (mov r8, r8)
10003d90:	6f3c      	ldr	r4, [r7, #112]	@ 0x70
10003d92:	4366      	muls	r6, r4
10003d94:	0c36      	lsrs	r6, r6, #16
10003d96:	0377      	lsls	r7, r6, #13
10003d98:	46be      	mov	lr, r7
10003d9a:	b297      	uxth	r7, r2
10003d9c:	4377      	muls	r7, r6
10003d9e:	1bc0      	subs	r0, r0, r7
10003da0:	d200      	bcs.n	10003da4 <y64_x48+0x6e>
10003da2:	3901      	subs	r1, #1
10003da4:	1bc0      	subs	r0, r0, r7
10003da6:	d200      	bcs.n	10003daa <y64_x48+0x74>
10003da8:	3901      	subs	r1, #1
10003daa:	b29f      	uxth	r7, r3
10003dac:	4377      	muls	r7, r6
10003dae:	1bc9      	subs	r1, r1, r7
10003db0:	1bc9      	subs	r1, r1, r7
10003db2:	0c17      	lsrs	r7, r2, #16
10003db4:	4377      	muls	r7, r6
10003db6:	047e      	lsls	r6, r7, #17
10003db8:	0bff      	lsrs	r7, r7, #15
10003dba:	1b80      	subs	r0, r0, r6
10003dbc:	41b9      	sbcs	r1, r7
10003dbe:	08ce      	lsrs	r6, r1, #3
10003dc0:	4366      	muls	r6, r4
10003dc2:	0c36      	lsrs	r6, r6, #16
10003dc4:	2d0c      	cmp	r5, #12
10003dc6:	db33      	blt.n	10003e30 <last1>
10003dc8:	44b6      	add	lr, r6
10003dca:	0b12      	lsrs	r2, r2, #12
10003dcc:	051f      	lsls	r7, r3, #20
10003dce:	433a      	orrs	r2, r7
10003dd0:	0b1b      	lsrs	r3, r3, #12
10003dd2:	b297      	uxth	r7, r2
10003dd4:	4377      	muls	r7, r6
10003dd6:	1bc0      	subs	r0, r0, r7
10003dd8:	d200      	bcs.n	10003ddc <y64_x48+0xa6>
10003dda:	3901      	subs	r1, #1
10003ddc:	b29f      	uxth	r7, r3
10003dde:	4377      	muls	r7, r6
10003de0:	1bc9      	subs	r1, r1, r7
10003de2:	0c17      	lsrs	r7, r2, #16
10003de4:	4377      	muls	r7, r6
10003de6:	043e      	lsls	r6, r7, #16
10003de8:	0c3f      	lsrs	r7, r7, #16
10003dea:	1b80      	subs	r0, r0, r6
10003dec:	41b9      	sbcs	r1, r7
10003dee:	0d86      	lsrs	r6, r0, #22
10003df0:	028f      	lsls	r7, r1, #10
10003df2:	433e      	orrs	r6, r7
10003df4:	4366      	muls	r6, r4
10003df6:	2729      	movs	r7, #41	@ 0x29
10003df8:	1b7f      	subs	r7, r7, r5
10003dfa:	40fe      	lsrs	r6, r7
10003dfc:	3d0c      	subs	r5, #12
10003dfe:	4677      	mov	r7, lr
10003e00:	40af      	lsls	r7, r5
10003e02:	19bf      	adds	r7, r7, r6
10003e04:	bc30      	pop	{r4, r5}
10003e06:	b2a2      	uxth	r2, r4
10003e08:	b2ab      	uxth	r3, r5
10003e0a:	4372      	muls	r2, r6
10003e0c:	4373      	muls	r3, r6
10003e0e:	1a80      	subs	r0, r0, r2
10003e10:	4199      	sbcs	r1, r3
10003e12:	0c22      	lsrs	r2, r4, #16
10003e14:	4372      	muls	r2, r6
10003e16:	0c13      	lsrs	r3, r2, #16
10003e18:	0412      	lsls	r2, r2, #16
10003e1a:	1a80      	subs	r0, r0, r2
10003e1c:	4199      	sbcs	r1, r3
10003e1e:	0002      	movs	r2, r0
10003e20:	000b      	movs	r3, r1
10003e22:	3701      	adds	r7, #1
10003e24:	1b00      	subs	r0, r0, r4
10003e26:	41a9      	sbcs	r1, r5
10003e28:	d2f9      	bcs.n	10003e1e <y64_x48+0xe8>
10003e2a:	1e78      	subs	r0, r7, #1
10003e2c:	2100      	movs	r1, #0
10003e2e:	bdf0      	pop	{r4, r5, r6, r7, pc}

10003e30 <last1>:
10003e30:	270c      	movs	r7, #12
10003e32:	1b7f      	subs	r7, r7, r5
10003e34:	40fe      	lsrs	r6, r7
10003e36:	4677      	mov	r7, lr
10003e38:	0b7f      	lsrs	r7, r7, #13
10003e3a:	40af      	lsls	r7, r5
10003e3c:	19ff      	adds	r7, r7, r7
10003e3e:	e7e0      	b.n	10003e02 <y64_x48+0xcc>

10003e40 <y64_x64>:
10003e40:	2400      	movs	r4, #0
10003e42:	1c5d      	adds	r5, r3, #1
10003e44:	d007      	beq.n	10003e56 <y64_x64+0x16>
10003e46:	4f14      	ldr	r7, [pc, #80]	@ (10003e98 <y64_x64+0x58>)
10003e48:	667d      	str	r5, [r7, #100]	@ 0x64
10003e4a:	6639      	str	r1, [r7, #96]	@ 0x60
10003e4c:	e7ff      	b.n	10003e4e <y64_x64+0xe>
10003e4e:	e7ff      	b.n	10003e50 <y64_x64+0x10>
10003e50:	e7ff      	b.n	10003e52 <y64_x64+0x12>
10003e52:	e7ff      	b.n	10003e54 <y64_x64+0x14>
10003e54:	6f3c      	ldr	r4, [r7, #112]	@ 0x70
10003e56:	b295      	uxth	r5, r2
10003e58:	b29e      	uxth	r6, r3
10003e5a:	4365      	muls	r5, r4
10003e5c:	4366      	muls	r6, r4
10003e5e:	1b40      	subs	r0, r0, r5
10003e60:	41b1      	sbcs	r1, r6
10003e62:	0c15      	lsrs	r5, r2, #16
10003e64:	0c1e      	lsrs	r6, r3, #16
10003e66:	4365      	muls	r5, r4
10003e68:	4366      	muls	r6, r4
10003e6a:	0436      	lsls	r6, r6, #16
10003e6c:	0c2f      	lsrs	r7, r5, #16
10003e6e:	433e      	orrs	r6, r7
10003e70:	042d      	lsls	r5, r5, #16
10003e72:	1b40      	subs	r0, r0, r5
10003e74:	41b1      	sbcs	r1, r6
10003e76:	4299      	cmp	r1, r3
10003e78:	d204      	bcs.n	10003e84 <y64_x64+0x44>
10003e7a:	0002      	movs	r2, r0
10003e7c:	000b      	movs	r3, r1
10003e7e:	0020      	movs	r0, r4
10003e80:	2100      	movs	r1, #0
10003e82:	bdf0      	pop	{r4, r5, r6, r7, pc}
10003e84:	d101      	bne.n	10003e8a <y64_x64+0x4a>
10003e86:	4290      	cmp	r0, r2
10003e88:	d3f7      	bcc.n	10003e7a <y64_x64+0x3a>
10003e8a:	1a80      	subs	r0, r0, r2
10003e8c:	4199      	sbcs	r1, r3
10003e8e:	3401      	adds	r4, #1
10003e90:	4299      	cmp	r1, r3
10003e92:	d3f2      	bcc.n	10003e7a <y64_x64+0x3a>
10003e94:	e7f6      	b.n	10003e84 <y64_x64+0x44>
10003e96:	0000      	.short	0x0000
10003e98:	d0000000 	.word	0xd0000000
10003e9c:	ffffffff 	.word	0xffffffff

10003ea0 <__wrap___aeabi_drsub>:
10003ea0:	4048      	eors	r0, r1
10003ea2:	4041      	eors	r1, r0
10003ea4:	4048      	eors	r0, r1

10003ea6 <__wrap___aeabi_dsub>:
10003ea6:	b418      	push	{r3, r4}
10003ea8:	4b13      	ldr	r3, [pc, #76]	@ (10003ef8 <__wrap___aeabi_dmul+0xa>)
10003eaa:	685b      	ldr	r3, [r3, #4]
10003eac:	9301      	str	r3, [sp, #4]
10003eae:	bd08      	pop	{r3, pc}

10003eb0 <__wrap___aeabi_dadd>:
10003eb0:	b418      	push	{r3, r4}
10003eb2:	4b11      	ldr	r3, [pc, #68]	@ (10003ef8 <__wrap___aeabi_dmul+0xa>)
10003eb4:	681b      	ldr	r3, [r3, #0]
10003eb6:	9301      	str	r3, [sp, #4]
10003eb8:	bd08      	pop	{r3, pc}

10003eba <__wrap___aeabi_ddiv>:
10003eba:	4694      	mov	ip, r2
10003ebc:	4a0f      	ldr	r2, [pc, #60]	@ (10003efc <__wrap___aeabi_dmul+0xe>)
10003ebe:	6f92      	ldr	r2, [r2, #120]	@ 0x78
10003ec0:	0892      	lsrs	r2, r2, #2
10003ec2:	d205      	bcs.n	10003ed0 <ddiv_save_state>
10003ec4:	4662      	mov	r2, ip

10003ec6 <ddiv_shim_call>:
10003ec6:	b418      	push	{r3, r4}
10003ec8:	4b0b      	ldr	r3, [pc, #44]	@ (10003ef8 <__wrap___aeabi_dmul+0xa>)
10003eca:	68db      	ldr	r3, [r3, #12]
10003ecc:	9301      	str	r3, [sp, #4]
10003ece:	bd08      	pop	{r3, pc}

10003ed0 <ddiv_save_state>:
10003ed0:	4a0a      	ldr	r2, [pc, #40]	@ (10003efc <__wrap___aeabi_dmul+0xe>)
10003ed2:	b5f0      	push	{r4, r5, r6, r7, lr}
10003ed4:	6e14      	ldr	r4, [r2, #96]	@ 0x60
10003ed6:	6e55      	ldr	r5, [r2, #100]	@ 0x64
10003ed8:	6f57      	ldr	r7, [r2, #116]	@ 0x74
10003eda:	6f16      	ldr	r6, [r2, #112]	@ 0x70
10003edc:	4662      	mov	r2, ip
10003ede:	f7ff fff2 	bl	10003ec6 <ddiv_shim_call>
10003ee2:	4a06      	ldr	r2, [pc, #24]	@ (10003efc <__wrap___aeabi_dmul+0xe>)
10003ee4:	6614      	str	r4, [r2, #96]	@ 0x60
10003ee6:	6655      	str	r5, [r2, #100]	@ 0x64
10003ee8:	6757      	str	r7, [r2, #116]	@ 0x74
10003eea:	6716      	str	r6, [r2, #112]	@ 0x70
10003eec:	bdf0      	pop	{r4, r5, r6, r7, pc}

10003eee <__wrap___aeabi_dmul>:
10003eee:	b418      	push	{r3, r4}
10003ef0:	4b01      	ldr	r3, [pc, #4]	@ (10003ef8 <__wrap___aeabi_dmul+0xa>)
10003ef2:	689b      	ldr	r3, [r3, #8]
10003ef4:	9301      	str	r3, [sp, #4]
10003ef6:	bd08      	pop	{r3, pc}
10003ef8:	200005e0 	.word	0x200005e0
10003efc:	d0000000 	.word	0xd0000000

10003f00 <__wrap___aeabi_cdrcmple>:
10003f00:	b5ff      	push	{r0, r1, r2, r3, r4, r5, r6, r7, lr}
10003f02:	4050      	eors	r0, r2
10003f04:	4042      	eors	r2, r0
10003f06:	4050      	eors	r0, r2
10003f08:	4059      	eors	r1, r3
10003f0a:	404b      	eors	r3, r1
10003f0c:	4059      	eors	r1, r3
10003f0e:	e000      	b.n	10003f12 <__aeabi_dfcmple_guts>

10003f10 <__wrap___aeabi_cdcmpeq>:
10003f10:	b5ff      	push	{r0, r1, r2, r3, r4, r5, r6, r7, lr}

10003f12 <__aeabi_dfcmple_guts>:
10003f12:	4f15      	ldr	r7, [pc, #84]	@ (10003f68 <__aeabi_dfcmple_guts+0x56>)
10003f14:	004c      	lsls	r4, r1, #1
10003f16:	0d64      	lsrs	r4, r4, #21
10003f18:	d003      	beq.n	10003f22 <__aeabi_dfcmple_guts+0x10>
10003f1a:	42bc      	cmp	r4, r7
10003f1c:	d104      	bne.n	10003f28 <__aeabi_dfcmple_guts+0x16>
10003f1e:	030c      	lsls	r4, r1, #12
10003f20:	d814      	bhi.n	10003f4c <__aeabi_dfcmple_guts+0x3a>
10003f22:	2000      	movs	r0, #0
10003f24:	0d09      	lsrs	r1, r1, #20
10003f26:	0509      	lsls	r1, r1, #20
10003f28:	005c      	lsls	r4, r3, #1
10003f2a:	0d64      	lsrs	r4, r4, #21
10003f2c:	d003      	beq.n	10003f36 <__aeabi_dfcmple_guts+0x24>
10003f2e:	42bc      	cmp	r4, r7
10003f30:	d104      	bne.n	10003f3c <__aeabi_dfcmple_guts+0x2a>
10003f32:	031c      	lsls	r4, r3, #12
10003f34:	d80a      	bhi.n	10003f4c <__aeabi_dfcmple_guts+0x3a>
10003f36:	2200      	movs	r2, #0
10003f38:	0d1b      	lsrs	r3, r3, #20
10003f3a:	051b      	lsls	r3, r3, #20
10003f3c:	2601      	movs	r6, #1
10003f3e:	404b      	eors	r3, r1
10003f40:	d409      	bmi.n	10003f56 <__aeabi_dfcmple_guts+0x44>
10003f42:	404b      	eors	r3, r1
10003f44:	d503      	bpl.n	10003f4e <__aeabi_dfcmple_guts+0x3c>
10003f46:	428b      	cmp	r3, r1
10003f48:	d100      	bne.n	10003f4c <__aeabi_dfcmple_guts+0x3a>
10003f4a:	4282      	cmp	r2, r0
10003f4c:	bdff      	pop	{r0, r1, r2, r3, r4, r5, r6, r7, pc}
10003f4e:	4299      	cmp	r1, r3
10003f50:	d1fc      	bne.n	10003f4c <__aeabi_dfcmple_guts+0x3a>
10003f52:	4290      	cmp	r0, r2
10003f54:	bdff      	pop	{r0, r1, r2, r3, r4, r5, r6, r7, pc}
10003f56:	430b      	orrs	r3, r1
10003f58:	18db      	adds	r3, r3, r3
10003f5a:	4303      	orrs	r3, r0
10003f5c:	4313      	orrs	r3, r2
10003f5e:	d0f5      	beq.n	10003f4c <__aeabi_dfcmple_guts+0x3a>
10003f60:	43c9      	mvns	r1, r1
10003f62:	1849      	adds	r1, r1, r1
10003f64:	bdff      	pop	{r0, r1, r2, r3, r4, r5, r6, r7, pc}
10003f66:	0000      	.short	0x0000
10003f68:	000007ff 	.word	0x000007ff

10003f6c <__wrap___aeabi_dcmplt>:
10003f6c:	b500      	push	{lr}
10003f6e:	f7ff ffcf 	bl	10003f10 <__wrap___aeabi_cdcmpeq>
10003f72:	4180      	sbcs	r0, r0
10003f74:	bd00      	pop	{pc}
10003f76:	46c0      	nop			@ (mov r8, r8)

10003f78 <__wrap___aeabi_dcmple>:
10003f78:	b500      	push	{lr}
10003f7a:	f7ff ffc9 	bl	10003f10 <__wrap___aeabi_cdcmpeq>
10003f7e:	d901      	bls.n	10003f84 <__wrap___aeabi_dcmple+0xc>
10003f80:	2000      	movs	r0, #0
10003f82:	bd00      	pop	{pc}
10003f84:	2001      	movs	r0, #1
10003f86:	bd00      	pop	{pc}

10003f88 <__wrap___aeabi_dcmpge>:
10003f88:	b500      	push	{lr}
10003f8a:	f7ff ffb9 	bl	10003f00 <__wrap___aeabi_cdrcmple>
10003f8e:	d901      	bls.n	10003f94 <__wrap___aeabi_dcmpge+0xc>
10003f90:	2000      	movs	r0, #0
10003f92:	bd00      	pop	{pc}
10003f94:	2001      	movs	r0, #1
10003f96:	bd00      	pop	{pc}

10003f98 <__wrap___aeabi_dcmpgt>:
10003f98:	b500      	push	{lr}
10003f9a:	f7ff ffb1 	bl	10003f00 <__wrap___aeabi_cdrcmple>
10003f9e:	4180      	sbcs	r0, r0
10003fa0:	bd00      	pop	{pc}

10003fa2 <__wrap___aeabi_dcmpun>:
10003fa2:	2001      	movs	r0, #1
10003fa4:	0540      	lsls	r0, r0, #21
10003fa6:	004a      	lsls	r2, r1, #1
10003fa8:	1812      	adds	r2, r2, r0
10003faa:	d804      	bhi.n	10003fb6 <__wrap___aeabi_dcmpun+0x14>
10003fac:	005a      	lsls	r2, r3, #1
10003fae:	1812      	adds	r2, r2, r0
10003fb0:	d801      	bhi.n	10003fb6 <__wrap___aeabi_dcmpun+0x14>
10003fb2:	2000      	movs	r0, #0
10003fb4:	4770      	bx	lr
10003fb6:	2001      	movs	r0, #1
10003fb8:	4770      	bx	lr
	...

10003fbc <__wrap___aeabi_ui2d>:
10003fbc:	2100      	movs	r1, #0
10003fbe:	2800      	cmp	r0, #0
10003fc0:	d105      	bne.n	10003fce <__wrap___aeabi_i2d+0xa>
10003fc2:	4770      	bx	lr

10003fc4 <__wrap___aeabi_i2d>:
10003fc4:	17c1      	asrs	r1, r0, #31
10003fc6:	4048      	eors	r0, r1
10003fc8:	1a40      	subs	r0, r0, r1
10003fca:	d0fa      	beq.n	10003fc2 <__wrap___aeabi_ui2d+0x6>
10003fcc:	07c9      	lsls	r1, r1, #31
10003fce:	b513      	push	{r0, r1, r4, lr}
10003fd0:	4b06      	ldr	r3, [pc, #24]	@ (10003fec <__wrap___aeabi_i2d+0x28>)
10003fd2:	681b      	ldr	r3, [r3, #0]
10003fd4:	4798      	blx	r3
10003fd6:	bc0c      	pop	{r2, r3}
10003fd8:	1c44      	adds	r4, r0, #1
10003fda:	40a2      	lsls	r2, r4
10003fdc:	0510      	lsls	r0, r2, #20
10003fde:	0b12      	lsrs	r2, r2, #12
10003fe0:	4903      	ldr	r1, [pc, #12]	@ (10003ff0 <__wrap___aeabi_i2d+0x2c>)
10003fe2:	1b09      	subs	r1, r1, r4
10003fe4:	0509      	lsls	r1, r1, #20
10003fe6:	4319      	orrs	r1, r3
10003fe8:	4311      	orrs	r1, r2
10003fea:	bd10      	pop	{r4, pc}
10003fec:	20000bcc 	.word	0x20000bcc
10003ff0:	0000041f 	.word	0x0000041f

10003ff4 <__wrap___aeabi_d2iz>:
10003ff4:	b510      	push	{r4, lr}
10003ff6:	004c      	lsls	r4, r1, #1
10003ff8:	0d62      	lsrs	r2, r4, #21
10003ffa:	2380      	movs	r3, #128	@ 0x80
10003ffc:	18d2      	adds	r2, r2, r3
10003ffe:	00db      	lsls	r3, r3, #3
10004000:	1ad2      	subs	r2, r2, r3
10004002:	055b      	lsls	r3, r3, #21
10004004:	2a7e      	cmp	r2, #126	@ 0x7e
10004006:	dd10      	ble.n	1000402a <__wrap___aeabi_d2iz+0x36>
10004008:	3a9e      	subs	r2, #158	@ 0x9e
1000400a:	da13      	bge.n	10004034 <__wrap___aeabi_d2iz+0x40>
1000400c:	17cc      	asrs	r4, r1, #31
1000400e:	0309      	lsls	r1, r1, #12
10004010:	0849      	lsrs	r1, r1, #1
10004012:	4319      	orrs	r1, r3
10004014:	4252      	negs	r2, r2
10004016:	40d1      	lsrs	r1, r2
10004018:	0064      	lsls	r4, r4, #1
1000401a:	3401      	adds	r4, #1
1000401c:	3215      	adds	r2, #21
1000401e:	2a20      	cmp	r2, #32
10004020:	da05      	bge.n	1000402e <__wrap___aeabi_d2iz+0x3a>
10004022:	40d0      	lsrs	r0, r2
10004024:	4308      	orrs	r0, r1
10004026:	4360      	muls	r0, r4
10004028:	bd10      	pop	{r4, pc}
1000402a:	2000      	movs	r0, #0
1000402c:	bd10      	pop	{r4, pc}
1000402e:	4608      	mov	r0, r1
10004030:	4360      	muls	r0, r4
10004032:	bd10      	pop	{r4, pc}
10004034:	0fc8      	lsrs	r0, r1, #31
10004036:	18c0      	adds	r0, r0, r3
10004038:	3801      	subs	r0, #1
1000403a:	bd10      	pop	{r4, pc}

1000403c <__wrap___aeabi_d2uiz>:
1000403c:	b418      	push	{r3, r4}
1000403e:	4b02      	ldr	r3, [pc, #8]	@ (10004048 <__wrap___aeabi_d2uiz+0xc>)
10004040:	6a5b      	ldr	r3, [r3, #36]	@ 0x24
10004042:	9301      	str	r3, [sp, #4]
10004044:	bd08      	pop	{r3, pc}
10004046:	0000      	.short	0x0000
10004048:	200005e0 	.word	0x200005e0

1000404c <missing_double_func_shim>:
1000404c:	b510      	push	{r4, lr}
1000404e:	4801      	ldr	r0, [pc, #4]	@ (10004054 <missing_double_func_shim+0x8>)
10004050:	f7fe fbf0 	bl	10002834 <panic>
10004054:	10006324 	.word	0x10006324

10004058 <__aeabi_double_init>:
10004058:	2313      	movs	r3, #19
1000405a:	b570      	push	{r4, r5, r6, lr}
1000405c:	781d      	ldrb	r5, [r3, #0]
1000405e:	2d01      	cmp	r5, #1
10004060:	d019      	beq.n	10004096 <__aeabi_double_init+0x3e>
10004062:	dd14      	ble.n	1000408e <__aeabi_double_init+0x36>
10004064:	481d      	ldr	r0, [pc, #116]	@ (100040dc <__aeabi_double_init+0x84>)
10004066:	f7ff fb51 	bl	1000370c <rom_data_lookup>
1000406a:	0006      	movs	r6, r0
1000406c:	481c      	ldr	r0, [pc, #112]	@ (100040e0 <__aeabi_double_init+0x88>)
1000406e:	f7ff fb4d 	bl	1000370c <rom_data_lookup>
10004072:	4c1c      	ldr	r4, [pc, #112]	@ (100040e4 <__aeabi_double_init+0x8c>)
10004074:	2280      	movs	r2, #128	@ 0x80
10004076:	0031      	movs	r1, r6
10004078:	0020      	movs	r0, r4
1000407a:	f000 f89b 	bl	100041b4 <__wrap___aeabi_memcpy>
1000407e:	2d02      	cmp	r5, #2
10004080:	d006      	beq.n	10004090 <__aeabi_double_init+0x38>
10004082:	4819      	ldr	r0, [pc, #100]	@ (100040e8 <__aeabi_double_init+0x90>)
10004084:	f7ff fb3a 	bl	100036fc <rom_func_lookup>
10004088:	4b18      	ldr	r3, [pc, #96]	@ (100040ec <__aeabi_double_init+0x94>)
1000408a:	6018      	str	r0, [r3, #0]
1000408c:	bd70      	pop	{r4, r5, r6, pc}
1000408e:	4c15      	ldr	r4, [pc, #84]	@ (100040e4 <__aeabi_double_init+0x8c>)
10004090:	4b17      	ldr	r3, [pc, #92]	@ (100040f0 <__aeabi_double_init+0x98>)
10004092:	64a3      	str	r3, [r4, #72]	@ 0x48
10004094:	e7f5      	b.n	10004082 <__aeabi_double_init+0x2a>
10004096:	4b17      	ldr	r3, [pc, #92]	@ (100040f4 <__aeabi_double_init+0x9c>)
10004098:	4c12      	ldr	r4, [pc, #72]	@ (100040e4 <__aeabi_double_init+0x8c>)
1000409a:	6023      	str	r3, [r4, #0]
1000409c:	6063      	str	r3, [r4, #4]
1000409e:	60a3      	str	r3, [r4, #8]
100040a0:	60e3      	str	r3, [r4, #12]
100040a2:	6123      	str	r3, [r4, #16]
100040a4:	6163      	str	r3, [r4, #20]
100040a6:	61a3      	str	r3, [r4, #24]
100040a8:	61e3      	str	r3, [r4, #28]
100040aa:	6223      	str	r3, [r4, #32]
100040ac:	6263      	str	r3, [r4, #36]	@ 0x24
100040ae:	62a3      	str	r3, [r4, #40]	@ 0x28
100040b0:	62e3      	str	r3, [r4, #44]	@ 0x2c
100040b2:	6323      	str	r3, [r4, #48]	@ 0x30
100040b4:	6363      	str	r3, [r4, #52]	@ 0x34
100040b6:	63a3      	str	r3, [r4, #56]	@ 0x38
100040b8:	63e3      	str	r3, [r4, #60]	@ 0x3c
100040ba:	6423      	str	r3, [r4, #64]	@ 0x40
100040bc:	6463      	str	r3, [r4, #68]	@ 0x44
100040be:	64a3      	str	r3, [r4, #72]	@ 0x48
100040c0:	64e3      	str	r3, [r4, #76]	@ 0x4c
100040c2:	6523      	str	r3, [r4, #80]	@ 0x50
100040c4:	6563      	str	r3, [r4, #84]	@ 0x54
100040c6:	65a3      	str	r3, [r4, #88]	@ 0x58
100040c8:	65e3      	str	r3, [r4, #92]	@ 0x5c
100040ca:	6623      	str	r3, [r4, #96]	@ 0x60
100040cc:	6663      	str	r3, [r4, #100]	@ 0x64
100040ce:	66a3      	str	r3, [r4, #104]	@ 0x68
100040d0:	66e3      	str	r3, [r4, #108]	@ 0x6c
100040d2:	6723      	str	r3, [r4, #112]	@ 0x70
100040d4:	6763      	str	r3, [r4, #116]	@ 0x74
100040d6:	67a3      	str	r3, [r4, #120]	@ 0x78
100040d8:	67e3      	str	r3, [r4, #124]	@ 0x7c
100040da:	e7d9      	b.n	10004090 <__aeabi_double_init+0x38>
100040dc:	00004453 	.word	0x00004453
100040e0:	00004653 	.word	0x00004653
100040e4:	200005e0 	.word	0x200005e0
100040e8:	0000334c 	.word	0x0000334c
100040ec:	20000bcc 	.word	0x20000bcc
100040f0:	100040f9 	.word	0x100040f9
100040f4:	1000404d 	.word	0x1000404d

100040f8 <double_table_shim_on_use_helper>:
100040f8:	b507      	push	{r0, r1, r2, lr}
100040fa:	4660      	mov	r0, ip
100040fc:	8801      	ldrh	r1, [r0, #0]
100040fe:	0a0a      	lsrs	r2, r1, #8
10004100:	3002      	adds	r0, #2
10004102:	2adf      	cmp	r2, #223	@ 0xdf
10004104:	d1fa      	bne.n	100040fc <double_table_shim_on_use_helper+0x4>
10004106:	b2c9      	uxtb	r1, r1
10004108:	0882      	lsrs	r2, r0, #2
1000410a:	d304      	bcc.n	10004116 <double_table_shim_on_use_helper+0x1e>
1000410c:	8802      	ldrh	r2, [r0, #0]
1000410e:	8840      	ldrh	r0, [r0, #2]
10004110:	0400      	lsls	r0, r0, #16
10004112:	4310      	orrs	r0, r2
10004114:	e000      	b.n	10004118 <double_table_shim_on_use_helper+0x20>
10004116:	6800      	ldr	r0, [r0, #0]
10004118:	4a01      	ldr	r2, [pc, #4]	@ (10004120 <double_table_shim_on_use_helper+0x28>)
1000411a:	5050      	str	r0, [r2, r1]
1000411c:	9003      	str	r0, [sp, #12]
1000411e:	bd07      	pop	{r0, r1, r2, pc}
10004120:	200005e0 	.word	0x200005e0

10004124 <__wrap___aeabi_f2uiz>:
10004124:	4b01      	ldr	r3, [pc, #4]	@ (1000412c <__wrap___aeabi_f2uiz+0x8>)
10004126:	6a5b      	ldr	r3, [r3, #36]	@ 0x24
10004128:	4718      	bx	r3
1000412a:	0000      	.short	0x0000
1000412c:	20000bd0 	.word	0x20000bd0

10004130 <missing_float_func_shim>:
10004130:	b510      	push	{r4, lr}
10004132:	4801      	ldr	r0, [pc, #4]	@ (10004138 <missing_float_func_shim+0x8>)
10004134:	f7fe fb7e 	bl	10002834 <panic>
10004138:	1000637c 	.word	0x1000637c

1000413c <__aeabi_float_init>:
1000413c:	2313      	movs	r3, #19
1000413e:	b510      	push	{r4, lr}
10004140:	4810      	ldr	r0, [pc, #64]	@ (10004184 <__aeabi_float_init+0x48>)
10004142:	781c      	ldrb	r4, [r3, #0]
10004144:	f7ff fae2 	bl	1000370c <rom_data_lookup>
10004148:	0001      	movs	r1, r0
1000414a:	2c01      	cmp	r4, #1
1000414c:	d00a      	beq.n	10004164 <__aeabi_float_init+0x28>
1000414e:	dd03      	ble.n	10004158 <__aeabi_float_init+0x1c>
10004150:	2280      	movs	r2, #128	@ 0x80
10004152:	480d      	ldr	r0, [pc, #52]	@ (10004188 <__aeabi_float_init+0x4c>)
10004154:	f000 f82e 	bl	100041b4 <__wrap___aeabi_memcpy>
10004158:	480c      	ldr	r0, [pc, #48]	@ (1000418c <__aeabi_float_init+0x50>)
1000415a:	f7ff facf 	bl	100036fc <rom_func_lookup>
1000415e:	4b0c      	ldr	r3, [pc, #48]	@ (10004190 <__aeabi_float_init+0x54>)
10004160:	6018      	str	r0, [r3, #0]
10004162:	bd10      	pop	{r4, pc}
10004164:	4c08      	ldr	r4, [pc, #32]	@ (10004188 <__aeabi_float_init+0x4c>)
10004166:	2254      	movs	r2, #84	@ 0x54
10004168:	0020      	movs	r0, r4
1000416a:	f000 f823 	bl	100041b4 <__wrap___aeabi_memcpy>
1000416e:	0022      	movs	r2, r4
10004170:	4908      	ldr	r1, [pc, #32]	@ (10004194 <__aeabi_float_init+0x58>)
10004172:	3280      	adds	r2, #128	@ 0x80
10004174:	6823      	ldr	r3, [r4, #0]
10004176:	2b00      	cmp	r3, #0
10004178:	d100      	bne.n	1000417c <__aeabi_float_init+0x40>
1000417a:	6021      	str	r1, [r4, #0]
1000417c:	3404      	adds	r4, #4
1000417e:	4294      	cmp	r4, r2
10004180:	d1f8      	bne.n	10004174 <__aeabi_float_init+0x38>
10004182:	e7e9      	b.n	10004158 <__aeabi_float_init+0x1c>
10004184:	00004653 	.word	0x00004653
10004188:	20000bd0 	.word	0x20000bd0
1000418c:	0000334c 	.word	0x0000334c
10004190:	20000bcc 	.word	0x20000bcc
10004194:	10004131 	.word	0x10004131

10004198 <__aeabi_mem_init>:
10004198:	4801      	ldr	r0, [pc, #4]	@ (100041a0 <__aeabi_mem_init+0x8>)
1000419a:	2104      	movs	r1, #4
1000419c:	4b01      	ldr	r3, [pc, #4]	@ (100041a4 <__aeabi_mem_init+0xc>)
1000419e:	4718      	bx	r3
100041a0:	20000430 	.word	0x20000430
100041a4:	1000371d 	.word	0x1000371d

100041a8 <__wrap_memset>:
100041a8:	4b01      	ldr	r3, [pc, #4]	@ (100041b0 <__wrap_memset+0x8>)
100041aa:	681b      	ldr	r3, [r3, #0]
100041ac:	4718      	bx	r3
100041ae:	0000      	.short	0x0000
100041b0:	20000430 	.word	0x20000430

100041b4 <__wrap___aeabi_memcpy>:
100041b4:	4b01      	ldr	r3, [pc, #4]	@ (100041bc <__wrap___aeabi_memcpy+0x8>)
100041b6:	685b      	ldr	r3, [r3, #4]
100041b8:	4718      	bx	r3
100041ba:	0000      	.short	0x0000
100041bc:	20000430 	.word	0x20000430

100041c0 <_out_null>:
100041c0:	4770      	bx	lr
100041c2:	46c0      	nop			@ (mov r8, r8)

100041c4 <_out_rev>:
100041c4:	b5f8      	push	{r3, r4, r5, r6, r7, lr}
100041c6:	4657      	mov	r7, sl
100041c8:	46de      	mov	lr, fp
100041ca:	464e      	mov	r6, r9
100041cc:	4645      	mov	r5, r8
100041ce:	b5e0      	push	{r5, r6, r7, lr}
100041d0:	4699      	mov	r9, r3
100041d2:	9b0a      	ldr	r3, [sp, #40]	@ 0x28
100041d4:	0007      	movs	r7, r0
100041d6:	469a      	mov	sl, r3
100041d8:	9b0d      	ldr	r3, [sp, #52]	@ 0x34
100041da:	4688      	mov	r8, r1
100041dc:	4693      	mov	fp, r2
100041de:	9c0b      	ldr	r4, [sp, #44]	@ 0x2c
100041e0:	079b      	lsls	r3, r3, #30
100041e2:	d13b      	bne.n	1000425c <_out_rev+0x98>
100041e4:	9b0c      	ldr	r3, [sp, #48]	@ 0x30
100041e6:	429c      	cmp	r4, r3
100041e8:	d23d      	bcs.n	10004266 <_out_rev+0xa2>
100041ea:	1b1e      	subs	r6, r3, r4
100041ec:	940b      	str	r4, [sp, #44]	@ 0x2c
100041ee:	0015      	movs	r5, r2
100041f0:	000c      	movs	r4, r1
100041f2:	445e      	add	r6, fp
100041f4:	002a      	movs	r2, r5
100041f6:	464b      	mov	r3, r9
100041f8:	3501      	adds	r5, #1
100041fa:	0021      	movs	r1, r4
100041fc:	2020      	movs	r0, #32
100041fe:	47b8      	blx	r7
10004200:	42b5      	cmp	r5, r6
10004202:	d1f7      	bne.n	100041f4 <_out_rev+0x30>
10004204:	46a0      	mov	r8, r4
10004206:	9c0b      	ldr	r4, [sp, #44]	@ 0x2c
10004208:	2c00      	cmp	r4, #0
1000420a:	d020      	beq.n	1000424e <_out_rev+0x8a>
1000420c:	4645      	mov	r5, r8
1000420e:	1936      	adds	r6, r6, r4
10004210:	4653      	mov	r3, sl
10004212:	1b32      	subs	r2, r6, r4
10004214:	3c01      	subs	r4, #1
10004216:	5d18      	ldrb	r0, [r3, r4]
10004218:	0029      	movs	r1, r5
1000421a:	464b      	mov	r3, r9
1000421c:	47b8      	blx	r7
1000421e:	2c00      	cmp	r4, #0
10004220:	d1f6      	bne.n	10004210 <_out_rev+0x4c>
10004222:	002b      	movs	r3, r5
10004224:	0035      	movs	r5, r6
10004226:	4698      	mov	r8, r3
10004228:	9b0d      	ldr	r3, [sp, #52]	@ 0x34
1000422a:	079b      	lsls	r3, r3, #30
1000422c:	d50f      	bpl.n	1000424e <_out_rev+0x8a>
1000422e:	465b      	mov	r3, fp
10004230:	1aec      	subs	r4, r5, r3
10004232:	9b0c      	ldr	r3, [sp, #48]	@ 0x30
10004234:	42a3      	cmp	r3, r4
10004236:	d90a      	bls.n	1000424e <_out_rev+0x8a>
10004238:	4646      	mov	r6, r8
1000423a:	4698      	mov	r8, r3
1000423c:	002a      	movs	r2, r5
1000423e:	464b      	mov	r3, r9
10004240:	0031      	movs	r1, r6
10004242:	2020      	movs	r0, #32
10004244:	3401      	adds	r4, #1
10004246:	47b8      	blx	r7
10004248:	3501      	adds	r5, #1
1000424a:	4544      	cmp	r4, r8
1000424c:	d3f6      	bcc.n	1000423c <_out_rev+0x78>
1000424e:	0028      	movs	r0, r5
10004250:	bcf0      	pop	{r4, r5, r6, r7}
10004252:	46bb      	mov	fp, r7
10004254:	46b2      	mov	sl, r6
10004256:	46a9      	mov	r9, r5
10004258:	46a0      	mov	r8, r4
1000425a:	bdf8      	pop	{r3, r4, r5, r6, r7, pc}
1000425c:	0016      	movs	r6, r2
1000425e:	0015      	movs	r5, r2
10004260:	2c00      	cmp	r4, #0
10004262:	d1d3      	bne.n	1000420c <_out_rev+0x48>
10004264:	e7e0      	b.n	10004228 <_out_rev+0x64>
10004266:	0016      	movs	r6, r2
10004268:	0015      	movs	r5, r2
1000426a:	2c00      	cmp	r4, #0
1000426c:	d1ce      	bne.n	1000420c <_out_rev+0x48>
1000426e:	e7ee      	b.n	1000424e <_out_rev+0x8a>

10004270 <_ntoa_format>:
10004270:	b5f0      	push	{r4, r5, r6, r7, lr}
10004272:	4645      	mov	r5, r8
10004274:	46de      	mov	lr, fp
10004276:	4657      	mov	r7, sl
10004278:	464e      	mov	r6, r9
1000427a:	b5e0      	push	{r5, r6, r7, lr}
1000427c:	b085      	sub	sp, #20
1000427e:	469c      	mov	ip, r3
10004280:	ab10      	add	r3, sp, #64	@ 0x40
10004282:	781b      	ldrb	r3, [r3, #0]
10004284:	9f14      	ldr	r7, [sp, #80]	@ 0x50
10004286:	4693      	mov	fp, r2
10004288:	4698      	mov	r8, r3
1000428a:	9c0f      	ldr	r4, [sp, #60]	@ 0x3c
1000428c:	9e12      	ldr	r6, [sp, #72]	@ 0x48
1000428e:	9d13      	ldr	r5, [sp, #76]	@ 0x4c
10004290:	07bb      	lsls	r3, r7, #30
10004292:	d44c      	bmi.n	1000432e <_ntoa_format+0xbe>
10004294:	2d00      	cmp	r5, #0
10004296:	d142      	bne.n	1000431e <_ntoa_format+0xae>
10004298:	42b4      	cmp	r4, r6
1000429a:	d248      	bcs.n	1000432e <_ntoa_format+0xbe>
1000429c:	2301      	movs	r3, #1
1000429e:	403b      	ands	r3, r7
100042a0:	4699      	mov	r9, r3
100042a2:	9b0e      	ldr	r3, [sp, #56]	@ 0x38
100042a4:	3b01      	subs	r3, #1
100042a6:	469a      	mov	sl, r3
100042a8:	2330      	movs	r3, #48	@ 0x30
100042aa:	e004      	b.n	100042b6 <_ntoa_format+0x46>
100042ac:	4652      	mov	r2, sl
100042ae:	3401      	adds	r4, #1
100042b0:	5513      	strb	r3, [r2, r4]
100042b2:	42a6      	cmp	r6, r4
100042b4:	d901      	bls.n	100042ba <_ntoa_format+0x4a>
100042b6:	2c20      	cmp	r4, #32
100042b8:	d1f8      	bne.n	100042ac <_ntoa_format+0x3c>
100042ba:	464b      	mov	r3, r9
100042bc:	2b00      	cmp	r3, #0
100042be:	d100      	bne.n	100042c2 <_ntoa_format+0x52>
100042c0:	e083      	b.n	100043ca <_ntoa_format+0x15a>
100042c2:	9b0e      	ldr	r3, [sp, #56]	@ 0x38
100042c4:	3b01      	subs	r3, #1
100042c6:	4699      	mov	r9, r3
100042c8:	2330      	movs	r3, #48	@ 0x30
100042ca:	42a5      	cmp	r5, r4
100042cc:	d805      	bhi.n	100042da <_ntoa_format+0x6a>
100042ce:	e02e      	b.n	1000432e <_ntoa_format+0xbe>
100042d0:	464a      	mov	r2, r9
100042d2:	3401      	adds	r4, #1
100042d4:	5513      	strb	r3, [r2, r4]
100042d6:	42ac      	cmp	r4, r5
100042d8:	d029      	beq.n	1000432e <_ntoa_format+0xbe>
100042da:	2c20      	cmp	r4, #32
100042dc:	d1f8      	bne.n	100042d0 <_ntoa_format+0x60>
100042de:	06fb      	lsls	r3, r7, #27
100042e0:	d50c      	bpl.n	100042fc <_ntoa_format+0x8c>
100042e2:	057b      	lsls	r3, r7, #21
100042e4:	d454      	bmi.n	10004390 <_ntoa_format+0x120>
100042e6:	42a6      	cmp	r6, r4
100042e8:	d063      	beq.n	100043b2 <_ntoa_format+0x142>
100042ea:	42a5      	cmp	r5, r4
100042ec:	d061      	beq.n	100043b2 <_ntoa_format+0x142>
100042ee:	9b11      	ldr	r3, [sp, #68]	@ 0x44
100042f0:	2b10      	cmp	r3, #16
100042f2:	d050      	beq.n	10004396 <_ntoa_format+0x126>
100042f4:	2b02      	cmp	r3, #2
100042f6:	d057      	beq.n	100043a8 <_ntoa_format+0x138>
100042f8:	2c20      	cmp	r4, #32
100042fa:	d132      	bne.n	10004362 <_ntoa_format+0xf2>
100042fc:	2320      	movs	r3, #32
100042fe:	9301      	str	r3, [sp, #4]
10004300:	9b0e      	ldr	r3, [sp, #56]	@ 0x38
10004302:	465a      	mov	r2, fp
10004304:	9300      	str	r3, [sp, #0]
10004306:	9703      	str	r7, [sp, #12]
10004308:	4663      	mov	r3, ip
1000430a:	9502      	str	r5, [sp, #8]
1000430c:	f7ff ff5a 	bl	100041c4 <_out_rev>
10004310:	b005      	add	sp, #20
10004312:	bcf0      	pop	{r4, r5, r6, r7}
10004314:	46bb      	mov	fp, r7
10004316:	46b2      	mov	sl, r6
10004318:	46a9      	mov	r9, r5
1000431a:	46a0      	mov	r8, r4
1000431c:	bdf0      	pop	{r4, r5, r6, r7, pc}
1000431e:	2301      	movs	r3, #1
10004320:	403b      	ands	r3, r7
10004322:	4699      	mov	r9, r3
10004324:	2301      	movs	r3, #1
10004326:	423b      	tst	r3, r7
10004328:	d12a      	bne.n	10004380 <_ntoa_format+0x110>
1000432a:	42b4      	cmp	r4, r6
1000432c:	d3b9      	bcc.n	100042a2 <_ntoa_format+0x32>
1000432e:	06fb      	lsls	r3, r7, #27
10004330:	d51c      	bpl.n	1000436c <_ntoa_format+0xfc>
10004332:	057b      	lsls	r3, r7, #21
10004334:	d4db      	bmi.n	100042ee <_ntoa_format+0x7e>
10004336:	2c00      	cmp	r4, #0
10004338:	d1d5      	bne.n	100042e6 <_ntoa_format+0x76>
1000433a:	9b11      	ldr	r3, [sp, #68]	@ 0x44
1000433c:	2b10      	cmp	r3, #16
1000433e:	d05b      	beq.n	100043f8 <_ntoa_format+0x188>
10004340:	9b11      	ldr	r3, [sp, #68]	@ 0x44
10004342:	2b02      	cmp	r3, #2
10004344:	d06b      	beq.n	1000441e <_ntoa_format+0x1ae>
10004346:	2330      	movs	r3, #48	@ 0x30
10004348:	2401      	movs	r4, #1
1000434a:	9a0e      	ldr	r2, [sp, #56]	@ 0x38
1000434c:	7013      	strb	r3, [r2, #0]
1000434e:	4643      	mov	r3, r8
10004350:	2b00      	cmp	r3, #0
10004352:	d110      	bne.n	10004376 <_ntoa_format+0x106>
10004354:	077b      	lsls	r3, r7, #29
10004356:	d53e      	bpl.n	100043d6 <_ntoa_format+0x166>
10004358:	262b      	movs	r6, #43	@ 0x2b
1000435a:	9a0e      	ldr	r2, [sp, #56]	@ 0x38
1000435c:	1c63      	adds	r3, r4, #1
1000435e:	5516      	strb	r6, [r2, r4]
10004360:	e7cd      	b.n	100042fe <_ntoa_format+0x8e>
10004362:	0023      	movs	r3, r4
10004364:	3401      	adds	r4, #1
10004366:	2630      	movs	r6, #48	@ 0x30
10004368:	9a0e      	ldr	r2, [sp, #56]	@ 0x38
1000436a:	54d6      	strb	r6, [r2, r3]
1000436c:	2c20      	cmp	r4, #32
1000436e:	d0c5      	beq.n	100042fc <_ntoa_format+0x8c>
10004370:	4643      	mov	r3, r8
10004372:	2b00      	cmp	r3, #0
10004374:	d0ee      	beq.n	10004354 <_ntoa_format+0xe4>
10004376:	262d      	movs	r6, #45	@ 0x2d
10004378:	9a0e      	ldr	r2, [sp, #56]	@ 0x38
1000437a:	1c63      	adds	r3, r4, #1
1000437c:	5516      	strb	r6, [r2, r4]
1000437e:	e7be      	b.n	100042fe <_ntoa_format+0x8e>
10004380:	4643      	mov	r3, r8
10004382:	2b00      	cmp	r3, #0
10004384:	d02f      	beq.n	100043e6 <_ntoa_format+0x176>
10004386:	3d01      	subs	r5, #1
10004388:	42b4      	cmp	r4, r6
1000438a:	d200      	bcs.n	1000438e <_ntoa_format+0x11e>
1000438c:	e789      	b.n	100042a2 <_ntoa_format+0x32>
1000438e:	e798      	b.n	100042c2 <_ntoa_format+0x52>
10004390:	9b11      	ldr	r3, [sp, #68]	@ 0x44
10004392:	2b10      	cmp	r3, #16
10004394:	d1b2      	bne.n	100042fc <_ntoa_format+0x8c>
10004396:	06bb      	lsls	r3, r7, #26
10004398:	d537      	bpl.n	1000440a <_ntoa_format+0x19a>
1000439a:	2c20      	cmp	r4, #32
1000439c:	d0ae      	beq.n	100042fc <_ntoa_format+0x8c>
1000439e:	2358      	movs	r3, #88	@ 0x58
100043a0:	9a0e      	ldr	r2, [sp, #56]	@ 0x38
100043a2:	5513      	strb	r3, [r2, r4]
100043a4:	3401      	adds	r4, #1
100043a6:	e7a7      	b.n	100042f8 <_ntoa_format+0x88>
100043a8:	2c20      	cmp	r4, #32
100043aa:	d0a7      	beq.n	100042fc <_ntoa_format+0x8c>
100043ac:	0023      	movs	r3, r4
100043ae:	3401      	adds	r4, #1
100043b0:	e007      	b.n	100043c2 <_ntoa_format+0x152>
100043b2:	1e63      	subs	r3, r4, #1
100043b4:	2c01      	cmp	r4, #1
100043b6:	d0c0      	beq.n	1000433a <_ntoa_format+0xca>
100043b8:	9a11      	ldr	r2, [sp, #68]	@ 0x44
100043ba:	2a10      	cmp	r2, #16
100043bc:	d031      	beq.n	10004422 <_ntoa_format+0x1b2>
100043be:	2a02      	cmp	r2, #2
100043c0:	d1d1      	bne.n	10004366 <_ntoa_format+0xf6>
100043c2:	2662      	movs	r6, #98	@ 0x62
100043c4:	9a0e      	ldr	r2, [sp, #56]	@ 0x38
100043c6:	54d6      	strb	r6, [r2, r3]
100043c8:	e796      	b.n	100042f8 <_ntoa_format+0x88>
100043ca:	06fb      	lsls	r3, r7, #27
100043cc:	d5ce      	bpl.n	1000436c <_ntoa_format+0xfc>
100043ce:	057b      	lsls	r3, r7, #21
100043d0:	d400      	bmi.n	100043d4 <_ntoa_format+0x164>
100043d2:	e788      	b.n	100042e6 <_ntoa_format+0x76>
100043d4:	e78b      	b.n	100042ee <_ntoa_format+0x7e>
100043d6:	0023      	movs	r3, r4
100043d8:	073e      	lsls	r6, r7, #28
100043da:	d590      	bpl.n	100042fe <_ntoa_format+0x8e>
100043dc:	2620      	movs	r6, #32
100043de:	9a0e      	ldr	r2, [sp, #56]	@ 0x38
100043e0:	3301      	adds	r3, #1
100043e2:	5516      	strb	r6, [r2, r4]
100043e4:	e78b      	b.n	100042fe <_ntoa_format+0x8e>
100043e6:	230c      	movs	r3, #12
100043e8:	403b      	ands	r3, r7
100043ea:	1e5a      	subs	r2, r3, #1
100043ec:	4193      	sbcs	r3, r2
100043ee:	1aed      	subs	r5, r5, r3
100043f0:	42b4      	cmp	r4, r6
100043f2:	d200      	bcs.n	100043f6 <_ntoa_format+0x186>
100043f4:	e755      	b.n	100042a2 <_ntoa_format+0x32>
100043f6:	e764      	b.n	100042c2 <_ntoa_format+0x52>
100043f8:	06bb      	lsls	r3, r7, #26
100043fa:	d40e      	bmi.n	1000441a <_ntoa_format+0x1aa>
100043fc:	2378      	movs	r3, #120	@ 0x78
100043fe:	9a0e      	ldr	r2, [sp, #56]	@ 0x38
10004400:	2402      	movs	r4, #2
10004402:	7013      	strb	r3, [r2, #0]
10004404:	2330      	movs	r3, #48	@ 0x30
10004406:	7053      	strb	r3, [r2, #1]
10004408:	e7a1      	b.n	1000434e <_ntoa_format+0xde>
1000440a:	2c20      	cmp	r4, #32
1000440c:	d100      	bne.n	10004410 <_ntoa_format+0x1a0>
1000440e:	e775      	b.n	100042fc <_ntoa_format+0x8c>
10004410:	2378      	movs	r3, #120	@ 0x78
10004412:	9a0e      	ldr	r2, [sp, #56]	@ 0x38
10004414:	5513      	strb	r3, [r2, r4]
10004416:	3401      	adds	r4, #1
10004418:	e76e      	b.n	100042f8 <_ntoa_format+0x88>
1000441a:	2358      	movs	r3, #88	@ 0x58
1000441c:	e7ef      	b.n	100043fe <_ntoa_format+0x18e>
1000441e:	3360      	adds	r3, #96	@ 0x60
10004420:	e7ed      	b.n	100043fe <_ntoa_format+0x18e>
10004422:	9a0e      	ldr	r2, [sp, #56]	@ 0x38
10004424:	1ea6      	subs	r6, r4, #2
10004426:	4691      	mov	r9, r2
10004428:	444e      	add	r6, r9
1000442a:	06ba      	lsls	r2, r7, #26
1000442c:	d502      	bpl.n	10004434 <_ntoa_format+0x1c4>
1000442e:	2258      	movs	r2, #88	@ 0x58
10004430:	7032      	strb	r2, [r6, #0]
10004432:	e798      	b.n	10004366 <_ntoa_format+0xf6>
10004434:	2278      	movs	r2, #120	@ 0x78
10004436:	7032      	strb	r2, [r6, #0]
10004438:	e795      	b.n	10004366 <_ntoa_format+0xf6>
1000443a:	46c0      	nop			@ (mov r8, r8)

1000443c <_out_char>:
1000443c:	b510      	push	{r4, lr}
1000443e:	2800      	cmp	r0, #0
10004440:	d100      	bne.n	10004444 <_out_char+0x8>
10004442:	bd10      	pop	{r4, pc}
10004444:	f001 fc80 	bl	10005d48 <__wrap_putchar>
10004448:	e7fb      	b.n	10004442 <_out_char+0x6>
1000444a:	46c0      	nop			@ (mov r8, r8)

1000444c <_out_fct>:
1000444c:	000b      	movs	r3, r1
1000444e:	b510      	push	{r4, lr}
10004450:	2800      	cmp	r0, #0
10004452:	d002      	beq.n	1000445a <_out_fct+0xe>
10004454:	6849      	ldr	r1, [r1, #4]
10004456:	681b      	ldr	r3, [r3, #0]
10004458:	4798      	blx	r3
1000445a:	bd10      	pop	{r4, pc}

1000445c <_ftoa>:
1000445c:	b5f0      	push	{r4, r5, r6, r7, lr}
1000445e:	4657      	mov	r7, sl
10004460:	46de      	mov	lr, fp
10004462:	464e      	mov	r6, r9
10004464:	4645      	mov	r5, r8
10004466:	b5e0      	push	{r5, r6, r7, lr}
10004468:	b095      	sub	sp, #84	@ 0x54
1000446a:	4683      	mov	fp, r0
1000446c:	000f      	movs	r7, r1
1000446e:	4692      	mov	sl, r2
10004470:	4698      	mov	r8, r3
10004472:	9a1e      	ldr	r2, [sp, #120]	@ 0x78
10004474:	9b1f      	ldr	r3, [sp, #124]	@ 0x7c
10004476:	0010      	movs	r0, r2
10004478:	0019      	movs	r1, r3
1000447a:	9e20      	ldr	r6, [sp, #128]	@ 0x80
1000447c:	f7ff fd91 	bl	10003fa2 <__wrap___aeabi_dcmpun>
10004480:	2800      	cmp	r0, #0
10004482:	d000      	beq.n	10004486 <_ftoa+0x2a>
10004484:	e1ea      	b.n	1000485c <_ftoa+0x400>
10004486:	981e      	ldr	r0, [sp, #120]	@ 0x78
10004488:	991f      	ldr	r1, [sp, #124]	@ 0x7c
1000448a:	2201      	movs	r2, #1
1000448c:	4bc5      	ldr	r3, [pc, #788]	@ (100047a4 <_ftoa+0x348>)
1000448e:	4252      	negs	r2, r2
10004490:	f7ff fd6c 	bl	10003f6c <__wrap___aeabi_dcmplt>
10004494:	2800      	cmp	r0, #0
10004496:	d000      	beq.n	1000449a <_ftoa+0x3e>
10004498:	e114      	b.n	100046c4 <_ftoa+0x268>
1000449a:	981e      	ldr	r0, [sp, #120]	@ 0x78
1000449c:	991f      	ldr	r1, [sp, #124]	@ 0x7c
1000449e:	2201      	movs	r2, #1
100044a0:	4bc1      	ldr	r3, [pc, #772]	@ (100047a8 <_ftoa+0x34c>)
100044a2:	4252      	negs	r2, r2
100044a4:	f7ff fd78 	bl	10003f98 <__wrap___aeabi_dcmpgt>
100044a8:	2800      	cmp	r0, #0
100044aa:	d000      	beq.n	100044ae <_ftoa+0x52>
100044ac:	e0e9      	b.n	10004682 <_ftoa+0x226>
100044ae:	981e      	ldr	r0, [sp, #120]	@ 0x78
100044b0:	991f      	ldr	r1, [sp, #124]	@ 0x7c
100044b2:	2200      	movs	r2, #0
100044b4:	4bbd      	ldr	r3, [pc, #756]	@ (100047ac <_ftoa+0x350>)
100044b6:	f7ff fd6f 	bl	10003f98 <__wrap___aeabi_dcmpgt>
100044ba:	2800      	cmp	r0, #0
100044bc:	d000      	beq.n	100044c0 <_ftoa+0x64>
100044be:	e0c8      	b.n	10004652 <_ftoa+0x1f6>
100044c0:	981e      	ldr	r0, [sp, #120]	@ 0x78
100044c2:	991f      	ldr	r1, [sp, #124]	@ 0x7c
100044c4:	2200      	movs	r2, #0
100044c6:	4bba      	ldr	r3, [pc, #744]	@ (100047b0 <_ftoa+0x354>)
100044c8:	f7ff fd50 	bl	10003f6c <__wrap___aeabi_dcmplt>
100044cc:	2800      	cmp	r0, #0
100044ce:	d000      	beq.n	100044d2 <_ftoa+0x76>
100044d0:	e0bf      	b.n	10004652 <_ftoa+0x1f6>
100044d2:	981e      	ldr	r0, [sp, #120]	@ 0x78
100044d4:	991f      	ldr	r1, [sp, #124]	@ 0x7c
100044d6:	2200      	movs	r2, #0
100044d8:	2300      	movs	r3, #0
100044da:	f7ff fd47 	bl	10003f6c <__wrap___aeabi_dcmplt>
100044de:	2800      	cmp	r0, #0
100044e0:	d000      	beq.n	100044e4 <_ftoa+0x88>
100044e2:	e0e4      	b.n	100046ae <_ftoa+0x252>
100044e4:	2300      	movs	r3, #0
100044e6:	930b      	str	r3, [sp, #44]	@ 0x2c
100044e8:	9b22      	ldr	r3, [sp, #136]	@ 0x88
100044ea:	055b      	lsls	r3, r3, #21
100044ec:	d400      	bmi.n	100044f0 <_ftoa+0x94>
100044ee:	2606      	movs	r6, #6
100044f0:	2400      	movs	r4, #0
100044f2:	2330      	movs	r3, #48	@ 0x30
100044f4:	e007      	b.n	10004506 <_ftoa+0xaa>
100044f6:	2117      	movs	r1, #23
100044f8:	aa06      	add	r2, sp, #24
100044fa:	3401      	adds	r4, #1
100044fc:	1852      	adds	r2, r2, r1
100044fe:	5513      	strb	r3, [r2, r4]
10004500:	3e01      	subs	r6, #1
10004502:	2c20      	cmp	r4, #32
10004504:	d001      	beq.n	1000450a <_ftoa+0xae>
10004506:	2e09      	cmp	r6, #9
10004508:	d8f5      	bhi.n	100044f6 <_ftoa+0x9a>
1000450a:	981e      	ldr	r0, [sp, #120]	@ 0x78
1000450c:	991f      	ldr	r1, [sp, #124]	@ 0x7c
1000450e:	f7ff fd71 	bl	10003ff4 <__wrap___aeabi_d2iz>
10004512:	4ba8      	ldr	r3, [pc, #672]	@ (100047b4 <_ftoa+0x358>)
10004514:	00f2      	lsls	r2, r6, #3
10004516:	189b      	adds	r3, r3, r2
10004518:	681a      	ldr	r2, [r3, #0]
1000451a:	685b      	ldr	r3, [r3, #4]
1000451c:	0005      	movs	r5, r0
1000451e:	9208      	str	r2, [sp, #32]
10004520:	9309      	str	r3, [sp, #36]	@ 0x24
10004522:	f7ff fd4f 	bl	10003fc4 <__wrap___aeabi_i2d>
10004526:	0002      	movs	r2, r0
10004528:	000b      	movs	r3, r1
1000452a:	981e      	ldr	r0, [sp, #120]	@ 0x78
1000452c:	991f      	ldr	r1, [sp, #124]	@ 0x7c
1000452e:	f7ff fcba 	bl	10003ea6 <__wrap___aeabi_dsub>
10004532:	9a08      	ldr	r2, [sp, #32]
10004534:	9b09      	ldr	r3, [sp, #36]	@ 0x24
10004536:	f7ff fcda 	bl	10003eee <__wrap___aeabi_dmul>
1000453a:	9006      	str	r0, [sp, #24]
1000453c:	9107      	str	r1, [sp, #28]
1000453e:	f7ff fd7d 	bl	1000403c <__wrap___aeabi_d2uiz>
10004542:	4681      	mov	r9, r0
10004544:	f7ff fd3a 	bl	10003fbc <__wrap___aeabi_ui2d>
10004548:	0002      	movs	r2, r0
1000454a:	000b      	movs	r3, r1
1000454c:	9806      	ldr	r0, [sp, #24]
1000454e:	9907      	ldr	r1, [sp, #28]
10004550:	f7ff fca9 	bl	10003ea6 <__wrap___aeabi_dsub>
10004554:	2200      	movs	r2, #0
10004556:	4b98      	ldr	r3, [pc, #608]	@ (100047b8 <_ftoa+0x35c>)
10004558:	9006      	str	r0, [sp, #24]
1000455a:	9107      	str	r1, [sp, #28]
1000455c:	f7ff fd1c 	bl	10003f98 <__wrap___aeabi_dcmpgt>
10004560:	2800      	cmp	r0, #0
10004562:	d100      	bne.n	10004566 <_ftoa+0x10a>
10004564:	e10d      	b.n	10004782 <_ftoa+0x326>
10004566:	2301      	movs	r3, #1
10004568:	469c      	mov	ip, r3
1000456a:	44e1      	add	r9, ip
1000456c:	4648      	mov	r0, r9
1000456e:	f7ff fd25 	bl	10003fbc <__wrap___aeabi_ui2d>
10004572:	0002      	movs	r2, r0
10004574:	000b      	movs	r3, r1
10004576:	9808      	ldr	r0, [sp, #32]
10004578:	9909      	ldr	r1, [sp, #36]	@ 0x24
1000457a:	f7ff fcfd 	bl	10003f78 <__wrap___aeabi_dcmple>
1000457e:	2800      	cmp	r0, #0
10004580:	d002      	beq.n	10004588 <_ftoa+0x12c>
10004582:	2300      	movs	r3, #0
10004584:	4699      	mov	r9, r3
10004586:	3501      	adds	r5, #1
10004588:	2e00      	cmp	r6, #0
1000458a:	d100      	bne.n	1000458e <_ftoa+0x132>
1000458c:	e0d9      	b.n	10004742 <_ftoa+0x2e6>
1000458e:	9506      	str	r5, [sp, #24]
10004590:	464d      	mov	r5, r9
10004592:	46b9      	mov	r9, r7
10004594:	e014      	b.n	100045c0 <_ftoa+0x164>
10004596:	aa06      	add	r2, sp, #24
10004598:	4694      	mov	ip, r2
1000459a:	2317      	movs	r3, #23
1000459c:	210a      	movs	r1, #10
1000459e:	4463      	add	r3, ip
100045a0:	0028      	movs	r0, r5
100045a2:	3401      	adds	r4, #1
100045a4:	191f      	adds	r7, r3, r4
100045a6:	f7ff fa43 	bl	10003a30 <__wrap___aeabi_uidiv>
100045aa:	3130      	adds	r1, #48	@ 0x30
100045ac:	7039      	strb	r1, [r7, #0]
100045ae:	0028      	movs	r0, r5
100045b0:	210a      	movs	r1, #10
100045b2:	3e01      	subs	r6, #1
100045b4:	f7ff fa3c 	bl	10003a30 <__wrap___aeabi_uidiv>
100045b8:	2d09      	cmp	r5, #9
100045ba:	d800      	bhi.n	100045be <_ftoa+0x162>
100045bc:	e117      	b.n	100047ee <_ftoa+0x392>
100045be:	0005      	movs	r5, r0
100045c0:	2c20      	cmp	r4, #32
100045c2:	d1e8      	bne.n	10004596 <_ftoa+0x13a>
100045c4:	464f      	mov	r7, r9
100045c6:	9d06      	ldr	r5, [sp, #24]
100045c8:	2420      	movs	r4, #32
100045ca:	ae0c      	add	r6, sp, #48	@ 0x30
100045cc:	aa06      	add	r2, sp, #24
100045ce:	2317      	movs	r3, #23
100045d0:	4694      	mov	ip, r2
100045d2:	4463      	add	r3, ip
100045d4:	4699      	mov	r9, r3
100045d6:	465b      	mov	r3, fp
100045d8:	46b3      	mov	fp, r6
100045da:	9306      	str	r3, [sp, #24]
100045dc:	e00f      	b.n	100045fe <_ftoa+0x1a2>
100045de:	464b      	mov	r3, r9
100045e0:	0028      	movs	r0, r5
100045e2:	210a      	movs	r1, #10
100045e4:	3401      	adds	r4, #1
100045e6:	18e6      	adds	r6, r4, r3
100045e8:	f7ff f9fa 	bl	100039e0 <__wrap___aeabi_idiv>
100045ec:	3130      	adds	r1, #48	@ 0x30
100045ee:	0028      	movs	r0, r5
100045f0:	7031      	strb	r1, [r6, #0]
100045f2:	210a      	movs	r1, #10
100045f4:	f7ff f9f4 	bl	100039e0 <__wrap___aeabi_idiv>
100045f8:	1e05      	subs	r5, r0, #0
100045fa:	d100      	bne.n	100045fe <_ftoa+0x1a2>
100045fc:	e0e4      	b.n	100047c8 <_ftoa+0x36c>
100045fe:	2c20      	cmp	r4, #32
10004600:	d1ed      	bne.n	100045de <_ftoa+0x182>
10004602:	9b06      	ldr	r3, [sp, #24]
10004604:	465e      	mov	r6, fp
10004606:	469b      	mov	fp, r3
10004608:	2303      	movs	r3, #3
1000460a:	9a22      	ldr	r2, [sp, #136]	@ 0x88
1000460c:	4013      	ands	r3, r2
1000460e:	2b01      	cmp	r3, #1
10004610:	d118      	bne.n	10004644 <_ftoa+0x1e8>
10004612:	9b21      	ldr	r3, [sp, #132]	@ 0x84
10004614:	2b00      	cmp	r3, #0
10004616:	d015      	beq.n	10004644 <_ftoa+0x1e8>
10004618:	9b0b      	ldr	r3, [sp, #44]	@ 0x2c
1000461a:	2b00      	cmp	r3, #0
1000461c:	d100      	bne.n	10004620 <_ftoa+0x1c4>
1000461e:	e0fd      	b.n	1000481c <_ftoa+0x3c0>
10004620:	9b21      	ldr	r3, [sp, #132]	@ 0x84
10004622:	3b01      	subs	r3, #1
10004624:	9321      	str	r3, [sp, #132]	@ 0x84
10004626:	2b20      	cmp	r3, #32
10004628:	d90c      	bls.n	10004644 <_ftoa+0x1e8>
1000462a:	2330      	movs	r3, #48	@ 0x30
1000462c:	9a21      	ldr	r2, [sp, #132]	@ 0x84
1000462e:	e007      	b.n	10004640 <_ftoa+0x1e4>
10004630:	2017      	movs	r0, #23
10004632:	a906      	add	r1, sp, #24
10004634:	3401      	adds	r4, #1
10004636:	1809      	adds	r1, r1, r0
10004638:	550b      	strb	r3, [r1, r4]
1000463a:	4294      	cmp	r4, r2
1000463c:	d300      	bcc.n	10004640 <_ftoa+0x1e4>
1000463e:	e0cc      	b.n	100047da <_ftoa+0x37e>
10004640:	2c20      	cmp	r4, #32
10004642:	d1f5      	bne.n	10004630 <_ftoa+0x1d4>
10004644:	9b22      	ldr	r3, [sp, #136]	@ 0x88
10004646:	9401      	str	r4, [sp, #4]
10004648:	9303      	str	r3, [sp, #12]
1000464a:	9b21      	ldr	r3, [sp, #132]	@ 0x84
1000464c:	9600      	str	r6, [sp, #0]
1000464e:	9302      	str	r3, [sp, #8]
10004650:	e022      	b.n	10004698 <_ftoa+0x23c>
10004652:	9b22      	ldr	r3, [sp, #136]	@ 0x88
10004654:	4652      	mov	r2, sl
10004656:	9304      	str	r3, [sp, #16]
10004658:	9b21      	ldr	r3, [sp, #132]	@ 0x84
1000465a:	0039      	movs	r1, r7
1000465c:	9303      	str	r3, [sp, #12]
1000465e:	4658      	mov	r0, fp
10004660:	9b1e      	ldr	r3, [sp, #120]	@ 0x78
10004662:	9c1f      	ldr	r4, [sp, #124]	@ 0x7c
10004664:	9602      	str	r6, [sp, #8]
10004666:	9300      	str	r3, [sp, #0]
10004668:	9401      	str	r4, [sp, #4]
1000466a:	4643      	mov	r3, r8
1000466c:	f000 f94a 	bl	10004904 <_etoa>
10004670:	0004      	movs	r4, r0
10004672:	0020      	movs	r0, r4
10004674:	b015      	add	sp, #84	@ 0x54
10004676:	bcf0      	pop	{r4, r5, r6, r7}
10004678:	46bb      	mov	fp, r7
1000467a:	46b2      	mov	sl, r6
1000467c:	46a9      	mov	r9, r5
1000467e:	46a0      	mov	r8, r4
10004680:	bdf0      	pop	{r4, r5, r6, r7, pc}
10004682:	9b22      	ldr	r3, [sp, #136]	@ 0x88
10004684:	075b      	lsls	r3, r3, #29
10004686:	d40f      	bmi.n	100046a8 <_ftoa+0x24c>
10004688:	2203      	movs	r2, #3
1000468a:	4b4c      	ldr	r3, [pc, #304]	@ (100047bc <_ftoa+0x360>)
1000468c:	9922      	ldr	r1, [sp, #136]	@ 0x88
1000468e:	9201      	str	r2, [sp, #4]
10004690:	9103      	str	r1, [sp, #12]
10004692:	9921      	ldr	r1, [sp, #132]	@ 0x84
10004694:	9300      	str	r3, [sp, #0]
10004696:	9102      	str	r1, [sp, #8]
10004698:	4643      	mov	r3, r8
1000469a:	4652      	mov	r2, sl
1000469c:	0039      	movs	r1, r7
1000469e:	4658      	mov	r0, fp
100046a0:	f7ff fd90 	bl	100041c4 <_out_rev>
100046a4:	0004      	movs	r4, r0
100046a6:	e7e4      	b.n	10004672 <_ftoa+0x216>
100046a8:	2204      	movs	r2, #4
100046aa:	4b45      	ldr	r3, [pc, #276]	@ (100047c0 <_ftoa+0x364>)
100046ac:	e7ee      	b.n	1000468c <_ftoa+0x230>
100046ae:	9a1e      	ldr	r2, [sp, #120]	@ 0x78
100046b0:	9b1f      	ldr	r3, [sp, #124]	@ 0x7c
100046b2:	2000      	movs	r0, #0
100046b4:	2100      	movs	r1, #0
100046b6:	f7ff fbf6 	bl	10003ea6 <__wrap___aeabi_dsub>
100046ba:	2301      	movs	r3, #1
100046bc:	901e      	str	r0, [sp, #120]	@ 0x78
100046be:	911f      	str	r1, [sp, #124]	@ 0x7c
100046c0:	930b      	str	r3, [sp, #44]	@ 0x2c
100046c2:	e711      	b.n	100044e8 <_ftoa+0x8c>
100046c4:	9b22      	ldr	r3, [sp, #136]	@ 0x88
100046c6:	4654      	mov	r4, sl
100046c8:	079b      	lsls	r3, r3, #30
100046ca:	d111      	bne.n	100046f0 <_ftoa+0x294>
100046cc:	9b21      	ldr	r3, [sp, #132]	@ 0x84
100046ce:	2b04      	cmp	r3, #4
100046d0:	d90e      	bls.n	100046f0 <_ftoa+0x294>
100046d2:	9b21      	ldr	r3, [sp, #132]	@ 0x84
100046d4:	4655      	mov	r5, sl
100046d6:	469c      	mov	ip, r3
100046d8:	465e      	mov	r6, fp
100046da:	3c04      	subs	r4, #4
100046dc:	4464      	add	r4, ip
100046de:	002a      	movs	r2, r5
100046e0:	4643      	mov	r3, r8
100046e2:	3501      	adds	r5, #1
100046e4:	0039      	movs	r1, r7
100046e6:	2020      	movs	r0, #32
100046e8:	47b0      	blx	r6
100046ea:	42a5      	cmp	r5, r4
100046ec:	d1f7      	bne.n	100046de <_ftoa+0x282>
100046ee:	46b3      	mov	fp, r6
100046f0:	4d34      	ldr	r5, [pc, #208]	@ (100047c4 <_ftoa+0x368>)
100046f2:	0026      	movs	r6, r4
100046f4:	1f2b      	subs	r3, r5, #4
100046f6:	4699      	mov	r9, r3
100046f8:	465b      	mov	r3, fp
100046fa:	46a3      	mov	fp, r4
100046fc:	001c      	movs	r4, r3
100046fe:	0032      	movs	r2, r6
10004700:	78e8      	ldrb	r0, [r5, #3]
10004702:	4643      	mov	r3, r8
10004704:	0039      	movs	r1, r7
10004706:	3d01      	subs	r5, #1
10004708:	47a0      	blx	r4
1000470a:	3601      	adds	r6, #1
1000470c:	454d      	cmp	r5, r9
1000470e:	d1f6      	bne.n	100046fe <_ftoa+0x2a2>
10004710:	0023      	movs	r3, r4
10004712:	465c      	mov	r4, fp
10004714:	469b      	mov	fp, r3
10004716:	9b22      	ldr	r3, [sp, #136]	@ 0x88
10004718:	3404      	adds	r4, #4
1000471a:	079b      	lsls	r3, r3, #30
1000471c:	d5a9      	bpl.n	10004672 <_ftoa+0x216>
1000471e:	4653      	mov	r3, sl
10004720:	9a21      	ldr	r2, [sp, #132]	@ 0x84
10004722:	1ae3      	subs	r3, r4, r3
10004724:	429a      	cmp	r2, r3
10004726:	d9a4      	bls.n	10004672 <_ftoa+0x216>
10004728:	465e      	mov	r6, fp
1000472a:	0015      	movs	r5, r2
1000472c:	0022      	movs	r2, r4
1000472e:	4643      	mov	r3, r8
10004730:	0039      	movs	r1, r7
10004732:	2020      	movs	r0, #32
10004734:	47b0      	blx	r6
10004736:	4653      	mov	r3, sl
10004738:	3401      	adds	r4, #1
1000473a:	1ae3      	subs	r3, r4, r3
1000473c:	429d      	cmp	r5, r3
1000473e:	d8f5      	bhi.n	1000472c <_ftoa+0x2d0>
10004740:	e797      	b.n	10004672 <_ftoa+0x216>
10004742:	0028      	movs	r0, r5
10004744:	f7ff fc3e 	bl	10003fc4 <__wrap___aeabi_i2d>
10004748:	0002      	movs	r2, r0
1000474a:	000b      	movs	r3, r1
1000474c:	981e      	ldr	r0, [sp, #120]	@ 0x78
1000474e:	991f      	ldr	r1, [sp, #124]	@ 0x7c
10004750:	f7ff fba9 	bl	10003ea6 <__wrap___aeabi_dsub>
10004754:	2200      	movs	r2, #0
10004756:	4b18      	ldr	r3, [pc, #96]	@ (100047b8 <_ftoa+0x35c>)
10004758:	9006      	str	r0, [sp, #24]
1000475a:	9107      	str	r1, [sp, #28]
1000475c:	f7ff fc06 	bl	10003f6c <__wrap___aeabi_dcmplt>
10004760:	ae0c      	add	r6, sp, #48	@ 0x30
10004762:	2800      	cmp	r0, #0
10004764:	d000      	beq.n	10004768 <_ftoa+0x30c>
10004766:	e731      	b.n	100045cc <_ftoa+0x170>
10004768:	9806      	ldr	r0, [sp, #24]
1000476a:	9907      	ldr	r1, [sp, #28]
1000476c:	2200      	movs	r2, #0
1000476e:	4b12      	ldr	r3, [pc, #72]	@ (100047b8 <_ftoa+0x35c>)
10004770:	f7ff fc12 	bl	10003f98 <__wrap___aeabi_dcmpgt>
10004774:	2800      	cmp	r0, #0
10004776:	d000      	beq.n	1000477a <_ftoa+0x31e>
10004778:	e728      	b.n	100045cc <_ftoa+0x170>
1000477a:	2301      	movs	r3, #1
1000477c:	3501      	adds	r5, #1
1000477e:	439d      	bics	r5, r3
10004780:	e724      	b.n	100045cc <_ftoa+0x170>
10004782:	2200      	movs	r2, #0
10004784:	9806      	ldr	r0, [sp, #24]
10004786:	9907      	ldr	r1, [sp, #28]
10004788:	4b0b      	ldr	r3, [pc, #44]	@ (100047b8 <_ftoa+0x35c>)
1000478a:	f7ff fbef 	bl	10003f6c <__wrap___aeabi_dcmplt>
1000478e:	2800      	cmp	r0, #0
10004790:	d000      	beq.n	10004794 <_ftoa+0x338>
10004792:	e6f9      	b.n	10004588 <_ftoa+0x12c>
10004794:	464b      	mov	r3, r9
10004796:	2b00      	cmp	r3, #0
10004798:	d15c      	bne.n	10004854 <_ftoa+0x3f8>
1000479a:	2301      	movs	r3, #1
1000479c:	469c      	mov	ip, r3
1000479e:	44e1      	add	r9, ip
100047a0:	e6f2      	b.n	10004588 <_ftoa+0x12c>
100047a2:	46c0      	nop			@ (mov r8, r8)
100047a4:	ffefffff 	.word	0xffefffff
100047a8:	7fefffff 	.word	0x7fefffff
100047ac:	41cdcd65 	.word	0x41cdcd65
100047b0:	c1cdcd65 	.word	0xc1cdcd65
100047b4:	100065f0 	.word	0x100065f0
100047b8:	3fe00000 	.word	0x3fe00000
100047bc:	10006380 	.word	0x10006380
100047c0:	10006378 	.word	0x10006378
100047c4:	10006388 	.word	0x10006388
100047c8:	9b06      	ldr	r3, [sp, #24]
100047ca:	465e      	mov	r6, fp
100047cc:	469b      	mov	fp, r3
100047ce:	2303      	movs	r3, #3
100047d0:	9a22      	ldr	r2, [sp, #136]	@ 0x88
100047d2:	4013      	ands	r3, r2
100047d4:	2b01      	cmp	r3, #1
100047d6:	d100      	bne.n	100047da <_ftoa+0x37e>
100047d8:	e081      	b.n	100048de <_ftoa+0x482>
100047da:	2c20      	cmp	r4, #32
100047dc:	d100      	bne.n	100047e0 <_ftoa+0x384>
100047de:	e731      	b.n	10004644 <_ftoa+0x1e8>
100047e0:	9b0b      	ldr	r3, [sp, #44]	@ 0x2c
100047e2:	2b00      	cmp	r3, #0
100047e4:	d027      	beq.n	10004836 <_ftoa+0x3da>
100047e6:	232d      	movs	r3, #45	@ 0x2d
100047e8:	5533      	strb	r3, [r6, r4]
100047ea:	3401      	adds	r4, #1
100047ec:	e72a      	b.n	10004644 <_ftoa+0x1e8>
100047ee:	464f      	mov	r7, r9
100047f0:	9d06      	ldr	r5, [sp, #24]
100047f2:	2c20      	cmp	r4, #32
100047f4:	d100      	bne.n	100047f8 <_ftoa+0x39c>
100047f6:	e6e7      	b.n	100045c8 <_ftoa+0x16c>
100047f8:	2230      	movs	r2, #48	@ 0x30
100047fa:	1933      	adds	r3, r6, r4
100047fc:	e007      	b.n	1000480e <_ftoa+0x3b2>
100047fe:	2017      	movs	r0, #23
10004800:	a906      	add	r1, sp, #24
10004802:	3401      	adds	r4, #1
10004804:	1809      	adds	r1, r1, r0
10004806:	550a      	strb	r2, [r1, r4]
10004808:	2c20      	cmp	r4, #32
1000480a:	d100      	bne.n	1000480e <_ftoa+0x3b2>
1000480c:	e6dc      	b.n	100045c8 <_ftoa+0x16c>
1000480e:	42a3      	cmp	r3, r4
10004810:	d1f5      	bne.n	100047fe <_ftoa+0x3a2>
10004812:	222e      	movs	r2, #46	@ 0x2e
10004814:	ae0c      	add	r6, sp, #48	@ 0x30
10004816:	3401      	adds	r4, #1
10004818:	54f2      	strb	r2, [r6, r3]
1000481a:	e6d7      	b.n	100045cc <_ftoa+0x170>
1000481c:	230c      	movs	r3, #12
1000481e:	9a22      	ldr	r2, [sp, #136]	@ 0x88
10004820:	4213      	tst	r3, r2
10004822:	d057      	beq.n	100048d4 <_ftoa+0x478>
10004824:	9b21      	ldr	r3, [sp, #132]	@ 0x84
10004826:	3b01      	subs	r3, #1
10004828:	9321      	str	r3, [sp, #132]	@ 0x84
1000482a:	42a3      	cmp	r3, r4
1000482c:	d900      	bls.n	10004830 <_ftoa+0x3d4>
1000482e:	e6fc      	b.n	1000462a <_ftoa+0x1ce>
10004830:	2c20      	cmp	r4, #32
10004832:	d100      	bne.n	10004836 <_ftoa+0x3da>
10004834:	e706      	b.n	10004644 <_ftoa+0x1e8>
10004836:	9b22      	ldr	r3, [sp, #136]	@ 0x88
10004838:	075b      	lsls	r3, r3, #29
1000483a:	d503      	bpl.n	10004844 <_ftoa+0x3e8>
1000483c:	232b      	movs	r3, #43	@ 0x2b
1000483e:	5533      	strb	r3, [r6, r4]
10004840:	3401      	adds	r4, #1
10004842:	e6ff      	b.n	10004644 <_ftoa+0x1e8>
10004844:	9b22      	ldr	r3, [sp, #136]	@ 0x88
10004846:	071b      	lsls	r3, r3, #28
10004848:	d400      	bmi.n	1000484c <_ftoa+0x3f0>
1000484a:	e6fb      	b.n	10004644 <_ftoa+0x1e8>
1000484c:	2320      	movs	r3, #32
1000484e:	5533      	strb	r3, [r6, r4]
10004850:	3401      	adds	r4, #1
10004852:	e6f7      	b.n	10004644 <_ftoa+0x1e8>
10004854:	07db      	lsls	r3, r3, #31
10004856:	d400      	bmi.n	1000485a <_ftoa+0x3fe>
10004858:	e696      	b.n	10004588 <_ftoa+0x12c>
1000485a:	e79e      	b.n	1000479a <_ftoa+0x33e>
1000485c:	9b22      	ldr	r3, [sp, #136]	@ 0x88
1000485e:	4655      	mov	r5, sl
10004860:	079b      	lsls	r3, r3, #30
10004862:	d111      	bne.n	10004888 <_ftoa+0x42c>
10004864:	9b21      	ldr	r3, [sp, #132]	@ 0x84
10004866:	2b03      	cmp	r3, #3
10004868:	d90e      	bls.n	10004888 <_ftoa+0x42c>
1000486a:	9b21      	ldr	r3, [sp, #132]	@ 0x84
1000486c:	4654      	mov	r4, sl
1000486e:	469c      	mov	ip, r3
10004870:	465e      	mov	r6, fp
10004872:	3d03      	subs	r5, #3
10004874:	4465      	add	r5, ip
10004876:	0022      	movs	r2, r4
10004878:	4643      	mov	r3, r8
1000487a:	3401      	adds	r4, #1
1000487c:	0039      	movs	r1, r7
1000487e:	2020      	movs	r0, #32
10004880:	47b0      	blx	r6
10004882:	42ac      	cmp	r4, r5
10004884:	d1f7      	bne.n	10004876 <_ftoa+0x41a>
10004886:	46b3      	mov	fp, r6
10004888:	46b9      	mov	r9, r7
1000488a:	465f      	mov	r7, fp
1000488c:	4e1c      	ldr	r6, [pc, #112]	@ (10004900 <_ftoa+0x4a4>)
1000488e:	1cec      	adds	r4, r5, #3
10004890:	002a      	movs	r2, r5
10004892:	78b0      	ldrb	r0, [r6, #2]
10004894:	4643      	mov	r3, r8
10004896:	4649      	mov	r1, r9
10004898:	3501      	adds	r5, #1
1000489a:	47b8      	blx	r7
1000489c:	3e01      	subs	r6, #1
1000489e:	42a5      	cmp	r5, r4
100048a0:	d1f6      	bne.n	10004890 <_ftoa+0x434>
100048a2:	9b22      	ldr	r3, [sp, #136]	@ 0x88
100048a4:	46bb      	mov	fp, r7
100048a6:	464f      	mov	r7, r9
100048a8:	079b      	lsls	r3, r3, #30
100048aa:	d400      	bmi.n	100048ae <_ftoa+0x452>
100048ac:	e6e1      	b.n	10004672 <_ftoa+0x216>
100048ae:	4653      	mov	r3, sl
100048b0:	9a21      	ldr	r2, [sp, #132]	@ 0x84
100048b2:	1ae3      	subs	r3, r4, r3
100048b4:	429a      	cmp	r2, r3
100048b6:	d800      	bhi.n	100048ba <_ftoa+0x45e>
100048b8:	e6db      	b.n	10004672 <_ftoa+0x216>
100048ba:	465e      	mov	r6, fp
100048bc:	0015      	movs	r5, r2
100048be:	0022      	movs	r2, r4
100048c0:	4643      	mov	r3, r8
100048c2:	0039      	movs	r1, r7
100048c4:	2020      	movs	r0, #32
100048c6:	47b0      	blx	r6
100048c8:	4653      	mov	r3, sl
100048ca:	3401      	adds	r4, #1
100048cc:	1ae3      	subs	r3, r4, r3
100048ce:	429d      	cmp	r5, r3
100048d0:	d8f5      	bhi.n	100048be <_ftoa+0x462>
100048d2:	e6ce      	b.n	10004672 <_ftoa+0x216>
100048d4:	9b21      	ldr	r3, [sp, #132]	@ 0x84
100048d6:	42a3      	cmp	r3, r4
100048d8:	d900      	bls.n	100048dc <_ftoa+0x480>
100048da:	e6a6      	b.n	1000462a <_ftoa+0x1ce>
100048dc:	e6b2      	b.n	10004644 <_ftoa+0x1e8>
100048de:	9b21      	ldr	r3, [sp, #132]	@ 0x84
100048e0:	2b00      	cmp	r3, #0
100048e2:	d100      	bne.n	100048e6 <_ftoa+0x48a>
100048e4:	e779      	b.n	100047da <_ftoa+0x37e>
100048e6:	9b0b      	ldr	r3, [sp, #44]	@ 0x2c
100048e8:	2b00      	cmp	r3, #0
100048ea:	d097      	beq.n	1000481c <_ftoa+0x3c0>
100048ec:	9b21      	ldr	r3, [sp, #132]	@ 0x84
100048ee:	3b01      	subs	r3, #1
100048f0:	9321      	str	r3, [sp, #132]	@ 0x84
100048f2:	429c      	cmp	r4, r3
100048f4:	d200      	bcs.n	100048f8 <_ftoa+0x49c>
100048f6:	e698      	b.n	1000462a <_ftoa+0x1ce>
100048f8:	2c20      	cmp	r4, #32
100048fa:	d000      	beq.n	100048fe <_ftoa+0x4a2>
100048fc:	e773      	b.n	100047e6 <_ftoa+0x38a>
100048fe:	e6a1      	b.n	10004644 <_ftoa+0x1e8>
10004900:	10006384 	.word	0x10006384

10004904 <_etoa>:
10004904:	b5f0      	push	{r4, r5, r6, r7, lr}
10004906:	46de      	mov	lr, fp
10004908:	4657      	mov	r7, sl
1000490a:	464e      	mov	r6, r9
1000490c:	4645      	mov	r5, r8
1000490e:	b5e0      	push	{r5, r6, r7, lr}
10004910:	b099      	sub	sp, #100	@ 0x64
10004912:	4681      	mov	r9, r0
10004914:	468b      	mov	fp, r1
10004916:	4692      	mov	sl, r2
10004918:	4698      	mov	r8, r3
1000491a:	9a22      	ldr	r2, [sp, #136]	@ 0x88
1000491c:	9b23      	ldr	r3, [sp, #140]	@ 0x8c
1000491e:	0010      	movs	r0, r2
10004920:	0019      	movs	r1, r3
10004922:	f7ff fb3e 	bl	10003fa2 <__wrap___aeabi_dcmpun>
10004926:	2800      	cmp	r0, #0
10004928:	d000      	beq.n	1000492c <_etoa+0x28>
1000492a:	e0ca      	b.n	10004ac2 <_etoa+0x1be>
1000492c:	9822      	ldr	r0, [sp, #136]	@ 0x88
1000492e:	9923      	ldr	r1, [sp, #140]	@ 0x8c
10004930:	2201      	movs	r2, #1
10004932:	4b82      	ldr	r3, [pc, #520]	@ (10004b3c <_etoa+0x238>)
10004934:	4252      	negs	r2, r2
10004936:	f7ff fb2f 	bl	10003f98 <__wrap___aeabi_dcmpgt>
1000493a:	2800      	cmp	r0, #0
1000493c:	d000      	beq.n	10004940 <_etoa+0x3c>
1000493e:	e0c0      	b.n	10004ac2 <_etoa+0x1be>
10004940:	9822      	ldr	r0, [sp, #136]	@ 0x88
10004942:	9923      	ldr	r1, [sp, #140]	@ 0x8c
10004944:	2201      	movs	r2, #1
10004946:	4b7e      	ldr	r3, [pc, #504]	@ (10004b40 <_etoa+0x23c>)
10004948:	4252      	negs	r2, r2
1000494a:	f7ff fb0f 	bl	10003f6c <__wrap___aeabi_dcmplt>
1000494e:	2800      	cmp	r0, #0
10004950:	d000      	beq.n	10004954 <_etoa+0x50>
10004952:	e0b6      	b.n	10004ac2 <_etoa+0x1be>
10004954:	9822      	ldr	r0, [sp, #136]	@ 0x88
10004956:	9923      	ldr	r1, [sp, #140]	@ 0x8c
10004958:	2200      	movs	r2, #0
1000495a:	2300      	movs	r3, #0
1000495c:	f7ff fb06 	bl	10003f6c <__wrap___aeabi_dcmplt>
10004960:	2800      	cmp	r0, #0
10004962:	d000      	beq.n	10004966 <_etoa+0x62>
10004964:	e1c9      	b.n	10004cfa <_etoa+0x3f6>
10004966:	9b22      	ldr	r3, [sp, #136]	@ 0x88
10004968:	9c23      	ldr	r4, [sp, #140]	@ 0x8c
1000496a:	9308      	str	r3, [sp, #32]
1000496c:	9409      	str	r4, [sp, #36]	@ 0x24
1000496e:	9808      	ldr	r0, [sp, #32]
10004970:	9909      	ldr	r1, [sp, #36]	@ 0x24
10004972:	2380      	movs	r3, #128	@ 0x80
10004974:	9a26      	ldr	r2, [sp, #152]	@ 0x98
10004976:	00db      	lsls	r3, r3, #3
10004978:	401a      	ands	r2, r3
1000497a:	920d      	str	r2, [sp, #52]	@ 0x34
1000497c:	2280      	movs	r2, #128	@ 0x80
1000497e:	9c26      	ldr	r4, [sp, #152]	@ 0x98
10004980:	0112      	lsls	r2, r2, #4
10004982:	4014      	ands	r4, r2
10004984:	0022      	movs	r2, r4
10004986:	940b      	str	r4, [sp, #44]	@ 0x2c
10004988:	9c26      	ldr	r4, [sp, #152]	@ 0x98
1000498a:	0007      	movs	r7, r0
1000498c:	000e      	movs	r6, r1
1000498e:	421c      	tst	r4, r3
10004990:	d000      	beq.n	10004994 <_etoa+0x90>
10004992:	e0ad      	b.n	10004af0 <_etoa+0x1ec>
10004994:	000b      	movs	r3, r1
10004996:	4303      	orrs	r3, r0
10004998:	d000      	beq.n	1000499c <_etoa+0x98>
1000499a:	e0d5      	b.n	10004b48 <_etoa+0x244>
1000499c:	2a00      	cmp	r2, #0
1000499e:	d000      	beq.n	100049a2 <_etoa+0x9e>
100049a0:	e20a      	b.n	10004db8 <_etoa+0x4b4>
100049a2:	0022      	movs	r2, r4
100049a4:	3306      	adds	r3, #6
100049a6:	9324      	str	r3, [sp, #144]	@ 0x90
100049a8:	2302      	movs	r3, #2
100049aa:	4013      	ands	r3, r2
100049ac:	930c      	str	r3, [sp, #48]	@ 0x30
100049ae:	2302      	movs	r3, #2
100049b0:	4213      	tst	r3, r2
100049b2:	d000      	beq.n	100049b6 <_etoa+0xb2>
100049b4:	e202      	b.n	10004dbc <_etoa+0x4b8>
100049b6:	9b25      	ldr	r3, [sp, #148]	@ 0x94
100049b8:	2b04      	cmp	r3, #4
100049ba:	d200      	bcs.n	100049be <_etoa+0xba>
100049bc:	e20f      	b.n	10004dde <_etoa+0x4da>
100049be:	3b04      	subs	r3, #4
100049c0:	930b      	str	r3, [sp, #44]	@ 0x2c
100049c2:	2300      	movs	r3, #0
100049c4:	2504      	movs	r5, #4
100049c6:	930a      	str	r3, [sp, #40]	@ 0x28
100049c8:	2200      	movs	r2, #0
100049ca:	9822      	ldr	r0, [sp, #136]	@ 0x88
100049cc:	9923      	ldr	r1, [sp, #140]	@ 0x8c
100049ce:	2300      	movs	r3, #0
100049d0:	f7ff facc 	bl	10003f6c <__wrap___aeabi_dcmplt>
100049d4:	2800      	cmp	r0, #0
100049d6:	d000      	beq.n	100049da <_etoa+0xd6>
100049d8:	e203      	b.n	10004de2 <_etoa+0x4de>
100049da:	4b5a      	ldr	r3, [pc, #360]	@ (10004b44 <_etoa+0x240>)
100049dc:	9a26      	ldr	r2, [sp, #152]	@ 0x98
100049de:	4013      	ands	r3, r2
100049e0:	9304      	str	r3, [sp, #16]
100049e2:	9b0b      	ldr	r3, [sp, #44]	@ 0x2c
100049e4:	9303      	str	r3, [sp, #12]
100049e6:	9b24      	ldr	r3, [sp, #144]	@ 0x90
100049e8:	9302      	str	r3, [sp, #8]
100049ea:	9b08      	ldr	r3, [sp, #32]
100049ec:	9c09      	ldr	r4, [sp, #36]	@ 0x24
100049ee:	9300      	str	r3, [sp, #0]
100049f0:	9401      	str	r4, [sp, #4]
100049f2:	4659      	mov	r1, fp
100049f4:	4643      	mov	r3, r8
100049f6:	4652      	mov	r2, sl
100049f8:	4648      	mov	r0, r9
100049fa:	f7ff fd2f 	bl	1000445c <_ftoa>
100049fe:	0002      	movs	r2, r0
10004a00:	2020      	movs	r0, #32
10004a02:	9b26      	ldr	r3, [sp, #152]	@ 0x98
10004a04:	271f      	movs	r7, #31
10004a06:	4003      	ands	r3, r0
10004a08:	4259      	negs	r1, r3
10004a0a:	414b      	adcs	r3, r1
10004a0c:	425b      	negs	r3, r3
10004a0e:	4018      	ands	r0, r3
10004a10:	1c53      	adds	r3, r2, #1
10004a12:	9308      	str	r3, [sp, #32]
10004a14:	4659      	mov	r1, fp
10004a16:	4643      	mov	r3, r8
10004a18:	3045      	adds	r0, #69	@ 0x45
10004a1a:	47c8      	blx	r9
10004a1c:	9a0a      	ldr	r2, [sp, #40]	@ 0x28
10004a1e:	17d3      	asrs	r3, r2, #31
10004a20:	18d4      	adds	r4, r2, r3
10004a22:	405c      	eors	r4, r3
10004a24:	0fd3      	lsrs	r3, r2, #31
10004a26:	930a      	str	r3, [sp, #40]	@ 0x28
10004a28:	1e6b      	subs	r3, r5, #1
10004a2a:	930b      	str	r3, [sp, #44]	@ 0x2c
10004a2c:	ab08      	add	r3, sp, #32
10004a2e:	469c      	mov	ip, r3
10004a30:	2500      	movs	r5, #0
10004a32:	4467      	add	r7, ip
10004a34:	e001      	b.n	10004a3a <_etoa+0x136>
10004a36:	2d20      	cmp	r5, #32
10004a38:	d00f      	beq.n	10004a5a <_etoa+0x156>
10004a3a:	0020      	movs	r0, r4
10004a3c:	210a      	movs	r1, #10
10004a3e:	f7fe fff7 	bl	10003a30 <__wrap___aeabi_uidiv>
10004a42:	3501      	adds	r5, #1
10004a44:	197e      	adds	r6, r7, r5
10004a46:	3130      	adds	r1, #48	@ 0x30
10004a48:	7031      	strb	r1, [r6, #0]
10004a4a:	0020      	movs	r0, r4
10004a4c:	210a      	movs	r1, #10
10004a4e:	f7fe ffef 	bl	10003a30 <__wrap___aeabi_uidiv>
10004a52:	0026      	movs	r6, r4
10004a54:	0004      	movs	r4, r0
10004a56:	2e09      	cmp	r6, #9
10004a58:	d8ed      	bhi.n	10004a36 <_etoa+0x132>
10004a5a:	2305      	movs	r3, #5
10004a5c:	9306      	str	r3, [sp, #24]
10004a5e:	9b0b      	ldr	r3, [sp, #44]	@ 0x2c
10004a60:	4659      	mov	r1, fp
10004a62:	9305      	str	r3, [sp, #20]
10004a64:	2300      	movs	r3, #0
10004a66:	9304      	str	r3, [sp, #16]
10004a68:	330a      	adds	r3, #10
10004a6a:	9303      	str	r3, [sp, #12]
10004a6c:	9b0a      	ldr	r3, [sp, #40]	@ 0x28
10004a6e:	4648      	mov	r0, r9
10004a70:	9302      	str	r3, [sp, #8]
10004a72:	ab10      	add	r3, sp, #64	@ 0x40
10004a74:	9300      	str	r3, [sp, #0]
10004a76:	9a08      	ldr	r2, [sp, #32]
10004a78:	4643      	mov	r3, r8
10004a7a:	9501      	str	r5, [sp, #4]
10004a7c:	f7ff fbf8 	bl	10004270 <_ntoa_format>
10004a80:	9b0c      	ldr	r3, [sp, #48]	@ 0x30
10004a82:	2b00      	cmp	r3, #0
10004a84:	d02d      	beq.n	10004ae2 <_etoa+0x1de>
10004a86:	4653      	mov	r3, sl
10004a88:	1ac4      	subs	r4, r0, r3
10004a8a:	9b25      	ldr	r3, [sp, #148]	@ 0x94
10004a8c:	42a3      	cmp	r3, r4
10004a8e:	d928      	bls.n	10004ae2 <_etoa+0x1de>
10004a90:	464d      	mov	r5, r9
10004a92:	465f      	mov	r7, fp
10004a94:	4681      	mov	r9, r0
10004a96:	001e      	movs	r6, r3
10004a98:	4653      	mov	r3, sl
10004a9a:	0039      	movs	r1, r7
10004a9c:	191a      	adds	r2, r3, r4
10004a9e:	2020      	movs	r0, #32
10004aa0:	4643      	mov	r3, r8
10004aa2:	3401      	adds	r4, #1
10004aa4:	47a8      	blx	r5
10004aa6:	42a6      	cmp	r6, r4
10004aa8:	d8f6      	bhi.n	10004a98 <_etoa+0x194>
10004aaa:	4653      	mov	r3, sl
10004aac:	4648      	mov	r0, r9
10004aae:	9925      	ldr	r1, [sp, #148]	@ 0x94
10004ab0:	1ac2      	subs	r2, r0, r3
10004ab2:	3201      	adds	r2, #1
10004ab4:	2300      	movs	r3, #0
10004ab6:	4291      	cmp	r1, r2
10004ab8:	d300      	bcc.n	10004abc <_etoa+0x1b8>
10004aba:	e186      	b.n	10004dca <_etoa+0x4c6>
10004abc:	3001      	adds	r0, #1
10004abe:	1818      	adds	r0, r3, r0
10004ac0:	e00f      	b.n	10004ae2 <_etoa+0x1de>
10004ac2:	9b26      	ldr	r3, [sp, #152]	@ 0x98
10004ac4:	9304      	str	r3, [sp, #16]
10004ac6:	9b25      	ldr	r3, [sp, #148]	@ 0x94
10004ac8:	9303      	str	r3, [sp, #12]
10004aca:	9b24      	ldr	r3, [sp, #144]	@ 0x90
10004acc:	9302      	str	r3, [sp, #8]
10004ace:	9b22      	ldr	r3, [sp, #136]	@ 0x88
10004ad0:	9c23      	ldr	r4, [sp, #140]	@ 0x8c
10004ad2:	9300      	str	r3, [sp, #0]
10004ad4:	9401      	str	r4, [sp, #4]
10004ad6:	4643      	mov	r3, r8
10004ad8:	4652      	mov	r2, sl
10004ada:	4659      	mov	r1, fp
10004adc:	4648      	mov	r0, r9
10004ade:	f7ff fcbd 	bl	1000445c <_ftoa>
10004ae2:	b019      	add	sp, #100	@ 0x64
10004ae4:	bcf0      	pop	{r4, r5, r6, r7}
10004ae6:	46bb      	mov	fp, r7
10004ae8:	46b2      	mov	sl, r6
10004aea:	46a9      	mov	r9, r5
10004aec:	46a0      	mov	r8, r4
10004aee:	bdf0      	pop	{r4, r5, r6, r7, pc}
10004af0:	4301      	orrs	r1, r0
10004af2:	d12b      	bne.n	10004b4c <_etoa+0x248>
10004af4:	9b0b      	ldr	r3, [sp, #44]	@ 0x2c
10004af6:	0022      	movs	r2, r4
10004af8:	2b00      	cmp	r3, #0
10004afa:	d100      	bne.n	10004afe <_etoa+0x1fa>
10004afc:	e754      	b.n	100049a8 <_etoa+0xa4>
10004afe:	2300      	movs	r3, #0
10004b00:	930a      	str	r3, [sp, #40]	@ 0x28
10004b02:	9b24      	ldr	r3, [sp, #144]	@ 0x90
10004b04:	9a0a      	ldr	r2, [sp, #40]	@ 0x28
10004b06:	2400      	movs	r4, #0
10004b08:	4293      	cmp	r3, r2
10004b0a:	dd00      	ble.n	10004b0e <_etoa+0x20a>
10004b0c:	e185      	b.n	10004e1a <_etoa+0x516>
10004b0e:	9822      	ldr	r0, [sp, #136]	@ 0x88
10004b10:	9923      	ldr	r1, [sp, #140]	@ 0x8c
10004b12:	2200      	movs	r2, #0
10004b14:	2300      	movs	r3, #0
10004b16:	f7ff fa29 	bl	10003f6c <__wrap___aeabi_dcmplt>
10004b1a:	2800      	cmp	r0, #0
10004b1c:	d000      	beq.n	10004b20 <_etoa+0x21c>
10004b1e:	e135      	b.n	10004d8c <_etoa+0x488>
10004b20:	9b26      	ldr	r3, [sp, #152]	@ 0x98
10004b22:	4a08      	ldr	r2, [pc, #32]	@ (10004b44 <_etoa+0x240>)
10004b24:	9402      	str	r4, [sp, #8]
10004b26:	401a      	ands	r2, r3
10004b28:	2380      	movs	r3, #128	@ 0x80
10004b2a:	00db      	lsls	r3, r3, #3
10004b2c:	4313      	orrs	r3, r2
10004b2e:	9304      	str	r3, [sp, #16]
10004b30:	9b25      	ldr	r3, [sp, #148]	@ 0x94
10004b32:	9303      	str	r3, [sp, #12]
10004b34:	9b08      	ldr	r3, [sp, #32]
10004b36:	9c09      	ldr	r4, [sp, #36]	@ 0x24
10004b38:	e7cb      	b.n	10004ad2 <_etoa+0x1ce>
10004b3a:	46c0      	nop			@ (mov r8, r8)
10004b3c:	7fefffff 	.word	0x7fefffff
10004b40:	ffefffff 	.word	0xffefffff
10004b44:	fffff7ff 	.word	0xfffff7ff
10004b48:	2306      	movs	r3, #6
10004b4a:	9324      	str	r3, [sp, #144]	@ 0x90
10004b4c:	4bb4      	ldr	r3, [pc, #720]	@ (10004e20 <_etoa+0x51c>)
10004b4e:	0070      	lsls	r0, r6, #1
10004b50:	469c      	mov	ip, r3
10004b52:	0d40      	lsrs	r0, r0, #21
10004b54:	4460      	add	r0, ip
10004b56:	f7ff fa35 	bl	10003fc4 <__wrap___aeabi_i2d>
10004b5a:	4ab2      	ldr	r2, [pc, #712]	@ (10004e24 <_etoa+0x520>)
10004b5c:	4bb2      	ldr	r3, [pc, #712]	@ (10004e28 <_etoa+0x524>)
10004b5e:	f7ff f9c6 	bl	10003eee <__wrap___aeabi_dmul>
10004b62:	4ab2      	ldr	r2, [pc, #712]	@ (10004e2c <_etoa+0x528>)
10004b64:	4bb2      	ldr	r3, [pc, #712]	@ (10004e30 <_etoa+0x52c>)
10004b66:	f7ff f9a3 	bl	10003eb0 <__wrap___aeabi_dadd>
10004b6a:	0336      	lsls	r6, r6, #12
10004b6c:	4bb1      	ldr	r3, [pc, #708]	@ (10004e34 <_etoa+0x530>)
10004b6e:	0b36      	lsrs	r6, r6, #12
10004b70:	4333      	orrs	r3, r6
10004b72:	0004      	movs	r4, r0
10004b74:	000d      	movs	r5, r1
10004b76:	0038      	movs	r0, r7
10004b78:	0019      	movs	r1, r3
10004b7a:	2200      	movs	r2, #0
10004b7c:	4bae      	ldr	r3, [pc, #696]	@ (10004e38 <_etoa+0x534>)
10004b7e:	f7ff f992 	bl	10003ea6 <__wrap___aeabi_dsub>
10004b82:	4aae      	ldr	r2, [pc, #696]	@ (10004e3c <_etoa+0x538>)
10004b84:	4bae      	ldr	r3, [pc, #696]	@ (10004e40 <_etoa+0x53c>)
10004b86:	f7ff f9b2 	bl	10003eee <__wrap___aeabi_dmul>
10004b8a:	0002      	movs	r2, r0
10004b8c:	000b      	movs	r3, r1
10004b8e:	0020      	movs	r0, r4
10004b90:	0029      	movs	r1, r5
10004b92:	f7ff f98d 	bl	10003eb0 <__wrap___aeabi_dadd>
10004b96:	f7ff fa2d 	bl	10003ff4 <__wrap___aeabi_d2iz>
10004b9a:	900a      	str	r0, [sp, #40]	@ 0x28
10004b9c:	f7ff fa12 	bl	10003fc4 <__wrap___aeabi_i2d>
10004ba0:	4aa8      	ldr	r2, [pc, #672]	@ (10004e44 <_etoa+0x540>)
10004ba2:	4ba9      	ldr	r3, [pc, #676]	@ (10004e48 <_etoa+0x544>)
10004ba4:	0004      	movs	r4, r0
10004ba6:	000d      	movs	r5, r1
10004ba8:	f7ff f9a1 	bl	10003eee <__wrap___aeabi_dmul>
10004bac:	2200      	movs	r2, #0
10004bae:	4ba7      	ldr	r3, [pc, #668]	@ (10004e4c <_etoa+0x548>)
10004bb0:	f7ff f97e 	bl	10003eb0 <__wrap___aeabi_dadd>
10004bb4:	f7ff fa1e 	bl	10003ff4 <__wrap___aeabi_d2iz>
10004bb8:	4aa5      	ldr	r2, [pc, #660]	@ (10004e50 <_etoa+0x54c>)
10004bba:	0006      	movs	r6, r0
10004bbc:	4ba5      	ldr	r3, [pc, #660]	@ (10004e54 <_etoa+0x550>)
10004bbe:	0020      	movs	r0, r4
10004bc0:	0029      	movs	r1, r5
10004bc2:	f7ff f994 	bl	10003eee <__wrap___aeabi_dmul>
10004bc6:	0004      	movs	r4, r0
10004bc8:	0030      	movs	r0, r6
10004bca:	000d      	movs	r5, r1
10004bcc:	960c      	str	r6, [sp, #48]	@ 0x30
10004bce:	f7ff f9f9 	bl	10003fc4 <__wrap___aeabi_i2d>
10004bd2:	4aa1      	ldr	r2, [pc, #644]	@ (10004e58 <_etoa+0x554>)
10004bd4:	4ba1      	ldr	r3, [pc, #644]	@ (10004e5c <_etoa+0x558>)
10004bd6:	f7ff f98a 	bl	10003eee <__wrap___aeabi_dmul>
10004bda:	0002      	movs	r2, r0
10004bdc:	000b      	movs	r3, r1
10004bde:	0020      	movs	r0, r4
10004be0:	0029      	movs	r1, r5
10004be2:	f7ff f960 	bl	10003ea6 <__wrap___aeabi_dsub>
10004be6:	0002      	movs	r2, r0
10004be8:	000b      	movs	r3, r1
10004bea:	0006      	movs	r6, r0
10004bec:	000f      	movs	r7, r1
10004bee:	f7ff f97e 	bl	10003eee <__wrap___aeabi_dmul>
10004bf2:	0032      	movs	r2, r6
10004bf4:	0004      	movs	r4, r0
10004bf6:	000d      	movs	r5, r1
10004bf8:	003b      	movs	r3, r7
10004bfa:	0030      	movs	r0, r6
10004bfc:	0039      	movs	r1, r7
10004bfe:	f7ff f957 	bl	10003eb0 <__wrap___aeabi_dadd>
10004c02:	2200      	movs	r2, #0
10004c04:	900e      	str	r0, [sp, #56]	@ 0x38
10004c06:	910f      	str	r1, [sp, #60]	@ 0x3c
10004c08:	4b95      	ldr	r3, [pc, #596]	@ (10004e60 <_etoa+0x55c>)
10004c0a:	0020      	movs	r0, r4
10004c0c:	0029      	movs	r1, r5
10004c0e:	f7ff f954 	bl	10003eba <__wrap___aeabi_ddiv>
10004c12:	2200      	movs	r2, #0
10004c14:	4b93      	ldr	r3, [pc, #588]	@ (10004e64 <_etoa+0x560>)
10004c16:	f7ff f94b 	bl	10003eb0 <__wrap___aeabi_dadd>
10004c1a:	0002      	movs	r2, r0
10004c1c:	000b      	movs	r3, r1
10004c1e:	0020      	movs	r0, r4
10004c20:	0029      	movs	r1, r5
10004c22:	f7ff f94a 	bl	10003eba <__wrap___aeabi_ddiv>
10004c26:	2200      	movs	r2, #0
10004c28:	4b8f      	ldr	r3, [pc, #572]	@ (10004e68 <_etoa+0x564>)
10004c2a:	f7ff f941 	bl	10003eb0 <__wrap___aeabi_dadd>
10004c2e:	0002      	movs	r2, r0
10004c30:	000b      	movs	r3, r1
10004c32:	0020      	movs	r0, r4
10004c34:	0029      	movs	r1, r5
10004c36:	f7ff f940 	bl	10003eba <__wrap___aeabi_ddiv>
10004c3a:	000d      	movs	r5, r1
10004c3c:	2180      	movs	r1, #128	@ 0x80
10004c3e:	0004      	movs	r4, r0
10004c40:	0032      	movs	r2, r6
10004c42:	003b      	movs	r3, r7
10004c44:	2000      	movs	r0, #0
10004c46:	05c9      	lsls	r1, r1, #23
10004c48:	f7ff f92d 	bl	10003ea6 <__wrap___aeabi_dsub>
10004c4c:	0002      	movs	r2, r0
10004c4e:	000b      	movs	r3, r1
10004c50:	0020      	movs	r0, r4
10004c52:	0029      	movs	r1, r5
10004c54:	f7ff f92c 	bl	10003eb0 <__wrap___aeabi_dadd>
10004c58:	0002      	movs	r2, r0
10004c5a:	000b      	movs	r3, r1
10004c5c:	980e      	ldr	r0, [sp, #56]	@ 0x38
10004c5e:	990f      	ldr	r1, [sp, #60]	@ 0x3c
10004c60:	f7ff f92b 	bl	10003eba <__wrap___aeabi_ddiv>
10004c64:	2200      	movs	r2, #0
10004c66:	4b73      	ldr	r3, [pc, #460]	@ (10004e34 <_etoa+0x530>)
10004c68:	f7ff f922 	bl	10003eb0 <__wrap___aeabi_dadd>
10004c6c:	4b7f      	ldr	r3, [pc, #508]	@ (10004e6c <_etoa+0x568>)
10004c6e:	9c0c      	ldr	r4, [sp, #48]	@ 0x30
10004c70:	469c      	mov	ip, r3
10004c72:	4464      	add	r4, ip
10004c74:	2200      	movs	r2, #0
10004c76:	0523      	lsls	r3, r4, #20
10004c78:	f7ff f939 	bl	10003eee <__wrap___aeabi_dmul>
10004c7c:	0006      	movs	r6, r0
10004c7e:	000f      	movs	r7, r1
10004c80:	0002      	movs	r2, r0
10004c82:	000b      	movs	r3, r1
10004c84:	9808      	ldr	r0, [sp, #32]
10004c86:	9909      	ldr	r1, [sp, #36]	@ 0x24
10004c88:	f7ff f970 	bl	10003f6c <__wrap___aeabi_dcmplt>
10004c8c:	2800      	cmp	r0, #0
10004c8e:	d00a      	beq.n	10004ca6 <_etoa+0x3a2>
10004c90:	9b0a      	ldr	r3, [sp, #40]	@ 0x28
10004c92:	0030      	movs	r0, r6
10004c94:	3b01      	subs	r3, #1
10004c96:	0039      	movs	r1, r7
10004c98:	930a      	str	r3, [sp, #40]	@ 0x28
10004c9a:	2200      	movs	r2, #0
10004c9c:	4b71      	ldr	r3, [pc, #452]	@ (10004e64 <_etoa+0x560>)
10004c9e:	f7ff f90c 	bl	10003eba <__wrap___aeabi_ddiv>
10004ca2:	0006      	movs	r6, r0
10004ca4:	000f      	movs	r7, r1
10004ca6:	9a0a      	ldr	r2, [sp, #40]	@ 0x28
10004ca8:	0033      	movs	r3, r6
10004caa:	3263      	adds	r2, #99	@ 0x63
10004cac:	0039      	movs	r1, r7
10004cae:	2ac6      	cmp	r2, #198	@ 0xc6
10004cb0:	d812      	bhi.n	10004cd8 <_etoa+0x3d4>
10004cb2:	2202      	movs	r2, #2
10004cb4:	9826      	ldr	r0, [sp, #152]	@ 0x98
10004cb6:	2504      	movs	r5, #4
10004cb8:	4010      	ands	r0, r2
10004cba:	9a0b      	ldr	r2, [sp, #44]	@ 0x2c
10004cbc:	900c      	str	r0, [sp, #48]	@ 0x30
10004cbe:	2a00      	cmp	r2, #0
10004cc0:	d125      	bne.n	10004d0e <_etoa+0x40a>
10004cc2:	9b25      	ldr	r3, [sp, #148]	@ 0x94
10004cc4:	2b04      	cmp	r3, #4
10004cc6:	d905      	bls.n	10004cd4 <_etoa+0x3d0>
10004cc8:	2800      	cmp	r0, #0
10004cca:	d000      	beq.n	10004cce <_etoa+0x3ca>
10004ccc:	e0a1      	b.n	10004e12 <_etoa+0x50e>
10004cce:	9b25      	ldr	r3, [sp, #148]	@ 0x94
10004cd0:	3b04      	subs	r3, #4
10004cd2:	930b      	str	r3, [sp, #44]	@ 0x2c
10004cd4:	2504      	movs	r5, #4
10004cd6:	e041      	b.n	10004d5c <_etoa+0x458>
10004cd8:	2202      	movs	r2, #2
10004cda:	9826      	ldr	r0, [sp, #152]	@ 0x98
10004cdc:	4010      	ands	r0, r2
10004cde:	9a0b      	ldr	r2, [sp, #44]	@ 0x2c
10004ce0:	900c      	str	r0, [sp, #48]	@ 0x30
10004ce2:	2a00      	cmp	r2, #0
10004ce4:	d112      	bne.n	10004d0c <_etoa+0x408>
10004ce6:	9b25      	ldr	r3, [sp, #148]	@ 0x94
10004ce8:	2b05      	cmp	r3, #5
10004cea:	d976      	bls.n	10004dda <_etoa+0x4d6>
10004cec:	2800      	cmp	r0, #0
10004cee:	d172      	bne.n	10004dd6 <_etoa+0x4d2>
10004cf0:	9b25      	ldr	r3, [sp, #148]	@ 0x94
10004cf2:	2505      	movs	r5, #5
10004cf4:	3b05      	subs	r3, #5
10004cf6:	930b      	str	r3, [sp, #44]	@ 0x2c
10004cf8:	e034      	b.n	10004d64 <_etoa+0x460>
10004cfa:	2280      	movs	r2, #128	@ 0x80
10004cfc:	0612      	lsls	r2, r2, #24
10004cfe:	4694      	mov	ip, r2
10004d00:	9b22      	ldr	r3, [sp, #136]	@ 0x88
10004d02:	9308      	str	r3, [sp, #32]
10004d04:	9b23      	ldr	r3, [sp, #140]	@ 0x8c
10004d06:	4463      	add	r3, ip
10004d08:	9309      	str	r3, [sp, #36]	@ 0x24
10004d0a:	e630      	b.n	1000496e <_etoa+0x6a>
10004d0c:	2505      	movs	r5, #5
10004d0e:	430b      	orrs	r3, r1
10004d10:	d100      	bne.n	10004d14 <_etoa+0x410>
10004d12:	e6f6      	b.n	10004b02 <_etoa+0x1fe>
10004d14:	9808      	ldr	r0, [sp, #32]
10004d16:	9909      	ldr	r1, [sp, #36]	@ 0x24
10004d18:	4a55      	ldr	r2, [pc, #340]	@ (10004e70 <_etoa+0x56c>)
10004d1a:	4b56      	ldr	r3, [pc, #344]	@ (10004e74 <_etoa+0x570>)
10004d1c:	f7ff f934 	bl	10003f88 <__wrap___aeabi_dcmpge>
10004d20:	2800      	cmp	r0, #0
10004d22:	d008      	beq.n	10004d36 <_etoa+0x432>
10004d24:	9808      	ldr	r0, [sp, #32]
10004d26:	9909      	ldr	r1, [sp, #36]	@ 0x24
10004d28:	2200      	movs	r2, #0
10004d2a:	4b53      	ldr	r3, [pc, #332]	@ (10004e78 <_etoa+0x574>)
10004d2c:	f7ff f91e 	bl	10003f6c <__wrap___aeabi_dcmplt>
10004d30:	2800      	cmp	r0, #0
10004d32:	d000      	beq.n	10004d36 <_etoa+0x432>
10004d34:	e6e5      	b.n	10004b02 <_etoa+0x1fe>
10004d36:	9b24      	ldr	r3, [sp, #144]	@ 0x90
10004d38:	2b00      	cmp	r3, #0
10004d3a:	d01c      	beq.n	10004d76 <_etoa+0x472>
10004d3c:	9b0d      	ldr	r3, [sp, #52]	@ 0x34
10004d3e:	2b00      	cmp	r3, #0
10004d40:	d019      	beq.n	10004d76 <_etoa+0x472>
10004d42:	9b24      	ldr	r3, [sp, #144]	@ 0x90
10004d44:	3b01      	subs	r3, #1
10004d46:	9324      	str	r3, [sp, #144]	@ 0x90
10004d48:	9b25      	ldr	r3, [sp, #148]	@ 0x94
10004d4a:	42ab      	cmp	r3, r5
10004d4c:	d904      	bls.n	10004d58 <_etoa+0x454>
10004d4e:	9b0c      	ldr	r3, [sp, #48]	@ 0x30
10004d50:	2b00      	cmp	r3, #0
10004d52:	d05a      	beq.n	10004e0a <_etoa+0x506>
10004d54:	2302      	movs	r3, #2
10004d56:	930c      	str	r3, [sp, #48]	@ 0x30
10004d58:	2300      	movs	r3, #0
10004d5a:	930b      	str	r3, [sp, #44]	@ 0x2c
10004d5c:	9b0a      	ldr	r3, [sp, #40]	@ 0x28
10004d5e:	2b00      	cmp	r3, #0
10004d60:	d100      	bne.n	10004d64 <_etoa+0x460>
10004d62:	e631      	b.n	100049c8 <_etoa+0xc4>
10004d64:	9808      	ldr	r0, [sp, #32]
10004d66:	9909      	ldr	r1, [sp, #36]	@ 0x24
10004d68:	0032      	movs	r2, r6
10004d6a:	003b      	movs	r3, r7
10004d6c:	f7ff f8a5 	bl	10003eba <__wrap___aeabi_ddiv>
10004d70:	9008      	str	r0, [sp, #32]
10004d72:	9109      	str	r1, [sp, #36]	@ 0x24
10004d74:	e628      	b.n	100049c8 <_etoa+0xc4>
10004d76:	9b25      	ldr	r3, [sp, #148]	@ 0x94
10004d78:	42ab      	cmp	r3, r5
10004d7a:	d9ed      	bls.n	10004d58 <_etoa+0x454>
10004d7c:	9b0c      	ldr	r3, [sp, #48]	@ 0x30
10004d7e:	2b00      	cmp	r3, #0
10004d80:	d043      	beq.n	10004e0a <_etoa+0x506>
10004d82:	2300      	movs	r3, #0
10004d84:	930b      	str	r3, [sp, #44]	@ 0x2c
10004d86:	3302      	adds	r3, #2
10004d88:	930c      	str	r3, [sp, #48]	@ 0x30
10004d8a:	e7e7      	b.n	10004d5c <_etoa+0x458>
10004d8c:	2080      	movs	r0, #128	@ 0x80
10004d8e:	9b26      	ldr	r3, [sp, #152]	@ 0x98
10004d90:	4a3a      	ldr	r2, [pc, #232]	@ (10004e7c <_etoa+0x578>)
10004d92:	0600      	lsls	r0, r0, #24
10004d94:	401a      	ands	r2, r3
10004d96:	2380      	movs	r3, #128	@ 0x80
10004d98:	4684      	mov	ip, r0
10004d9a:	9402      	str	r4, [sp, #8]
10004d9c:	9c08      	ldr	r4, [sp, #32]
10004d9e:	9d09      	ldr	r5, [sp, #36]	@ 0x24
10004da0:	0029      	movs	r1, r5
10004da2:	00db      	lsls	r3, r3, #3
10004da4:	4313      	orrs	r3, r2
10004da6:	9304      	str	r3, [sp, #16]
10004da8:	9b25      	ldr	r3, [sp, #148]	@ 0x94
10004daa:	4461      	add	r1, ip
10004dac:	0022      	movs	r2, r4
10004dae:	9303      	str	r3, [sp, #12]
10004db0:	000b      	movs	r3, r1
10004db2:	9200      	str	r2, [sp, #0]
10004db4:	9301      	str	r3, [sp, #4]
10004db6:	e68e      	b.n	10004ad6 <_etoa+0x1d2>
10004db8:	2405      	movs	r4, #5
10004dba:	e6a8      	b.n	10004b0e <_etoa+0x20a>
10004dbc:	2300      	movs	r3, #0
10004dbe:	930b      	str	r3, [sp, #44]	@ 0x2c
10004dc0:	930a      	str	r3, [sp, #40]	@ 0x28
10004dc2:	3302      	adds	r3, #2
10004dc4:	2504      	movs	r5, #4
10004dc6:	930c      	str	r3, [sp, #48]	@ 0x30
10004dc8:	e5fe      	b.n	100049c8 <_etoa+0xc4>
10004dca:	4653      	mov	r3, sl
10004dcc:	468c      	mov	ip, r1
10004dce:	3b01      	subs	r3, #1
10004dd0:	4463      	add	r3, ip
10004dd2:	1a1b      	subs	r3, r3, r0
10004dd4:	e672      	b.n	10004abc <_etoa+0x1b8>
10004dd6:	2302      	movs	r3, #2
10004dd8:	930c      	str	r3, [sp, #48]	@ 0x30
10004dda:	2505      	movs	r5, #5
10004ddc:	e7c2      	b.n	10004d64 <_etoa+0x460>
10004dde:	2304      	movs	r3, #4
10004de0:	e5ed      	b.n	100049be <_etoa+0xba>
10004de2:	2080      	movs	r0, #128	@ 0x80
10004de4:	9e08      	ldr	r6, [sp, #32]
10004de6:	9f09      	ldr	r7, [sp, #36]	@ 0x24
10004de8:	0600      	lsls	r0, r0, #24
10004dea:	0039      	movs	r1, r7
10004dec:	4684      	mov	ip, r0
10004dee:	9a26      	ldr	r2, [sp, #152]	@ 0x98
10004df0:	4b22      	ldr	r3, [pc, #136]	@ (10004e7c <_etoa+0x578>)
10004df2:	4461      	add	r1, ip
10004df4:	4013      	ands	r3, r2
10004df6:	9304      	str	r3, [sp, #16]
10004df8:	9b0b      	ldr	r3, [sp, #44]	@ 0x2c
10004dfa:	0032      	movs	r2, r6
10004dfc:	9303      	str	r3, [sp, #12]
10004dfe:	9b24      	ldr	r3, [sp, #144]	@ 0x90
10004e00:	9302      	str	r3, [sp, #8]
10004e02:	000b      	movs	r3, r1
10004e04:	9200      	str	r2, [sp, #0]
10004e06:	9301      	str	r3, [sp, #4]
10004e08:	e5f3      	b.n	100049f2 <_etoa+0xee>
10004e0a:	9b25      	ldr	r3, [sp, #148]	@ 0x94
10004e0c:	1b5b      	subs	r3, r3, r5
10004e0e:	930b      	str	r3, [sp, #44]	@ 0x2c
10004e10:	e7a4      	b.n	10004d5c <_etoa+0x458>
10004e12:	2302      	movs	r3, #2
10004e14:	2504      	movs	r5, #4
10004e16:	930c      	str	r3, [sp, #48]	@ 0x30
10004e18:	e7a0      	b.n	10004d5c <_etoa+0x458>
10004e1a:	1a9c      	subs	r4, r3, r2
10004e1c:	3c01      	subs	r4, #1
10004e1e:	e676      	b.n	10004b0e <_etoa+0x20a>
10004e20:	fffffc01 	.word	0xfffffc01
10004e24:	509f79fb 	.word	0x509f79fb
10004e28:	3fd34413 	.word	0x3fd34413
10004e2c:	8b60c8b3 	.word	0x8b60c8b3
10004e30:	3fc68a28 	.word	0x3fc68a28
10004e34:	3ff00000 	.word	0x3ff00000
10004e38:	3ff80000 	.word	0x3ff80000
10004e3c:	636f4361 	.word	0x636f4361
10004e40:	3fd287a7 	.word	0x3fd287a7
10004e44:	0979a371 	.word	0x0979a371
10004e48:	400a934f 	.word	0x400a934f
10004e4c:	3fe00000 	.word	0x3fe00000
10004e50:	bbb55516 	.word	0xbbb55516
10004e54:	40026bb1 	.word	0x40026bb1
10004e58:	fefa39ef 	.word	0xfefa39ef
10004e5c:	3fe62e42 	.word	0x3fe62e42
10004e60:	402c0000 	.word	0x402c0000
10004e64:	40240000 	.word	0x40240000
10004e68:	40180000 	.word	0x40180000
10004e6c:	000003ff 	.word	0x000003ff
10004e70:	eb1c432d 	.word	0xeb1c432d
10004e74:	3f1a36e2 	.word	0x3f1a36e2
10004e78:	412e8480 	.word	0x412e8480
10004e7c:	fffff7ff 	.word	0xfffff7ff

10004e80 <_vsnprintf>:
10004e80:	b5f0      	push	{r4, r5, r6, r7, lr}
10004e82:	46de      	mov	lr, fp
10004e84:	4657      	mov	r7, sl
10004e86:	464e      	mov	r6, r9
10004e88:	4645      	mov	r5, r8
10004e8a:	b5e0      	push	{r5, r6, r7, lr}
10004e8c:	b0a5      	sub	sp, #148	@ 0x94
10004e8e:	001e      	movs	r6, r3
10004e90:	9b2e      	ldr	r3, [sp, #184]	@ 0xb8
10004e92:	4692      	mov	sl, r2
10004e94:	930c      	str	r3, [sp, #48]	@ 0x30
10004e96:	4acd      	ldr	r2, [pc, #820]	@ (100051cc <_vsnprintf+0x34c>)
10004e98:	4bcd      	ldr	r3, [pc, #820]	@ (100051d0 <_vsnprintf+0x350>)
10004e9a:	4680      	mov	r8, r0
10004e9c:	468b      	mov	fp, r1
10004e9e:	601a      	str	r2, [r3, #0]
10004ea0:	2900      	cmp	r1, #0
10004ea2:	d100      	bne.n	10004ea6 <_vsnprintf+0x26>
10004ea4:	e1ea      	b.n	1000527c <_vsnprintf+0x3fc>
10004ea6:	2300      	movs	r3, #0
10004ea8:	7830      	ldrb	r0, [r6, #0]
10004eaa:	4699      	mov	r9, r3
10004eac:	2800      	cmp	r0, #0
10004eae:	d100      	bne.n	10004eb2 <_vsnprintf+0x32>
10004eb0:	e1ec      	b.n	1000528c <_vsnprintf+0x40c>
10004eb2:	4bc8      	ldr	r3, [pc, #800]	@ (100051d4 <_vsnprintf+0x354>)
10004eb4:	464c      	mov	r4, r9
10004eb6:	930b      	str	r3, [sp, #44]	@ 0x2c
10004eb8:	4bc7      	ldr	r3, [pc, #796]	@ (100051d8 <_vsnprintf+0x358>)
10004eba:	4645      	mov	r5, r8
10004ebc:	4657      	mov	r7, sl
10004ebe:	930e      	str	r3, [sp, #56]	@ 0x38
10004ec0:	e00a      	b.n	10004ed8 <_vsnprintf+0x58>
10004ec2:	1c63      	adds	r3, r4, #1
10004ec4:	4698      	mov	r8, r3
10004ec6:	0022      	movs	r2, r4
10004ec8:	003b      	movs	r3, r7
10004eca:	4659      	mov	r1, fp
10004ecc:	47a8      	blx	r5
10004ece:	4644      	mov	r4, r8
10004ed0:	7830      	ldrb	r0, [r6, #0]
10004ed2:	2800      	cmp	r0, #0
10004ed4:	d100      	bne.n	10004ed8 <_vsnprintf+0x58>
10004ed6:	e087      	b.n	10004fe8 <_vsnprintf+0x168>
10004ed8:	3601      	adds	r6, #1
10004eda:	2825      	cmp	r0, #37	@ 0x25
10004edc:	d1f1      	bne.n	10004ec2 <_vsnprintf+0x42>
10004ede:	2308      	movs	r3, #8
10004ee0:	469a      	mov	sl, r3
10004ee2:	3b04      	subs	r3, #4
10004ee4:	4699      	mov	r9, r3
10004ee6:	3b02      	subs	r3, #2
10004ee8:	4698      	mov	r8, r3
10004eea:	3b01      	subs	r3, #1
10004eec:	2200      	movs	r2, #0
10004eee:	469c      	mov	ip, r3
10004ef0:	940d      	str	r4, [sp, #52]	@ 0x34
10004ef2:	7830      	ldrb	r0, [r6, #0]
10004ef4:	1c71      	adds	r1, r6, #1
10004ef6:	0003      	movs	r3, r0
10004ef8:	3b20      	subs	r3, #32
10004efa:	b2db      	uxtb	r3, r3
10004efc:	2b10      	cmp	r3, #16
10004efe:	d803      	bhi.n	10004f08 <_vsnprintf+0x88>
10004f00:	9c0b      	ldr	r4, [sp, #44]	@ 0x2c
10004f02:	009b      	lsls	r3, r3, #2
10004f04:	58e3      	ldr	r3, [r4, r3]
10004f06:	469f      	mov	pc, r3
10004f08:	0003      	movs	r3, r0
10004f0a:	3b30      	subs	r3, #48	@ 0x30
10004f0c:	4689      	mov	r9, r1
10004f0e:	9c0d      	ldr	r4, [sp, #52]	@ 0x34
10004f10:	2b09      	cmp	r3, #9
10004f12:	d93a      	bls.n	10004f8a <_vsnprintf+0x10a>
10004f14:	2300      	movs	r3, #0
10004f16:	4698      	mov	r8, r3
10004f18:	282a      	cmp	r0, #42	@ 0x2a
10004f1a:	d100      	bne.n	10004f1e <_vsnprintf+0x9e>
10004f1c:	e0c1      	b.n	100050a2 <_vsnprintf+0x222>
10004f1e:	2300      	movs	r3, #0
10004f20:	469a      	mov	sl, r3
10004f22:	282e      	cmp	r0, #46	@ 0x2e
10004f24:	d04b      	beq.n	10004fbe <_vsnprintf+0x13e>
10004f26:	0003      	movs	r3, r0
10004f28:	3b68      	subs	r3, #104	@ 0x68
10004f2a:	b2db      	uxtb	r3, r3
10004f2c:	2b12      	cmp	r3, #18
10004f2e:	d81e      	bhi.n	10004f6e <_vsnprintf+0xee>
10004f30:	990e      	ldr	r1, [sp, #56]	@ 0x38
10004f32:	009b      	lsls	r3, r3, #2
10004f34:	58cb      	ldr	r3, [r1, r3]
10004f36:	469f      	mov	pc, r3
10004f38:	4663      	mov	r3, ip
10004f3a:	000e      	movs	r6, r1
10004f3c:	431a      	orrs	r2, r3
10004f3e:	e7d8      	b.n	10004ef2 <_vsnprintf+0x72>
10004f40:	4643      	mov	r3, r8
10004f42:	000e      	movs	r6, r1
10004f44:	431a      	orrs	r2, r3
10004f46:	e7d4      	b.n	10004ef2 <_vsnprintf+0x72>
10004f48:	464b      	mov	r3, r9
10004f4a:	000e      	movs	r6, r1
10004f4c:	431a      	orrs	r2, r3
10004f4e:	e7d0      	b.n	10004ef2 <_vsnprintf+0x72>
10004f50:	2310      	movs	r3, #16
10004f52:	000e      	movs	r6, r1
10004f54:	431a      	orrs	r2, r3
10004f56:	e7cc      	b.n	10004ef2 <_vsnprintf+0x72>
10004f58:	4653      	mov	r3, sl
10004f5a:	000e      	movs	r6, r1
10004f5c:	431a      	orrs	r2, r3
10004f5e:	e7c8      	b.n	10004ef2 <_vsnprintf+0x72>
10004f60:	2380      	movs	r3, #128	@ 0x80
10004f62:	005b      	lsls	r3, r3, #1
10004f64:	431a      	orrs	r2, r3
10004f66:	3bff      	subs	r3, #255	@ 0xff
10004f68:	469c      	mov	ip, r3
10004f6a:	7870      	ldrb	r0, [r6, #1]
10004f6c:	44e1      	add	r9, ip
10004f6e:	464e      	mov	r6, r9
10004f70:	2867      	cmp	r0, #103	@ 0x67
10004f72:	d84f      	bhi.n	10005014 <_vsnprintf+0x194>
10004f74:	2824      	cmp	r0, #36	@ 0x24
10004f76:	d9a4      	bls.n	10004ec2 <_vsnprintf+0x42>
10004f78:	0003      	movs	r3, r0
10004f7a:	3b25      	subs	r3, #37	@ 0x25
10004f7c:	b2db      	uxtb	r3, r3
10004f7e:	2b42      	cmp	r3, #66	@ 0x42
10004f80:	d89f      	bhi.n	10004ec2 <_vsnprintf+0x42>
10004f82:	4996      	ldr	r1, [pc, #600]	@ (100051dc <_vsnprintf+0x35c>)
10004f84:	009b      	lsls	r3, r3, #2
10004f86:	58cb      	ldr	r3, [r1, r3]
10004f88:	469f      	mov	pc, r3
10004f8a:	2300      	movs	r3, #0
10004f8c:	4694      	mov	ip, r2
10004f8e:	001e      	movs	r6, r3
10004f90:	e000      	b.n	10004f94 <_vsnprintf+0x114>
10004f92:	3101      	adds	r1, #1
10004f94:	00b3      	lsls	r3, r6, #2
10004f96:	199b      	adds	r3, r3, r6
10004f98:	005b      	lsls	r3, r3, #1
10004f9a:	181e      	adds	r6, r3, r0
10004f9c:	7808      	ldrb	r0, [r1, #0]
10004f9e:	3e30      	subs	r6, #48	@ 0x30
10004fa0:	0003      	movs	r3, r0
10004fa2:	3b30      	subs	r3, #48	@ 0x30
10004fa4:	2b09      	cmp	r3, #9
10004fa6:	d9f4      	bls.n	10004f92 <_vsnprintf+0x112>
10004fa8:	2301      	movs	r3, #1
10004faa:	4662      	mov	r2, ip
10004fac:	4689      	mov	r9, r1
10004fae:	469c      	mov	ip, r3
10004fb0:	2300      	movs	r3, #0
10004fb2:	46b0      	mov	r8, r6
10004fb4:	469a      	mov	sl, r3
10004fb6:	000e      	movs	r6, r1
10004fb8:	44e1      	add	r9, ip
10004fba:	282e      	cmp	r0, #46	@ 0x2e
10004fbc:	d1b3      	bne.n	10004f26 <_vsnprintf+0xa6>
10004fbe:	2130      	movs	r1, #48	@ 0x30
10004fc0:	2080      	movs	r0, #128	@ 0x80
10004fc2:	4249      	negs	r1, r1
10004fc4:	468c      	mov	ip, r1
10004fc6:	00c0      	lsls	r0, r0, #3
10004fc8:	4302      	orrs	r2, r0
10004fca:	7870      	ldrb	r0, [r6, #1]
10004fcc:	464b      	mov	r3, r9
10004fce:	4484      	add	ip, r0
10004fd0:	4661      	mov	r1, ip
10004fd2:	2909      	cmp	r1, #9
10004fd4:	d800      	bhi.n	10004fd8 <_vsnprintf+0x158>
10004fd6:	e16c      	b.n	100052b2 <_vsnprintf+0x432>
10004fd8:	282a      	cmp	r0, #42	@ 0x2a
10004fda:	d100      	bne.n	10004fde <_vsnprintf+0x15e>
10004fdc:	e17a      	b.n	100052d4 <_vsnprintf+0x454>
10004fde:	2301      	movs	r3, #1
10004fe0:	469c      	mov	ip, r3
10004fe2:	464e      	mov	r6, r9
10004fe4:	44e1      	add	r9, ip
10004fe6:	e79e      	b.n	10004f26 <_vsnprintf+0xa6>
10004fe8:	46a1      	mov	r9, r4
10004fea:	46a8      	mov	r8, r5
10004fec:	46ba      	mov	sl, r7
10004fee:	45ca      	cmp	sl, r9
10004ff0:	d803      	bhi.n	10004ffa <_vsnprintf+0x17a>
10004ff2:	2301      	movs	r3, #1
10004ff4:	425b      	negs	r3, r3
10004ff6:	4453      	add	r3, sl
10004ff8:	4699      	mov	r9, r3
10004ffa:	4653      	mov	r3, sl
10004ffc:	464a      	mov	r2, r9
10004ffe:	4659      	mov	r1, fp
10005000:	2000      	movs	r0, #0
10005002:	47c0      	blx	r8
10005004:	0020      	movs	r0, r4
10005006:	b025      	add	sp, #148	@ 0x94
10005008:	bcf0      	pop	{r4, r5, r6, r7}
1000500a:	46bb      	mov	fp, r7
1000500c:	46b2      	mov	sl, r6
1000500e:	46a9      	mov	r9, r5
10005010:	46a0      	mov	r8, r4
10005012:	bdf0      	pop	{r4, r5, r6, r7, pc}
10005014:	0003      	movs	r3, r0
10005016:	3b69      	subs	r3, #105	@ 0x69
10005018:	b2db      	uxtb	r3, r3
1000501a:	930d      	str	r3, [sp, #52]	@ 0x34
1000501c:	2b0f      	cmp	r3, #15
1000501e:	d900      	bls.n	10005022 <_vsnprintf+0x1a2>
10005020:	e74f      	b.n	10004ec2 <_vsnprintf+0x42>
10005022:	2101      	movs	r1, #1
10005024:	4099      	lsls	r1, r3
10005026:	468c      	mov	ip, r1
10005028:	496d      	ldr	r1, [pc, #436]	@ (100051e0 <_vsnprintf+0x360>)
1000502a:	4689      	mov	r9, r1
1000502c:	4661      	mov	r1, ip
1000502e:	464b      	mov	r3, r9
10005030:	4019      	ands	r1, r3
10005032:	910f      	str	r1, [sp, #60]	@ 0x3c
10005034:	4663      	mov	r3, ip
10005036:	4649      	mov	r1, r9
10005038:	420b      	tst	r3, r1
1000503a:	d000      	beq.n	1000503e <_vsnprintf+0x1be>
1000503c:	e128      	b.n	10005290 <_vsnprintf+0x410>
1000503e:	9b0d      	ldr	r3, [sp, #52]	@ 0x34
10005040:	2b0a      	cmp	r3, #10
10005042:	d03a      	beq.n	100050ba <_vsnprintf+0x23a>
10005044:	2b07      	cmp	r3, #7
10005046:	d000      	beq.n	1000504a <_vsnprintf+0x1ca>
10005048:	e73b      	b.n	10004ec2 <_vsnprintf+0x42>
1000504a:	9b0c      	ldr	r3, [sp, #48]	@ 0x30
1000504c:	0019      	movs	r1, r3
1000504e:	c908      	ldmia	r1!, {r3}
10005050:	4688      	mov	r8, r1
10005052:	2b00      	cmp	r3, #0
10005054:	d100      	bne.n	10005058 <_vsnprintf+0x1d8>
10005056:	e14b      	b.n	100052f0 <_vsnprintf+0x470>
10005058:	2021      	movs	r0, #33	@ 0x21
1000505a:	4302      	orrs	r2, r0
1000505c:	4691      	mov	r9, r2
1000505e:	a914      	add	r1, sp, #80	@ 0x50
10005060:	468c      	mov	ip, r1
10005062:	221f      	movs	r2, #31
10005064:	210f      	movs	r1, #15
10005066:	4462      	add	r2, ip
10005068:	468c      	mov	ip, r1
1000506a:	4651      	mov	r1, sl
1000506c:	950d      	str	r5, [sp, #52]	@ 0x34
1000506e:	910c      	str	r1, [sp, #48]	@ 0x30
10005070:	46a2      	mov	sl, r4
10005072:	0015      	movs	r5, r2
10005074:	990f      	ldr	r1, [sp, #60]	@ 0x3c
10005076:	e002      	b.n	1000507e <_vsnprintf+0x1fe>
10005078:	2920      	cmp	r1, #32
1000507a:	d00c      	beq.n	10005096 <_vsnprintf+0x216>
1000507c:	0013      	movs	r3, r2
1000507e:	4664      	mov	r4, ip
10005080:	401c      	ands	r4, r3
10005082:	0020      	movs	r0, r4
10005084:	3037      	adds	r0, #55	@ 0x37
10005086:	2c09      	cmp	r4, #9
10005088:	d800      	bhi.n	1000508c <_vsnprintf+0x20c>
1000508a:	3807      	subs	r0, #7
1000508c:	3101      	adds	r1, #1
1000508e:	5468      	strb	r0, [r5, r1]
10005090:	091a      	lsrs	r2, r3, #4
10005092:	2b0f      	cmp	r3, #15
10005094:	d8f0      	bhi.n	10005078 <_vsnprintf+0x1f8>
10005096:	9b0c      	ldr	r3, [sp, #48]	@ 0x30
10005098:	4654      	mov	r4, sl
1000509a:	9d0d      	ldr	r5, [sp, #52]	@ 0x34
1000509c:	469a      	mov	sl, r3
1000509e:	910f      	str	r1, [sp, #60]	@ 0x3c
100050a0:	e133      	b.n	1000530a <_vsnprintf+0x48a>
100050a2:	9b0c      	ldr	r3, [sp, #48]	@ 0x30
100050a4:	cb02      	ldmia	r3!, {r1}
100050a6:	4688      	mov	r8, r1
100050a8:	2900      	cmp	r1, #0
100050aa:	db47      	blt.n	1000513c <_vsnprintf+0x2bc>
100050ac:	930c      	str	r3, [sp, #48]	@ 0x30
100050ae:	2301      	movs	r3, #1
100050b0:	469c      	mov	ip, r3
100050b2:	7870      	ldrb	r0, [r6, #1]
100050b4:	464e      	mov	r6, r9
100050b6:	44e1      	add	r9, ip
100050b8:	e731      	b.n	10004f1e <_vsnprintf+0x9e>
100050ba:	9b0c      	ldr	r3, [sp, #48]	@ 0x30
100050bc:	cb02      	ldmia	r3!, {r1}
100050be:	9314      	str	r3, [sp, #80]	@ 0x50
100050c0:	4653      	mov	r3, sl
100050c2:	2b00      	cmp	r3, #0
100050c4:	d100      	bne.n	100050c8 <_vsnprintf+0x248>
100050c6:	e138      	b.n	1000533a <_vsnprintf+0x4ba>
100050c8:	469c      	mov	ip, r3
100050ca:	7808      	ldrb	r0, [r1, #0]
100050cc:	000b      	movs	r3, r1
100050ce:	900c      	str	r0, [sp, #48]	@ 0x30
100050d0:	448c      	add	ip, r1
100050d2:	2800      	cmp	r0, #0
100050d4:	d101      	bne.n	100050da <_vsnprintf+0x25a>
100050d6:	f000 fc98 	bl	10005a0a <_vsnprintf+0xb8a>
100050da:	4689      	mov	r9, r1
100050dc:	4661      	mov	r1, ip
100050de:	4694      	mov	ip, r2
100050e0:	e003      	b.n	100050ea <_vsnprintf+0x26a>
100050e2:	785a      	ldrb	r2, [r3, #1]
100050e4:	3301      	adds	r3, #1
100050e6:	2a00      	cmp	r2, #0
100050e8:	d001      	beq.n	100050ee <_vsnprintf+0x26e>
100050ea:	428b      	cmp	r3, r1
100050ec:	d1f9      	bne.n	100050e2 <_vsnprintf+0x262>
100050ee:	4649      	mov	r1, r9
100050f0:	4662      	mov	r2, ip
100050f2:	1a5b      	subs	r3, r3, r1
100050f4:	900c      	str	r0, [sp, #48]	@ 0x30
100050f6:	930f      	str	r3, [sp, #60]	@ 0x3c
100050f8:	0553      	lsls	r3, r2, #21
100050fa:	d500      	bpl.n	100050fe <_vsnprintf+0x27e>
100050fc:	e120      	b.n	10005340 <_vsnprintf+0x4c0>
100050fe:	2302      	movs	r3, #2
10005100:	0018      	movs	r0, r3
10005102:	4010      	ands	r0, r2
10005104:	900d      	str	r0, [sp, #52]	@ 0x34
10005106:	4213      	tst	r3, r2
10005108:	d100      	bne.n	1000510c <_vsnprintf+0x28c>
1000510a:	e3cb      	b.n	100058a4 <_vsnprintf+0xa24>
1000510c:	930d      	str	r3, [sp, #52]	@ 0x34
1000510e:	1b0b      	subs	r3, r1, r4
10005110:	46b1      	mov	r9, r6
10005112:	469a      	mov	sl, r3
10005114:	465e      	mov	r6, fp
10005116:	980c      	ldr	r0, [sp, #48]	@ 0x30
10005118:	0022      	movs	r2, r4
1000511a:	003b      	movs	r3, r7
1000511c:	0031      	movs	r1, r6
1000511e:	47a8      	blx	r5
10005120:	4653      	mov	r3, sl
10005122:	3401      	adds	r4, #1
10005124:	5d18      	ldrb	r0, [r3, r4]
10005126:	2800      	cmp	r0, #0
10005128:	d1f6      	bne.n	10005118 <_vsnprintf+0x298>
1000512a:	46b3      	mov	fp, r6
1000512c:	464e      	mov	r6, r9
1000512e:	9b0d      	ldr	r3, [sp, #52]	@ 0x34
10005130:	2b00      	cmp	r3, #0
10005132:	d000      	beq.n	10005136 <_vsnprintf+0x2b6>
10005134:	e1c7      	b.n	100054c6 <_vsnprintf+0x646>
10005136:	9b14      	ldr	r3, [sp, #80]	@ 0x50
10005138:	930c      	str	r3, [sp, #48]	@ 0x30
1000513a:	e6c9      	b.n	10004ed0 <_vsnprintf+0x50>
1000513c:	930c      	str	r3, [sp, #48]	@ 0x30
1000513e:	2301      	movs	r3, #1
10005140:	469c      	mov	ip, r3
10005142:	3828      	subs	r0, #40	@ 0x28
10005144:	4249      	negs	r1, r1
10005146:	4302      	orrs	r2, r0
10005148:	4688      	mov	r8, r1
1000514a:	7870      	ldrb	r0, [r6, #1]
1000514c:	464e      	mov	r6, r9
1000514e:	44e1      	add	r9, ip
10005150:	e6e5      	b.n	10004f1e <_vsnprintf+0x9e>
10005152:	7870      	ldrb	r0, [r6, #1]
10005154:	286c      	cmp	r0, #108	@ 0x6c
10005156:	d100      	bne.n	1000515a <_vsnprintf+0x2da>
10005158:	e17f      	b.n	1000545a <_vsnprintf+0x5da>
1000515a:	2380      	movs	r3, #128	@ 0x80
1000515c:	005b      	lsls	r3, r3, #1
1000515e:	431a      	orrs	r2, r3
10005160:	3bff      	subs	r3, #255	@ 0xff
10005162:	469c      	mov	ip, r3
10005164:	44e1      	add	r9, ip
10005166:	e702      	b.n	10004f6e <_vsnprintf+0xee>
10005168:	2380      	movs	r3, #128	@ 0x80
1000516a:	009b      	lsls	r3, r3, #2
1000516c:	431a      	orrs	r2, r3
1000516e:	2301      	movs	r3, #1
10005170:	469c      	mov	ip, r3
10005172:	7870      	ldrb	r0, [r6, #1]
10005174:	44e1      	add	r9, ip
10005176:	e6fa      	b.n	10004f6e <_vsnprintf+0xee>
10005178:	7870      	ldrb	r0, [r6, #1]
1000517a:	2868      	cmp	r0, #104	@ 0x68
1000517c:	d100      	bne.n	10005180 <_vsnprintf+0x300>
1000517e:	e173      	b.n	10005468 <_vsnprintf+0x5e8>
10005180:	2380      	movs	r3, #128	@ 0x80
10005182:	431a      	orrs	r2, r3
10005184:	3b7f      	subs	r3, #127	@ 0x7f
10005186:	469c      	mov	ip, r3
10005188:	44e1      	add	r9, ip
1000518a:	e6f0      	b.n	10004f6e <_vsnprintf+0xee>
1000518c:	2867      	cmp	r0, #103	@ 0x67
1000518e:	d100      	bne.n	10005192 <_vsnprintf+0x312>
10005190:	e103      	b.n	1000539a <_vsnprintf+0x51a>
10005192:	2847      	cmp	r0, #71	@ 0x47
10005194:	d100      	bne.n	10005198 <_vsnprintf+0x318>
10005196:	e15a      	b.n	1000544e <_vsnprintf+0x5ce>
10005198:	2845      	cmp	r0, #69	@ 0x45
1000519a:	d100      	bne.n	1000519e <_vsnprintf+0x31e>
1000519c:	e15a      	b.n	10005454 <_vsnprintf+0x5d4>
1000519e:	9204      	str	r2, [sp, #16]
100051a0:	2107      	movs	r1, #7
100051a2:	4642      	mov	r2, r8
100051a4:	9b0c      	ldr	r3, [sp, #48]	@ 0x30
100051a6:	9203      	str	r2, [sp, #12]
100051a8:	3307      	adds	r3, #7
100051aa:	4652      	mov	r2, sl
100051ac:	438b      	bics	r3, r1
100051ae:	0019      	movs	r1, r3
100051b0:	9202      	str	r2, [sp, #8]
100051b2:	c90c      	ldmia	r1!, {r2, r3}
100051b4:	0028      	movs	r0, r5
100051b6:	9200      	str	r2, [sp, #0]
100051b8:	9301      	str	r3, [sp, #4]
100051ba:	910c      	str	r1, [sp, #48]	@ 0x30
100051bc:	0022      	movs	r2, r4
100051be:	003b      	movs	r3, r7
100051c0:	4659      	mov	r1, fp
100051c2:	f7ff fb9f 	bl	10004904 <_etoa>
100051c6:	0004      	movs	r4, r0
100051c8:	e682      	b.n	10004ed0 <_vsnprintf+0x50>
100051ca:	46c0      	nop			@ (mov r8, r8)
100051cc:	10004e81 	.word	0x10004e81
100051d0:	20000b18 	.word	0x20000b18
100051d4:	10006454 	.word	0x10006454
100051d8:	10006498 	.word	0x10006498
100051dc:	100064e4 	.word	0x100064e4
100051e0:	00009041 	.word	0x00009041
100051e4:	2846      	cmp	r0, #70	@ 0x46
100051e6:	d100      	bne.n	100051ea <_vsnprintf+0x36a>
100051e8:	e0db      	b.n	100053a2 <_vsnprintf+0x522>
100051ea:	9204      	str	r2, [sp, #16]
100051ec:	2107      	movs	r1, #7
100051ee:	4642      	mov	r2, r8
100051f0:	9b0c      	ldr	r3, [sp, #48]	@ 0x30
100051f2:	9203      	str	r2, [sp, #12]
100051f4:	3307      	adds	r3, #7
100051f6:	4652      	mov	r2, sl
100051f8:	438b      	bics	r3, r1
100051fa:	0019      	movs	r1, r3
100051fc:	9202      	str	r2, [sp, #8]
100051fe:	c90c      	ldmia	r1!, {r2, r3}
10005200:	0028      	movs	r0, r5
10005202:	9200      	str	r2, [sp, #0]
10005204:	9301      	str	r3, [sp, #4]
10005206:	910c      	str	r1, [sp, #48]	@ 0x30
10005208:	0022      	movs	r2, r4
1000520a:	003b      	movs	r3, r7
1000520c:	4659      	mov	r1, fp
1000520e:	f7ff f925 	bl	1000445c <_ftoa>
10005212:	0004      	movs	r4, r0
10005214:	e65c      	b.n	10004ed0 <_vsnprintf+0x50>
10005216:	1c63      	adds	r3, r4, #1
10005218:	4698      	mov	r8, r3
1000521a:	0022      	movs	r2, r4
1000521c:	003b      	movs	r3, r7
1000521e:	4659      	mov	r1, fp
10005220:	2025      	movs	r0, #37	@ 0x25
10005222:	47a8      	blx	r5
10005224:	4644      	mov	r4, r8
10005226:	e653      	b.n	10004ed0 <_vsnprintf+0x50>
10005228:	9b0c      	ldr	r3, [sp, #48]	@ 0x30
1000522a:	3304      	adds	r3, #4
1000522c:	930d      	str	r3, [sp, #52]	@ 0x34
1000522e:	1c63      	adds	r3, r4, #1
10005230:	4699      	mov	r9, r3
10005232:	0792      	lsls	r2, r2, #30
10005234:	d400      	bmi.n	10005238 <_vsnprintf+0x3b8>
10005236:	e122      	b.n	1000547e <_vsnprintf+0x5fe>
10005238:	9b0c      	ldr	r3, [sp, #48]	@ 0x30
1000523a:	0022      	movs	r2, r4
1000523c:	7818      	ldrb	r0, [r3, #0]
1000523e:	4659      	mov	r1, fp
10005240:	003b      	movs	r3, r7
10005242:	47a8      	blx	r5
10005244:	4643      	mov	r3, r8
10005246:	4444      	add	r4, r8
10005248:	2b01      	cmp	r3, #1
1000524a:	d800      	bhi.n	1000524e <_vsnprintf+0x3ce>
1000524c:	e285      	b.n	1000575a <_vsnprintf+0x8da>
1000524e:	0033      	movs	r3, r6
10005250:	46b8      	mov	r8, r7
10005252:	002e      	movs	r6, r5
10005254:	465f      	mov	r7, fp
10005256:	0025      	movs	r5, r4
10005258:	464c      	mov	r4, r9
1000525a:	4699      	mov	r9, r3
1000525c:	0022      	movs	r2, r4
1000525e:	4643      	mov	r3, r8
10005260:	3401      	adds	r4, #1
10005262:	0039      	movs	r1, r7
10005264:	2020      	movs	r0, #32
10005266:	47b0      	blx	r6
10005268:	42ac      	cmp	r4, r5
1000526a:	d1f7      	bne.n	1000525c <_vsnprintf+0x3dc>
1000526c:	002c      	movs	r4, r5
1000526e:	46bb      	mov	fp, r7
10005270:	0035      	movs	r5, r6
10005272:	4647      	mov	r7, r8
10005274:	464e      	mov	r6, r9
10005276:	9b0d      	ldr	r3, [sp, #52]	@ 0x34
10005278:	930c      	str	r3, [sp, #48]	@ 0x30
1000527a:	e629      	b.n	10004ed0 <_vsnprintf+0x50>
1000527c:	4bdb      	ldr	r3, [pc, #876]	@ (100055ec <_vsnprintf+0x76c>)
1000527e:	7830      	ldrb	r0, [r6, #0]
10005280:	4698      	mov	r8, r3
10005282:	2300      	movs	r3, #0
10005284:	4699      	mov	r9, r3
10005286:	2800      	cmp	r0, #0
10005288:	d000      	beq.n	1000528c <_vsnprintf+0x40c>
1000528a:	e612      	b.n	10004eb2 <_vsnprintf+0x32>
1000528c:	2400      	movs	r4, #0
1000528e:	e6ae      	b.n	10004fee <_vsnprintf+0x16e>
10005290:	286f      	cmp	r0, #111	@ 0x6f
10005292:	d100      	bne.n	10005296 <_vsnprintf+0x416>
10005294:	e088      	b.n	100053a8 <_vsnprintf+0x528>
10005296:	d800      	bhi.n	1000529a <_vsnprintf+0x41a>
10005298:	e30b      	b.n	100058b2 <_vsnprintf+0xa32>
1000529a:	2310      	movs	r3, #16
1000529c:	2878      	cmp	r0, #120	@ 0x78
1000529e:	d100      	bne.n	100052a2 <_vsnprintf+0x422>
100052a0:	e0cf      	b.n	10005442 <_vsnprintf+0x5c2>
100052a2:	439a      	bics	r2, r3
100052a4:	230a      	movs	r3, #10
100052a6:	469c      	mov	ip, r3
100052a8:	2300      	movs	r3, #0
100052aa:	930f      	str	r3, [sp, #60]	@ 0x3c
100052ac:	330a      	adds	r3, #10
100052ae:	930d      	str	r3, [sp, #52]	@ 0x34
100052b0:	e080      	b.n	100053b4 <_vsnprintf+0x534>
100052b2:	4656      	mov	r6, sl
100052b4:	00b1      	lsls	r1, r6, #2
100052b6:	1989      	adds	r1, r1, r6
100052b8:	0049      	lsls	r1, r1, #1
100052ba:	3301      	adds	r3, #1
100052bc:	180e      	adds	r6, r1, r0
100052be:	7818      	ldrb	r0, [r3, #0]
100052c0:	3e30      	subs	r6, #48	@ 0x30
100052c2:	0001      	movs	r1, r0
100052c4:	3930      	subs	r1, #48	@ 0x30
100052c6:	2909      	cmp	r1, #9
100052c8:	d9f4      	bls.n	100052b4 <_vsnprintf+0x434>
100052ca:	46b2      	mov	sl, r6
100052cc:	001e      	movs	r6, r3
100052ce:	3301      	adds	r3, #1
100052d0:	4699      	mov	r9, r3
100052d2:	e628      	b.n	10004f26 <_vsnprintf+0xa6>
100052d4:	9b0c      	ldr	r3, [sp, #48]	@ 0x30
100052d6:	3602      	adds	r6, #2
100052d8:	cb02      	ldmia	r3!, {r1}
100052da:	468a      	mov	sl, r1
100052dc:	43c9      	mvns	r1, r1
100052de:	4650      	mov	r0, sl
100052e0:	17c9      	asrs	r1, r1, #31
100052e2:	4008      	ands	r0, r1
100052e4:	4682      	mov	sl, r0
100052e6:	930c      	str	r3, [sp, #48]	@ 0x30
100052e8:	7830      	ldrb	r0, [r6, #0]
100052ea:	1c73      	adds	r3, r6, #1
100052ec:	4699      	mov	r9, r3
100052ee:	e61a      	b.n	10004f26 <_vsnprintf+0xa6>
100052f0:	2310      	movs	r3, #16
100052f2:	0010      	movs	r0, r2
100052f4:	4398      	bics	r0, r3
100052f6:	3311      	adds	r3, #17
100052f8:	4318      	orrs	r0, r3
100052fa:	4681      	mov	r9, r0
100052fc:	2080      	movs	r0, #128	@ 0x80
100052fe:	0013      	movs	r3, r2
10005300:	00c0      	lsls	r0, r0, #3
10005302:	4003      	ands	r3, r0
10005304:	4202      	tst	r2, r0
10005306:	d100      	bne.n	1000530a <_vsnprintf+0x48a>
10005308:	e6a9      	b.n	1000505e <_vsnprintf+0x1de>
1000530a:	464b      	mov	r3, r9
1000530c:	9306      	str	r3, [sp, #24]
1000530e:	2308      	movs	r3, #8
10005310:	9305      	str	r3, [sp, #20]
10005312:	4653      	mov	r3, sl
10005314:	9304      	str	r3, [sp, #16]
10005316:	2310      	movs	r3, #16
10005318:	9303      	str	r3, [sp, #12]
1000531a:	2300      	movs	r3, #0
1000531c:	9302      	str	r3, [sp, #8]
1000531e:	9b0f      	ldr	r3, [sp, #60]	@ 0x3c
10005320:	0022      	movs	r2, r4
10005322:	9301      	str	r3, [sp, #4]
10005324:	ab1c      	add	r3, sp, #112	@ 0x70
10005326:	9300      	str	r3, [sp, #0]
10005328:	4659      	mov	r1, fp
1000532a:	003b      	movs	r3, r7
1000532c:	0028      	movs	r0, r5
1000532e:	f7fe ff9f 	bl	10004270 <_ntoa_format>
10005332:	4643      	mov	r3, r8
10005334:	0004      	movs	r4, r0
10005336:	930c      	str	r3, [sp, #48]	@ 0x30
10005338:	e5ca      	b.n	10004ed0 <_vsnprintf+0x50>
1000533a:	2301      	movs	r3, #1
1000533c:	425b      	negs	r3, r3
1000533e:	e6c3      	b.n	100050c8 <_vsnprintf+0x248>
10005340:	9b0f      	ldr	r3, [sp, #60]	@ 0x3c
10005342:	4553      	cmp	r3, sl
10005344:	d901      	bls.n	1000534a <_vsnprintf+0x4ca>
10005346:	4653      	mov	r3, sl
10005348:	930f      	str	r3, [sp, #60]	@ 0x3c
1000534a:	2302      	movs	r3, #2
1000534c:	0018      	movs	r0, r3
1000534e:	4010      	ands	r0, r2
10005350:	900d      	str	r0, [sp, #52]	@ 0x34
10005352:	4213      	tst	r3, r2
10005354:	d100      	bne.n	10005358 <_vsnprintf+0x4d8>
10005356:	e1b7      	b.n	100056c8 <_vsnprintf+0x848>
10005358:	930d      	str	r3, [sp, #52]	@ 0x34
1000535a:	46d1      	mov	r9, sl
1000535c:	1b0b      	subs	r3, r1, r4
1000535e:	469a      	mov	sl, r3
10005360:	0033      	movs	r3, r6
10005362:	44a1      	add	r9, r4
10005364:	002e      	movs	r6, r5
10005366:	0022      	movs	r2, r4
10005368:	464d      	mov	r5, r9
1000536a:	980c      	ldr	r0, [sp, #48]	@ 0x30
1000536c:	46b9      	mov	r9, r7
1000536e:	465f      	mov	r7, fp
10005370:	469b      	mov	fp, r3
10005372:	e008      	b.n	10005386 <_vsnprintf+0x506>
10005374:	464b      	mov	r3, r9
10005376:	0039      	movs	r1, r7
10005378:	1c54      	adds	r4, r2, #1
1000537a:	47b0      	blx	r6
1000537c:	4653      	mov	r3, sl
1000537e:	5d18      	ldrb	r0, [r3, r4]
10005380:	2800      	cmp	r0, #0
10005382:	d077      	beq.n	10005474 <_vsnprintf+0x5f4>
10005384:	0022      	movs	r2, r4
10005386:	4295      	cmp	r5, r2
10005388:	d1f4      	bne.n	10005374 <_vsnprintf+0x4f4>
1000538a:	465b      	mov	r3, fp
1000538c:	46bb      	mov	fp, r7
1000538e:	464f      	mov	r7, r9
10005390:	46a9      	mov	r9, r5
10005392:	0035      	movs	r5, r6
10005394:	464c      	mov	r4, r9
10005396:	001e      	movs	r6, r3
10005398:	e6c9      	b.n	1000512e <_vsnprintf+0x2ae>
1000539a:	2380      	movs	r3, #128	@ 0x80
1000539c:	011b      	lsls	r3, r3, #4
1000539e:	431a      	orrs	r2, r3
100053a0:	e6fd      	b.n	1000519e <_vsnprintf+0x31e>
100053a2:	2320      	movs	r3, #32
100053a4:	431a      	orrs	r2, r3
100053a6:	e720      	b.n	100051ea <_vsnprintf+0x36a>
100053a8:	2308      	movs	r3, #8
100053aa:	469c      	mov	ip, r3
100053ac:	2300      	movs	r3, #0
100053ae:	930f      	str	r3, [sp, #60]	@ 0x3c
100053b0:	3308      	adds	r3, #8
100053b2:	930d      	str	r3, [sp, #52]	@ 0x34
100053b4:	2380      	movs	r3, #128	@ 0x80
100053b6:	0011      	movs	r1, r2
100053b8:	00db      	lsls	r3, r3, #3
100053ba:	4019      	ands	r1, r3
100053bc:	421a      	tst	r2, r3
100053be:	d100      	bne.n	100053c2 <_vsnprintf+0x542>
100053c0:	e116      	b.n	100055f0 <_vsnprintf+0x770>
100053c2:	230d      	movs	r3, #13
100053c4:	439a      	bics	r2, r3
100053c6:	0010      	movs	r0, r2
100053c8:	2380      	movs	r3, #128	@ 0x80
100053ca:	0002      	movs	r2, r0
100053cc:	009b      	lsls	r3, r3, #2
100053ce:	401a      	ands	r2, r3
100053d0:	9214      	str	r2, [sp, #80]	@ 0x50
100053d2:	4218      	tst	r0, r3
100053d4:	d000      	beq.n	100053d8 <_vsnprintf+0x558>
100053d6:	e1c2      	b.n	1000575e <_vsnprintf+0x8de>
100053d8:	2380      	movs	r3, #128	@ 0x80
100053da:	0002      	movs	r2, r0
100053dc:	005b      	lsls	r3, r3, #1
100053de:	401a      	ands	r2, r3
100053e0:	4691      	mov	r9, r2
100053e2:	9a0c      	ldr	r2, [sp, #48]	@ 0x30
100053e4:	3204      	adds	r2, #4
100053e6:	920f      	str	r2, [sp, #60]	@ 0x3c
100053e8:	4218      	tst	r0, r3
100053ea:	d000      	beq.n	100053ee <_vsnprintf+0x56e>
100053ec:	e2b7      	b.n	1000595e <_vsnprintf+0xade>
100053ee:	0643      	lsls	r3, r0, #25
100053f0:	d500      	bpl.n	100053f4 <_vsnprintf+0x574>
100053f2:	e19f      	b.n	10005734 <_vsnprintf+0x8b4>
100053f4:	0603      	lsls	r3, r0, #24
100053f6:	d400      	bmi.n	100053fa <_vsnprintf+0x57a>
100053f8:	e319      	b.n	10005a2e <_vsnprintf+0xbae>
100053fa:	9b0c      	ldr	r3, [sp, #48]	@ 0x30
100053fc:	881b      	ldrh	r3, [r3, #0]
100053fe:	9309      	str	r3, [sp, #36]	@ 0x24
10005400:	2b00      	cmp	r3, #0
10005402:	d000      	beq.n	10005406 <_vsnprintf+0x586>
10005404:	e1fc      	b.n	10005800 <_vsnprintf+0x980>
10005406:	3310      	adds	r3, #16
10005408:	4398      	bics	r0, r3
1000540a:	2900      	cmp	r1, #0
1000540c:	d100      	bne.n	10005410 <_vsnprintf+0x590>
1000540e:	e1f7      	b.n	10005800 <_vsnprintf+0x980>
10005410:	2300      	movs	r3, #0
10005412:	4699      	mov	r9, r3
10005414:	4643      	mov	r3, r8
10005416:	9305      	str	r3, [sp, #20]
10005418:	4653      	mov	r3, sl
1000541a:	9304      	str	r3, [sp, #16]
1000541c:	9b0d      	ldr	r3, [sp, #52]	@ 0x34
1000541e:	9006      	str	r0, [sp, #24]
10005420:	9303      	str	r3, [sp, #12]
10005422:	2300      	movs	r3, #0
10005424:	e0d2      	b.n	100055cc <_vsnprintf+0x74c>
10005426:	2858      	cmp	r0, #88	@ 0x58
10005428:	d008      	beq.n	1000543c <_vsnprintf+0x5bc>
1000542a:	2862      	cmp	r0, #98	@ 0x62
1000542c:	d167      	bne.n	100054fe <_vsnprintf+0x67e>
1000542e:	2302      	movs	r3, #2
10005430:	469c      	mov	ip, r3
10005432:	2300      	movs	r3, #0
10005434:	930f      	str	r3, [sp, #60]	@ 0x3c
10005436:	3302      	adds	r3, #2
10005438:	930d      	str	r3, [sp, #52]	@ 0x34
1000543a:	e7bb      	b.n	100053b4 <_vsnprintf+0x534>
1000543c:	2320      	movs	r3, #32
1000543e:	431a      	orrs	r2, r3
10005440:	3b10      	subs	r3, #16
10005442:	469c      	mov	ip, r3
10005444:	2300      	movs	r3, #0
10005446:	930f      	str	r3, [sp, #60]	@ 0x3c
10005448:	3310      	adds	r3, #16
1000544a:	930d      	str	r3, [sp, #52]	@ 0x34
1000544c:	e7b2      	b.n	100053b4 <_vsnprintf+0x534>
1000544e:	2380      	movs	r3, #128	@ 0x80
10005450:	011b      	lsls	r3, r3, #4
10005452:	431a      	orrs	r2, r3
10005454:	2320      	movs	r3, #32
10005456:	431a      	orrs	r2, r3
10005458:	e6a1      	b.n	1000519e <_vsnprintf+0x31e>
1000545a:	23c0      	movs	r3, #192	@ 0xc0
1000545c:	009b      	lsls	r3, r3, #2
1000545e:	431a      	orrs	r2, r3
10005460:	1cf3      	adds	r3, r6, #3
10005462:	4699      	mov	r9, r3
10005464:	78b0      	ldrb	r0, [r6, #2]
10005466:	e582      	b.n	10004f6e <_vsnprintf+0xee>
10005468:	23c0      	movs	r3, #192	@ 0xc0
1000546a:	431a      	orrs	r2, r3
1000546c:	1cf3      	adds	r3, r6, #3
1000546e:	4699      	mov	r9, r3
10005470:	78b0      	ldrb	r0, [r6, #2]
10005472:	e57c      	b.n	10004f6e <_vsnprintf+0xee>
10005474:	0035      	movs	r5, r6
10005476:	465e      	mov	r6, fp
10005478:	46bb      	mov	fp, r7
1000547a:	464f      	mov	r7, r9
1000547c:	e657      	b.n	1000512e <_vsnprintf+0x2ae>
1000547e:	4643      	mov	r3, r8
10005480:	2b01      	cmp	r3, #1
10005482:	d800      	bhi.n	10005486 <_vsnprintf+0x606>
10005484:	e163      	b.n	1000574e <_vsnprintf+0x8ce>
10005486:	1e63      	subs	r3, r4, #1
10005488:	4443      	add	r3, r8
1000548a:	469a      	mov	sl, r3
1000548c:	0033      	movs	r3, r6
1000548e:	46b9      	mov	r9, r7
10005490:	002e      	movs	r6, r5
10005492:	465f      	mov	r7, fp
10005494:	4655      	mov	r5, sl
10005496:	469b      	mov	fp, r3
10005498:	46a2      	mov	sl, r4
1000549a:	0022      	movs	r2, r4
1000549c:	464b      	mov	r3, r9
1000549e:	3401      	adds	r4, #1
100054a0:	0039      	movs	r1, r7
100054a2:	2020      	movs	r0, #32
100054a4:	47b0      	blx	r6
100054a6:	42ac      	cmp	r4, r5
100054a8:	d1f7      	bne.n	1000549a <_vsnprintf+0x61a>
100054aa:	0035      	movs	r5, r6
100054ac:	465e      	mov	r6, fp
100054ae:	46bb      	mov	fp, r7
100054b0:	464f      	mov	r7, r9
100054b2:	46a1      	mov	r9, r4
100054b4:	4654      	mov	r4, sl
100054b6:	9b0c      	ldr	r3, [sp, #48]	@ 0x30
100054b8:	464a      	mov	r2, r9
100054ba:	7818      	ldrb	r0, [r3, #0]
100054bc:	4659      	mov	r1, fp
100054be:	003b      	movs	r3, r7
100054c0:	4444      	add	r4, r8
100054c2:	47a8      	blx	r5
100054c4:	e6d7      	b.n	10005276 <_vsnprintf+0x3f6>
100054c6:	46a1      	mov	r9, r4
100054c8:	9b0f      	ldr	r3, [sp, #60]	@ 0x3c
100054ca:	4598      	cmp	r8, r3
100054cc:	d800      	bhi.n	100054d0 <_vsnprintf+0x650>
100054ce:	e632      	b.n	10005136 <_vsnprintf+0x2b6>
100054d0:	4444      	add	r4, r8
100054d2:	1ae4      	subs	r4, r4, r3
100054d4:	0033      	movs	r3, r6
100054d6:	46b8      	mov	r8, r7
100054d8:	002e      	movs	r6, r5
100054da:	465f      	mov	r7, fp
100054dc:	0025      	movs	r5, r4
100054de:	464c      	mov	r4, r9
100054e0:	4699      	mov	r9, r3
100054e2:	0022      	movs	r2, r4
100054e4:	4643      	mov	r3, r8
100054e6:	3401      	adds	r4, #1
100054e8:	0039      	movs	r1, r7
100054ea:	2020      	movs	r0, #32
100054ec:	47b0      	blx	r6
100054ee:	42ac      	cmp	r4, r5
100054f0:	d1f7      	bne.n	100054e2 <_vsnprintf+0x662>
100054f2:	002c      	movs	r4, r5
100054f4:	46bb      	mov	fp, r7
100054f6:	0035      	movs	r5, r6
100054f8:	4647      	mov	r7, r8
100054fa:	464e      	mov	r6, r9
100054fc:	e61b      	b.n	10005136 <_vsnprintf+0x2b6>
100054fe:	2380      	movs	r3, #128	@ 0x80
10005500:	0010      	movs	r0, r2
10005502:	00db      	lsls	r3, r3, #3
10005504:	4018      	ands	r0, r3
10005506:	421a      	tst	r2, r3
10005508:	d100      	bne.n	1000550c <_vsnprintf+0x68c>
1000550a:	e10f      	b.n	1000572c <_vsnprintf+0x8ac>
1000550c:	2111      	movs	r1, #17
1000550e:	0018      	movs	r0, r3
10005510:	438a      	bics	r2, r1
10005512:	920d      	str	r2, [sp, #52]	@ 0x34
10005514:	9a0d      	ldr	r2, [sp, #52]	@ 0x34
10005516:	2380      	movs	r3, #128	@ 0x80
10005518:	0011      	movs	r1, r2
1000551a:	009b      	lsls	r3, r3, #2
1000551c:	4019      	ands	r1, r3
1000551e:	468c      	mov	ip, r1
10005520:	421a      	tst	r2, r3
10005522:	d169      	bne.n	100055f8 <_vsnprintf+0x778>
10005524:	2380      	movs	r3, #128	@ 0x80
10005526:	0011      	movs	r1, r2
10005528:	005b      	lsls	r3, r3, #1
1000552a:	4019      	ands	r1, r3
1000552c:	4689      	mov	r9, r1
1000552e:	990c      	ldr	r1, [sp, #48]	@ 0x30
10005530:	3104      	adds	r1, #4
10005532:	910f      	str	r1, [sp, #60]	@ 0x3c
10005534:	421a      	tst	r2, r3
10005536:	d000      	beq.n	1000553a <_vsnprintf+0x6ba>
10005538:	e1ca      	b.n	100058d0 <_vsnprintf+0xa50>
1000553a:	0013      	movs	r3, r2
1000553c:	065b      	lsls	r3, r3, #25
1000553e:	d500      	bpl.n	10005542 <_vsnprintf+0x6c2>
10005540:	e0f0      	b.n	10005724 <_vsnprintf+0x8a4>
10005542:	0013      	movs	r3, r2
10005544:	061b      	lsls	r3, r3, #24
10005546:	d400      	bmi.n	1000554a <_vsnprintf+0x6ca>
10005548:	e259      	b.n	100059fe <_vsnprintf+0xb7e>
1000554a:	9b0c      	ldr	r3, [sp, #48]	@ 0x30
1000554c:	2200      	movs	r2, #0
1000554e:	5e9b      	ldrsh	r3, [r3, r2]
10005550:	17d9      	asrs	r1, r3, #31
10005552:	185a      	adds	r2, r3, r1
10005554:	404a      	eors	r2, r1
10005556:	b292      	uxth	r2, r2
10005558:	0fd9      	lsrs	r1, r3, #31
1000555a:	910c      	str	r1, [sp, #48]	@ 0x30
1000555c:	2b00      	cmp	r3, #0
1000555e:	d100      	bne.n	10005562 <_vsnprintf+0x6e2>
10005560:	e1f9      	b.n	10005956 <_vsnprintf+0xad6>
10005562:	0010      	movs	r0, r2
10005564:	aa14      	add	r2, sp, #80	@ 0x50
10005566:	4694      	mov	ip, r2
10005568:	4642      	mov	r2, r8
1000556a:	231f      	movs	r3, #31
1000556c:	9214      	str	r2, [sp, #80]	@ 0x50
1000556e:	4652      	mov	r2, sl
10005570:	4463      	add	r3, ip
10005572:	46a8      	mov	r8, r5
10005574:	9416      	str	r4, [sp, #88]	@ 0x58
10005576:	464d      	mov	r5, r9
10005578:	0004      	movs	r4, r0
1000557a:	46b9      	mov	r9, r7
1000557c:	46b2      	mov	sl, r6
1000557e:	001f      	movs	r7, r3
10005580:	9215      	str	r2, [sp, #84]	@ 0x54
10005582:	e001      	b.n	10005588 <_vsnprintf+0x708>
10005584:	2d20      	cmp	r5, #32
10005586:	d00f      	beq.n	100055a8 <_vsnprintf+0x728>
10005588:	0020      	movs	r0, r4
1000558a:	210a      	movs	r1, #10
1000558c:	f7fe fa50 	bl	10003a30 <__wrap___aeabi_uidiv>
10005590:	3501      	adds	r5, #1
10005592:	197e      	adds	r6, r7, r5
10005594:	3130      	adds	r1, #48	@ 0x30
10005596:	7031      	strb	r1, [r6, #0]
10005598:	0020      	movs	r0, r4
1000559a:	210a      	movs	r1, #10
1000559c:	f7fe fa48 	bl	10003a30 <__wrap___aeabi_uidiv>
100055a0:	0026      	movs	r6, r4
100055a2:	0004      	movs	r4, r0
100055a4:	2e09      	cmp	r6, #9
100055a6:	d8ed      	bhi.n	10005584 <_vsnprintf+0x704>
100055a8:	9b14      	ldr	r3, [sp, #80]	@ 0x50
100055aa:	464f      	mov	r7, r9
100055ac:	46a9      	mov	r9, r5
100055ae:	4645      	mov	r5, r8
100055b0:	4698      	mov	r8, r3
100055b2:	9b15      	ldr	r3, [sp, #84]	@ 0x54
100055b4:	4656      	mov	r6, sl
100055b6:	469a      	mov	sl, r3
100055b8:	9c16      	ldr	r4, [sp, #88]	@ 0x58
100055ba:	9b0d      	ldr	r3, [sp, #52]	@ 0x34
100055bc:	9306      	str	r3, [sp, #24]
100055be:	4643      	mov	r3, r8
100055c0:	9305      	str	r3, [sp, #20]
100055c2:	4653      	mov	r3, sl
100055c4:	9304      	str	r3, [sp, #16]
100055c6:	230a      	movs	r3, #10
100055c8:	9303      	str	r3, [sp, #12]
100055ca:	9b0c      	ldr	r3, [sp, #48]	@ 0x30
100055cc:	9302      	str	r3, [sp, #8]
100055ce:	464b      	mov	r3, r9
100055d0:	9301      	str	r3, [sp, #4]
100055d2:	ab1c      	add	r3, sp, #112	@ 0x70
100055d4:	0022      	movs	r2, r4
100055d6:	9300      	str	r3, [sp, #0]
100055d8:	4659      	mov	r1, fp
100055da:	003b      	movs	r3, r7
100055dc:	0028      	movs	r0, r5
100055de:	f7fe fe47 	bl	10004270 <_ntoa_format>
100055e2:	9b0f      	ldr	r3, [sp, #60]	@ 0x3c
100055e4:	0004      	movs	r4, r0
100055e6:	930c      	str	r3, [sp, #48]	@ 0x30
100055e8:	e472      	b.n	10004ed0 <_vsnprintf+0x50>
100055ea:	46c0      	nop			@ (mov r8, r8)
100055ec:	100041c1 	.word	0x100041c1
100055f0:	230c      	movs	r3, #12
100055f2:	439a      	bics	r2, r3
100055f4:	0010      	movs	r0, r2
100055f6:	e6e7      	b.n	100053c8 <_vsnprintf+0x548>
100055f8:	2207      	movs	r2, #7
100055fa:	9b0c      	ldr	r3, [sp, #48]	@ 0x30
100055fc:	3307      	adds	r3, #7
100055fe:	4393      	bics	r3, r2
10005600:	3201      	adds	r2, #1
10005602:	4694      	mov	ip, r2
10005604:	449c      	add	ip, r3
10005606:	4662      	mov	r2, ip
10005608:	920c      	str	r2, [sp, #48]	@ 0x30
1000560a:	cb0c      	ldmia	r3, {r2, r3}
1000560c:	0fd9      	lsrs	r1, r3, #31
1000560e:	910f      	str	r1, [sp, #60]	@ 0x3c
10005610:	0011      	movs	r1, r2
10005612:	4319      	orrs	r1, r3
10005614:	d100      	bne.n	10005618 <_vsnprintf+0x798>
10005616:	e091      	b.n	1000573c <_vsnprintf+0x8bc>
10005618:	17d9      	asrs	r1, r3, #31
1000561a:	9113      	str	r1, [sp, #76]	@ 0x4c
1000561c:	9112      	str	r1, [sp, #72]	@ 0x48
1000561e:	4051      	eors	r1, r2
10005620:	9110      	str	r1, [sp, #64]	@ 0x40
10005622:	9913      	ldr	r1, [sp, #76]	@ 0x4c
10005624:	4059      	eors	r1, r3
10005626:	9111      	str	r1, [sp, #68]	@ 0x44
10005628:	9810      	ldr	r0, [sp, #64]	@ 0x40
1000562a:	9911      	ldr	r1, [sp, #68]	@ 0x44
1000562c:	9a12      	ldr	r2, [sp, #72]	@ 0x48
1000562e:	9b13      	ldr	r3, [sp, #76]	@ 0x4c
10005630:	1a80      	subs	r0, r0, r2
10005632:	4199      	sbcs	r1, r3
10005634:	9010      	str	r0, [sp, #64]	@ 0x40
10005636:	9111      	str	r1, [sp, #68]	@ 0x44
10005638:	aa14      	add	r2, sp, #80	@ 0x50
1000563a:	2300      	movs	r3, #0
1000563c:	4694      	mov	ip, r2
1000563e:	4642      	mov	r2, r8
10005640:	4699      	mov	r9, r3
10005642:	9214      	str	r2, [sp, #80]	@ 0x50
10005644:	4652      	mov	r2, sl
10005646:	331f      	adds	r3, #31
10005648:	4463      	add	r3, ip
1000564a:	46a8      	mov	r8, r5
1000564c:	46b2      	mov	sl, r6
1000564e:	9416      	str	r4, [sp, #88]	@ 0x58
10005650:	464e      	mov	r6, r9
10005652:	9c10      	ldr	r4, [sp, #64]	@ 0x40
10005654:	9d11      	ldr	r5, [sp, #68]	@ 0x44
10005656:	46b9      	mov	r9, r7
10005658:	9215      	str	r2, [sp, #84]	@ 0x54
1000565a:	001f      	movs	r7, r3
1000565c:	e001      	b.n	10005662 <_vsnprintf+0x7e2>
1000565e:	2e20      	cmp	r6, #32
10005660:	d010      	beq.n	10005684 <_vsnprintf+0x804>
10005662:	0020      	movs	r0, r4
10005664:	0029      	movs	r1, r5
10005666:	220a      	movs	r2, #10
10005668:	2300      	movs	r3, #0
1000566a:	f7fe fa1f 	bl	10003aac <__wrap___aeabi_uldivmod>
1000566e:	3601      	adds	r6, #1
10005670:	3230      	adds	r2, #48	@ 0x30
10005672:	002b      	movs	r3, r5
10005674:	55ba      	strb	r2, [r7, r6]
10005676:	000d      	movs	r5, r1
10005678:	0022      	movs	r2, r4
1000567a:	0004      	movs	r4, r0
1000567c:	2b00      	cmp	r3, #0
1000567e:	d1ee      	bne.n	1000565e <_vsnprintf+0x7de>
10005680:	2a09      	cmp	r2, #9
10005682:	d8ec      	bhi.n	1000565e <_vsnprintf+0x7de>
10005684:	9b14      	ldr	r3, [sp, #80]	@ 0x50
10005686:	9410      	str	r4, [sp, #64]	@ 0x40
10005688:	9511      	str	r5, [sp, #68]	@ 0x44
1000568a:	4645      	mov	r5, r8
1000568c:	4698      	mov	r8, r3
1000568e:	9b15      	ldr	r3, [sp, #84]	@ 0x54
10005690:	464f      	mov	r7, r9
10005692:	46b1      	mov	r9, r6
10005694:	4656      	mov	r6, sl
10005696:	469a      	mov	sl, r3
10005698:	9c16      	ldr	r4, [sp, #88]	@ 0x58
1000569a:	9b0d      	ldr	r3, [sp, #52]	@ 0x34
1000569c:	9306      	str	r3, [sp, #24]
1000569e:	4643      	mov	r3, r8
100056a0:	9305      	str	r3, [sp, #20]
100056a2:	4653      	mov	r3, sl
100056a4:	9304      	str	r3, [sp, #16]
100056a6:	230a      	movs	r3, #10
100056a8:	9303      	str	r3, [sp, #12]
100056aa:	9b0f      	ldr	r3, [sp, #60]	@ 0x3c
100056ac:	9302      	str	r3, [sp, #8]
100056ae:	464b      	mov	r3, r9
100056b0:	9301      	str	r3, [sp, #4]
100056b2:	ab1c      	add	r3, sp, #112	@ 0x70
100056b4:	0022      	movs	r2, r4
100056b6:	9300      	str	r3, [sp, #0]
100056b8:	4659      	mov	r1, fp
100056ba:	003b      	movs	r3, r7
100056bc:	0028      	movs	r0, r5
100056be:	f7fe fdd7 	bl	10004270 <_ntoa_format>
100056c2:	0004      	movs	r4, r0
100056c4:	f7ff fc04 	bl	10004ed0 <_vsnprintf+0x50>
100056c8:	9b0f      	ldr	r3, [sp, #60]	@ 0x3c
100056ca:	4598      	cmp	r8, r3
100056cc:	d800      	bhi.n	100056d0 <_vsnprintf+0x850>
100056ce:	e1c1      	b.n	10005a54 <_vsnprintf+0xbd4>
100056d0:	2380      	movs	r3, #128	@ 0x80
100056d2:	00db      	lsls	r3, r3, #3
100056d4:	930d      	str	r3, [sp, #52]	@ 0x34
100056d6:	4643      	mov	r3, r8
100056d8:	9a0f      	ldr	r2, [sp, #60]	@ 0x3c
100056da:	191b      	adds	r3, r3, r4
100056dc:	1a9b      	subs	r3, r3, r2
100056de:	4699      	mov	r9, r3
100056e0:	0033      	movs	r3, r6
100056e2:	002e      	movs	r6, r5
100056e4:	464d      	mov	r5, r9
100056e6:	46b9      	mov	r9, r7
100056e8:	465f      	mov	r7, fp
100056ea:	469b      	mov	fp, r3
100056ec:	910c      	str	r1, [sp, #48]	@ 0x30
100056ee:	0022      	movs	r2, r4
100056f0:	464b      	mov	r3, r9
100056f2:	3401      	adds	r4, #1
100056f4:	0039      	movs	r1, r7
100056f6:	2020      	movs	r0, #32
100056f8:	47b0      	blx	r6
100056fa:	42ac      	cmp	r4, r5
100056fc:	d1f7      	bne.n	100056ee <_vsnprintf+0x86e>
100056fe:	4643      	mov	r3, r8
10005700:	990c      	ldr	r1, [sp, #48]	@ 0x30
10005702:	3301      	adds	r3, #1
10005704:	930f      	str	r3, [sp, #60]	@ 0x3c
10005706:	780b      	ldrb	r3, [r1, #0]
10005708:	0035      	movs	r5, r6
1000570a:	930c      	str	r3, [sp, #48]	@ 0x30
1000570c:	465e      	mov	r6, fp
1000570e:	46bb      	mov	fp, r7
10005710:	464f      	mov	r7, r9
10005712:	2b00      	cmp	r3, #0
10005714:	d100      	bne.n	10005718 <_vsnprintf+0x898>
10005716:	e50e      	b.n	10005136 <_vsnprintf+0x2b6>
10005718:	9b0d      	ldr	r3, [sp, #52]	@ 0x34
1000571a:	2b00      	cmp	r3, #0
1000571c:	d100      	bne.n	10005720 <_vsnprintf+0x8a0>
1000571e:	e4f6      	b.n	1000510e <_vsnprintf+0x28e>
10005720:	2300      	movs	r3, #0
10005722:	e619      	b.n	10005358 <_vsnprintf+0x4d8>
10005724:	9b0c      	ldr	r3, [sp, #48]	@ 0x30
10005726:	781b      	ldrb	r3, [r3, #0]
10005728:	001a      	movs	r2, r3
1000572a:	e715      	b.n	10005558 <_vsnprintf+0x6d8>
1000572c:	2310      	movs	r3, #16
1000572e:	439a      	bics	r2, r3
10005730:	920d      	str	r2, [sp, #52]	@ 0x34
10005732:	e6ef      	b.n	10005514 <_vsnprintf+0x694>
10005734:	9b0c      	ldr	r3, [sp, #48]	@ 0x30
10005736:	781b      	ldrb	r3, [r3, #0]
10005738:	9309      	str	r3, [sp, #36]	@ 0x24
1000573a:	e661      	b.n	10005400 <_vsnprintf+0x580>
1000573c:	2300      	movs	r3, #0
1000573e:	4699      	mov	r9, r3
10005740:	2800      	cmp	r0, #0
10005742:	d1aa      	bne.n	1000569a <_vsnprintf+0x81a>
10005744:	2200      	movs	r2, #0
10005746:	2300      	movs	r3, #0
10005748:	9210      	str	r2, [sp, #64]	@ 0x40
1000574a:	9311      	str	r3, [sp, #68]	@ 0x44
1000574c:	e774      	b.n	10005638 <_vsnprintf+0x7b8>
1000574e:	9b0c      	ldr	r3, [sp, #48]	@ 0x30
10005750:	0022      	movs	r2, r4
10005752:	7818      	ldrb	r0, [r3, #0]
10005754:	4659      	mov	r1, fp
10005756:	003b      	movs	r3, r7
10005758:	47a8      	blx	r5
1000575a:	464c      	mov	r4, r9
1000575c:	e58b      	b.n	10005276 <_vsnprintf+0x3f6>
1000575e:	9a0c      	ldr	r2, [sp, #48]	@ 0x30
10005760:	3bfa      	subs	r3, #250	@ 0xfa
10005762:	3bff      	subs	r3, #255	@ 0xff
10005764:	3207      	adds	r2, #7
10005766:	439a      	bics	r2, r3
10005768:	3301      	adds	r3, #1
1000576a:	4699      	mov	r9, r3
1000576c:	4491      	add	r9, r2
1000576e:	464b      	mov	r3, r9
10005770:	930c      	str	r3, [sp, #48]	@ 0x30
10005772:	6813      	ldr	r3, [r2, #0]
10005774:	6852      	ldr	r2, [r2, #4]
10005776:	9215      	str	r2, [sp, #84]	@ 0x54
10005778:	431a      	orrs	r2, r3
1000577a:	d106      	bne.n	1000578a <_vsnprintf+0x90a>
1000577c:	3210      	adds	r2, #16
1000577e:	4390      	bics	r0, r2
10005780:	2200      	movs	r2, #0
10005782:	9209      	str	r2, [sp, #36]	@ 0x24
10005784:	2900      	cmp	r1, #0
10005786:	d000      	beq.n	1000578a <_vsnprintf+0x90a>
10005788:	e081      	b.n	1000588e <_vsnprintf+0xa0e>
1000578a:	2261      	movs	r2, #97	@ 0x61
1000578c:	0681      	lsls	r1, r0, #26
1000578e:	d500      	bpl.n	10005792 <_vsnprintf+0x912>
10005790:	2241      	movs	r2, #65	@ 0x41
10005792:	b2d2      	uxtb	r2, r2
10005794:	920a      	str	r2, [sp, #40]	@ 0x28
10005796:	aa14      	add	r2, sp, #80	@ 0x50
10005798:	4691      	mov	r9, r2
1000579a:	9a0a      	ldr	r2, [sp, #40]	@ 0x28
1000579c:	2100      	movs	r1, #0
1000579e:	3a0a      	subs	r2, #10
100057a0:	9214      	str	r2, [sp, #80]	@ 0x50
100057a2:	4642      	mov	r2, r8
100057a4:	9217      	str	r2, [sp, #92]	@ 0x5c
100057a6:	4652      	mov	r2, sl
100057a8:	9218      	str	r2, [sp, #96]	@ 0x60
100057aa:	465a      	mov	r2, fp
100057ac:	9109      	str	r1, [sp, #36]	@ 0x24
100057ae:	46b3      	mov	fp, r6
100057b0:	311f      	adds	r1, #31
100057b2:	001e      	movs	r6, r3
100057b4:	9b0f      	ldr	r3, [sp, #60]	@ 0x3c
100057b6:	4449      	add	r1, r9
100057b8:	46ba      	mov	sl, r7
100057ba:	9419      	str	r4, [sp, #100]	@ 0x64
100057bc:	951a      	str	r5, [sp, #104]	@ 0x68
100057be:	2400      	movs	r4, #0
100057c0:	4667      	mov	r7, ip
100057c2:	4698      	mov	r8, r3
100057c4:	4689      	mov	r9, r1
100057c6:	9d15      	ldr	r5, [sp, #84]	@ 0x54
100057c8:	9016      	str	r0, [sp, #88]	@ 0x58
100057ca:	921b      	str	r2, [sp, #108]	@ 0x6c
100057cc:	e00a      	b.n	100057e4 <_vsnprintf+0x964>
100057ce:	3230      	adds	r2, #48	@ 0x30
100057d0:	b2d2      	uxtb	r2, r2
100057d2:	464b      	mov	r3, r9
100057d4:	3401      	adds	r4, #1
100057d6:	551a      	strb	r2, [r3, r4]
100057d8:	45a8      	cmp	r8, r5
100057da:	d04a      	beq.n	10005872 <_vsnprintf+0x9f2>
100057dc:	2c20      	cmp	r4, #32
100057de:	d04a      	beq.n	10005876 <_vsnprintf+0x9f6>
100057e0:	0006      	movs	r6, r0
100057e2:	000d      	movs	r5, r1
100057e4:	003a      	movs	r2, r7
100057e6:	2300      	movs	r3, #0
100057e8:	0030      	movs	r0, r6
100057ea:	0029      	movs	r1, r5
100057ec:	f7fe f95e 	bl	10003aac <__wrap___aeabi_uldivmod>
100057f0:	b2d2      	uxtb	r2, r2
100057f2:	2a09      	cmp	r2, #9
100057f4:	d9eb      	bls.n	100057ce <_vsnprintf+0x94e>
100057f6:	9b14      	ldr	r3, [sp, #80]	@ 0x50
100057f8:	469c      	mov	ip, r3
100057fa:	4462      	add	r2, ip
100057fc:	b2d2      	uxtb	r2, r2
100057fe:	e7e8      	b.n	100057d2 <_vsnprintf+0x952>
10005800:	2361      	movs	r3, #97	@ 0x61
10005802:	0682      	lsls	r2, r0, #26
10005804:	d500      	bpl.n	10005808 <_vsnprintf+0x988>
10005806:	2341      	movs	r3, #65	@ 0x41
10005808:	b2db      	uxtb	r3, r3
1000580a:	3b0a      	subs	r3, #10
1000580c:	930c      	str	r3, [sp, #48]	@ 0x30
1000580e:	4643      	mov	r3, r8
10005810:	a914      	add	r1, sp, #80	@ 0x50
10005812:	221f      	movs	r2, #31
10005814:	468c      	mov	ip, r1
10005816:	9315      	str	r3, [sp, #84]	@ 0x54
10005818:	4653      	mov	r3, sl
1000581a:	4462      	add	r2, ip
1000581c:	46a0      	mov	r8, r4
1000581e:	46b2      	mov	sl, r6
10005820:	464c      	mov	r4, r9
10005822:	9717      	str	r7, [sp, #92]	@ 0x5c
10005824:	46a9      	mov	r9, r5
10005826:	0017      	movs	r7, r2
10005828:	9d09      	ldr	r5, [sp, #36]	@ 0x24
1000582a:	9e0d      	ldr	r6, [sp, #52]	@ 0x34
1000582c:	9014      	str	r0, [sp, #80]	@ 0x50
1000582e:	9316      	str	r3, [sp, #88]	@ 0x58
10005830:	e008      	b.n	10005844 <_vsnprintf+0x9c4>
10005832:	3330      	adds	r3, #48	@ 0x30
10005834:	b2db      	uxtb	r3, r3
10005836:	3401      	adds	r4, #1
10005838:	553b      	strb	r3, [r7, r4]
1000583a:	42b5      	cmp	r5, r6
1000583c:	d30e      	bcc.n	1000585c <_vsnprintf+0x9dc>
1000583e:	2c20      	cmp	r4, #32
10005840:	d00c      	beq.n	1000585c <_vsnprintf+0x9dc>
10005842:	0005      	movs	r5, r0
10005844:	0031      	movs	r1, r6
10005846:	0028      	movs	r0, r5
10005848:	f7fe f8f2 	bl	10003a30 <__wrap___aeabi_uidiv>
1000584c:	b2cb      	uxtb	r3, r1
1000584e:	2909      	cmp	r1, #9
10005850:	d9ef      	bls.n	10005832 <_vsnprintf+0x9b2>
10005852:	9a0c      	ldr	r2, [sp, #48]	@ 0x30
10005854:	4694      	mov	ip, r2
10005856:	4463      	add	r3, ip
10005858:	b2db      	uxtb	r3, r3
1000585a:	e7ec      	b.n	10005836 <_vsnprintf+0x9b6>
1000585c:	9b15      	ldr	r3, [sp, #84]	@ 0x54
1000585e:	464d      	mov	r5, r9
10005860:	46a1      	mov	r9, r4
10005862:	4644      	mov	r4, r8
10005864:	4698      	mov	r8, r3
10005866:	9b16      	ldr	r3, [sp, #88]	@ 0x58
10005868:	4656      	mov	r6, sl
1000586a:	9814      	ldr	r0, [sp, #80]	@ 0x50
1000586c:	469a      	mov	sl, r3
1000586e:	9f17      	ldr	r7, [sp, #92]	@ 0x5c
10005870:	e5d0      	b.n	10005414 <_vsnprintf+0x594>
10005872:	42b7      	cmp	r7, r6
10005874:	d9b2      	bls.n	100057dc <_vsnprintf+0x95c>
10005876:	9b17      	ldr	r3, [sp, #92]	@ 0x5c
10005878:	4657      	mov	r7, sl
1000587a:	4698      	mov	r8, r3
1000587c:	9b18      	ldr	r3, [sp, #96]	@ 0x60
1000587e:	465e      	mov	r6, fp
10005880:	469a      	mov	sl, r3
10005882:	9b1b      	ldr	r3, [sp, #108]	@ 0x6c
10005884:	9409      	str	r4, [sp, #36]	@ 0x24
10005886:	469b      	mov	fp, r3
10005888:	9816      	ldr	r0, [sp, #88]	@ 0x58
1000588a:	9c19      	ldr	r4, [sp, #100]	@ 0x64
1000588c:	9d1a      	ldr	r5, [sp, #104]	@ 0x68
1000588e:	4643      	mov	r3, r8
10005890:	9305      	str	r3, [sp, #20]
10005892:	4653      	mov	r3, sl
10005894:	9304      	str	r3, [sp, #16]
10005896:	9b0d      	ldr	r3, [sp, #52]	@ 0x34
10005898:	9006      	str	r0, [sp, #24]
1000589a:	9303      	str	r3, [sp, #12]
1000589c:	2300      	movs	r3, #0
1000589e:	9302      	str	r3, [sp, #8]
100058a0:	9b09      	ldr	r3, [sp, #36]	@ 0x24
100058a2:	e705      	b.n	100056b0 <_vsnprintf+0x830>
100058a4:	9b0f      	ldr	r3, [sp, #60]	@ 0x3c
100058a6:	4598      	cmp	r8, r3
100058a8:	d900      	bls.n	100058ac <_vsnprintf+0xa2c>
100058aa:	e714      	b.n	100056d6 <_vsnprintf+0x856>
100058ac:	3301      	adds	r3, #1
100058ae:	930f      	str	r3, [sp, #60]	@ 0x3c
100058b0:	e42d      	b.n	1000510e <_vsnprintf+0x28e>
100058b2:	2310      	movs	r3, #16
100058b4:	0011      	movs	r1, r2
100058b6:	4399      	bics	r1, r3
100058b8:	910d      	str	r1, [sp, #52]	@ 0x34
100058ba:	2869      	cmp	r0, #105	@ 0x69
100058bc:	d000      	beq.n	100058c0 <_vsnprintf+0xa40>
100058be:	e0ba      	b.n	10005a36 <_vsnprintf+0xbb6>
100058c0:	2380      	movs	r3, #128	@ 0x80
100058c2:	0010      	movs	r0, r2
100058c4:	00db      	lsls	r3, r3, #3
100058c6:	4018      	ands	r0, r3
100058c8:	421a      	tst	r2, r3
100058ca:	d100      	bne.n	100058ce <_vsnprintf+0xa4e>
100058cc:	e622      	b.n	10005514 <_vsnprintf+0x694>
100058ce:	e61d      	b.n	1000550c <_vsnprintf+0x68c>
100058d0:	9b0c      	ldr	r3, [sp, #48]	@ 0x30
100058d2:	681b      	ldr	r3, [r3, #0]
100058d4:	0fda      	lsrs	r2, r3, #31
100058d6:	0011      	movs	r1, r2
100058d8:	2b00      	cmp	r3, #0
100058da:	d100      	bne.n	100058de <_vsnprintf+0xa5e>
100058dc:	e08c      	b.n	100059f8 <_vsnprintf+0xb78>
100058de:	17da      	asrs	r2, r3, #31
100058e0:	1898      	adds	r0, r3, r2
100058e2:	4050      	eors	r0, r2
100058e4:	aa14      	add	r2, sp, #80	@ 0x50
100058e6:	4691      	mov	r9, r2
100058e8:	4642      	mov	r2, r8
100058ea:	231f      	movs	r3, #31
100058ec:	9214      	str	r2, [sp, #80]	@ 0x50
100058ee:	4652      	mov	r2, sl
100058f0:	444b      	add	r3, r9
100058f2:	46a0      	mov	r8, r4
100058f4:	46a9      	mov	r9, r5
100058f6:	9716      	str	r7, [sp, #88]	@ 0x58
100058f8:	0004      	movs	r4, r0
100058fa:	4665      	mov	r5, ip
100058fc:	46b2      	mov	sl, r6
100058fe:	001f      	movs	r7, r3
10005900:	910c      	str	r1, [sp, #48]	@ 0x30
10005902:	9215      	str	r2, [sp, #84]	@ 0x54
10005904:	e001      	b.n	1000590a <_vsnprintf+0xa8a>
10005906:	2d20      	cmp	r5, #32
10005908:	d00f      	beq.n	1000592a <_vsnprintf+0xaaa>
1000590a:	0020      	movs	r0, r4
1000590c:	210a      	movs	r1, #10
1000590e:	f7fe f88f 	bl	10003a30 <__wrap___aeabi_uidiv>
10005912:	3501      	adds	r5, #1
10005914:	197e      	adds	r6, r7, r5
10005916:	3130      	adds	r1, #48	@ 0x30
10005918:	7031      	strb	r1, [r6, #0]
1000591a:	0020      	movs	r0, r4
1000591c:	210a      	movs	r1, #10
1000591e:	f7fe f887 	bl	10003a30 <__wrap___aeabi_uidiv>
10005922:	0026      	movs	r6, r4
10005924:	0004      	movs	r4, r0
10005926:	2e09      	cmp	r6, #9
10005928:	d8ed      	bhi.n	10005906 <_vsnprintf+0xa86>
1000592a:	9b14      	ldr	r3, [sp, #80]	@ 0x50
1000592c:	4644      	mov	r4, r8
1000592e:	4698      	mov	r8, r3
10005930:	9b0c      	ldr	r3, [sp, #48]	@ 0x30
10005932:	46ac      	mov	ip, r5
10005934:	0019      	movs	r1, r3
10005936:	9b15      	ldr	r3, [sp, #84]	@ 0x54
10005938:	4656      	mov	r6, sl
1000593a:	464d      	mov	r5, r9
1000593c:	469a      	mov	sl, r3
1000593e:	9f16      	ldr	r7, [sp, #88]	@ 0x58
10005940:	9b0d      	ldr	r3, [sp, #52]	@ 0x34
10005942:	9102      	str	r1, [sp, #8]
10005944:	9306      	str	r3, [sp, #24]
10005946:	4643      	mov	r3, r8
10005948:	9305      	str	r3, [sp, #20]
1000594a:	4653      	mov	r3, sl
1000594c:	9304      	str	r3, [sp, #16]
1000594e:	230a      	movs	r3, #10
10005950:	9303      	str	r3, [sp, #12]
10005952:	4663      	mov	r3, ip
10005954:	e63c      	b.n	100055d0 <_vsnprintf+0x750>
10005956:	2800      	cmp	r0, #0
10005958:	d000      	beq.n	1000595c <_vsnprintf+0xadc>
1000595a:	e62e      	b.n	100055ba <_vsnprintf+0x73a>
1000595c:	e602      	b.n	10005564 <_vsnprintf+0x6e4>
1000595e:	9b0c      	ldr	r3, [sp, #48]	@ 0x30
10005960:	681b      	ldr	r3, [r3, #0]
10005962:	4699      	mov	r9, r3
10005964:	2b00      	cmp	r3, #0
10005966:	d103      	bne.n	10005970 <_vsnprintf+0xaf0>
10005968:	3310      	adds	r3, #16
1000596a:	4398      	bics	r0, r3
1000596c:	2900      	cmp	r1, #0
1000596e:	d138      	bne.n	100059e2 <_vsnprintf+0xb62>
10005970:	2361      	movs	r3, #97	@ 0x61
10005972:	0682      	lsls	r2, r0, #26
10005974:	d500      	bpl.n	10005978 <_vsnprintf+0xaf8>
10005976:	2341      	movs	r3, #65	@ 0x41
10005978:	b2db      	uxtb	r3, r3
1000597a:	3b0a      	subs	r3, #10
1000597c:	930c      	str	r3, [sp, #48]	@ 0x30
1000597e:	4643      	mov	r3, r8
10005980:	9316      	str	r3, [sp, #88]	@ 0x58
10005982:	4653      	mov	r3, sl
10005984:	a914      	add	r1, sp, #80	@ 0x50
10005986:	221f      	movs	r2, #31
10005988:	468c      	mov	ip, r1
1000598a:	9317      	str	r3, [sp, #92]	@ 0x5c
1000598c:	002b      	movs	r3, r5
1000598e:	4462      	add	r2, ip
10005990:	46a0      	mov	r8, r4
10005992:	464d      	mov	r5, r9
10005994:	46b2      	mov	sl, r6
10005996:	9718      	str	r7, [sp, #96]	@ 0x60
10005998:	4699      	mov	r9, r3
1000599a:	0017      	movs	r7, r2
1000599c:	9c14      	ldr	r4, [sp, #80]	@ 0x50
1000599e:	9e0d      	ldr	r6, [sp, #52]	@ 0x34
100059a0:	9015      	str	r0, [sp, #84]	@ 0x54
100059a2:	e008      	b.n	100059b6 <_vsnprintf+0xb36>
100059a4:	3330      	adds	r3, #48	@ 0x30
100059a6:	b2db      	uxtb	r3, r3
100059a8:	3401      	adds	r4, #1
100059aa:	553b      	strb	r3, [r7, r4]
100059ac:	42b5      	cmp	r5, r6
100059ae:	d30e      	bcc.n	100059ce <_vsnprintf+0xb4e>
100059b0:	2c20      	cmp	r4, #32
100059b2:	d00c      	beq.n	100059ce <_vsnprintf+0xb4e>
100059b4:	0005      	movs	r5, r0
100059b6:	0031      	movs	r1, r6
100059b8:	0028      	movs	r0, r5
100059ba:	f7fe f839 	bl	10003a30 <__wrap___aeabi_uidiv>
100059be:	b2cb      	uxtb	r3, r1
100059c0:	2909      	cmp	r1, #9
100059c2:	d9ef      	bls.n	100059a4 <_vsnprintf+0xb24>
100059c4:	9a0c      	ldr	r2, [sp, #48]	@ 0x30
100059c6:	4694      	mov	ip, r2
100059c8:	4463      	add	r3, ip
100059ca:	b2db      	uxtb	r3, r3
100059cc:	e7ec      	b.n	100059a8 <_vsnprintf+0xb28>
100059ce:	9b16      	ldr	r3, [sp, #88]	@ 0x58
100059d0:	9414      	str	r4, [sp, #80]	@ 0x50
100059d2:	4644      	mov	r4, r8
100059d4:	4698      	mov	r8, r3
100059d6:	9b17      	ldr	r3, [sp, #92]	@ 0x5c
100059d8:	4656      	mov	r6, sl
100059da:	464d      	mov	r5, r9
100059dc:	469a      	mov	sl, r3
100059de:	9815      	ldr	r0, [sp, #84]	@ 0x54
100059e0:	9f18      	ldr	r7, [sp, #96]	@ 0x60
100059e2:	4643      	mov	r3, r8
100059e4:	9305      	str	r3, [sp, #20]
100059e6:	4653      	mov	r3, sl
100059e8:	9304      	str	r3, [sp, #16]
100059ea:	9b0d      	ldr	r3, [sp, #52]	@ 0x34
100059ec:	9006      	str	r0, [sp, #24]
100059ee:	9303      	str	r3, [sp, #12]
100059f0:	2300      	movs	r3, #0
100059f2:	9302      	str	r3, [sp, #8]
100059f4:	9b14      	ldr	r3, [sp, #80]	@ 0x50
100059f6:	e5eb      	b.n	100055d0 <_vsnprintf+0x750>
100059f8:	2800      	cmp	r0, #0
100059fa:	d1a1      	bne.n	10005940 <_vsnprintf+0xac0>
100059fc:	e772      	b.n	100058e4 <_vsnprintf+0xa64>
100059fe:	9b0c      	ldr	r3, [sp, #48]	@ 0x30
10005a00:	681b      	ldr	r3, [r3, #0]
10005a02:	17d9      	asrs	r1, r3, #31
10005a04:	185a      	adds	r2, r3, r1
10005a06:	404a      	eors	r2, r1
10005a08:	e5a6      	b.n	10005558 <_vsnprintf+0x6d8>
10005a0a:	2380      	movs	r3, #128	@ 0x80
10005a0c:	0010      	movs	r0, r2
10005a0e:	00db      	lsls	r3, r3, #3
10005a10:	4018      	ands	r0, r3
10005a12:	469c      	mov	ip, r3
10005a14:	900f      	str	r0, [sp, #60]	@ 0x3c
10005a16:	421a      	tst	r2, r3
10005a18:	d00f      	beq.n	10005a3a <_vsnprintf+0xbba>
10005a1a:	2002      	movs	r0, #2
10005a1c:	0003      	movs	r3, r0
10005a1e:	4013      	ands	r3, r2
10005a20:	930f      	str	r3, [sp, #60]	@ 0x3c
10005a22:	4210      	tst	r0, r2
10005a24:	d019      	beq.n	10005a5a <_vsnprintf+0xbda>
10005a26:	2300      	movs	r3, #0
10005a28:	46a1      	mov	r9, r4
10005a2a:	930f      	str	r3, [sp, #60]	@ 0x3c
10005a2c:	e54c      	b.n	100054c8 <_vsnprintf+0x648>
10005a2e:	9b0c      	ldr	r3, [sp, #48]	@ 0x30
10005a30:	681b      	ldr	r3, [r3, #0]
10005a32:	9309      	str	r3, [sp, #36]	@ 0x24
10005a34:	e4e4      	b.n	10005400 <_vsnprintf+0x580>
10005a36:	000a      	movs	r2, r1
10005a38:	e434      	b.n	100052a4 <_vsnprintf+0x424>
10005a3a:	2302      	movs	r3, #2
10005a3c:	0018      	movs	r0, r3
10005a3e:	4010      	ands	r0, r2
10005a40:	900d      	str	r0, [sp, #52]	@ 0x34
10005a42:	4213      	tst	r3, r2
10005a44:	d000      	beq.n	10005a48 <_vsnprintf+0xbc8>
10005a46:	e53e      	b.n	100054c6 <_vsnprintf+0x646>
10005a48:	4643      	mov	r3, r8
10005a4a:	2b00      	cmp	r3, #0
10005a4c:	d000      	beq.n	10005a50 <_vsnprintf+0xbd0>
10005a4e:	e642      	b.n	100056d6 <_vsnprintf+0x856>
10005a50:	f7ff fb71 	bl	10005136 <_vsnprintf+0x2b6>
10005a54:	3301      	adds	r3, #1
10005a56:	930f      	str	r3, [sp, #60]	@ 0x3c
10005a58:	e47f      	b.n	1000535a <_vsnprintf+0x4da>
10005a5a:	4663      	mov	r3, ip
10005a5c:	930d      	str	r3, [sp, #52]	@ 0x34
10005a5e:	e7f3      	b.n	10005a48 <_vsnprintf+0xbc8>

10005a60 <vfctprintf>:
10005a60:	b510      	push	{r4, lr}
10005a62:	000c      	movs	r4, r1
10005a64:	b084      	sub	sp, #16
10005a66:	9403      	str	r4, [sp, #12]
10005a68:	2401      	movs	r4, #1
10005a6a:	a902      	add	r1, sp, #8
10005a6c:	9002      	str	r0, [sp, #8]
10005a6e:	9300      	str	r3, [sp, #0]
10005a70:	4803      	ldr	r0, [pc, #12]	@ (10005a80 <vfctprintf+0x20>)
10005a72:	0013      	movs	r3, r2
10005a74:	4262      	negs	r2, r4
10005a76:	f7ff fa03 	bl	10004e80 <_vsnprintf>
10005a7a:	b004      	add	sp, #16
10005a7c:	bd10      	pop	{r4, pc}
10005a7e:	46c0      	nop			@ (mov r8, r8)
10005a80:	1000444d 	.word	0x1000444d

10005a84 <weak_raw_vprintf>:
10005a84:	b510      	push	{r4, lr}
10005a86:	4a09      	ldr	r2, [pc, #36]	@ (10005aac <weak_raw_vprintf+0x28>)
10005a88:	0003      	movs	r3, r0
10005a8a:	6814      	ldr	r4, [r2, #0]
10005a8c:	b084      	sub	sp, #16
10005a8e:	2c00      	cmp	r4, #0
10005a90:	d008      	beq.n	10005aa4 <weak_raw_vprintf+0x20>
10005a92:	2201      	movs	r2, #1
10005a94:	9100      	str	r1, [sp, #0]
10005a96:	4806      	ldr	r0, [pc, #24]	@ (10005ab0 <weak_raw_vprintf+0x2c>)
10005a98:	4252      	negs	r2, r2
10005a9a:	a903      	add	r1, sp, #12
10005a9c:	47a0      	blx	r4
10005a9e:	2001      	movs	r0, #1
10005aa0:	b004      	add	sp, #16
10005aa2:	bd10      	pop	{r4, pc}
10005aa4:	f000 f99a 	bl	10005ddc <__wrap_puts>
10005aa8:	2000      	movs	r0, #0
10005aaa:	e7f9      	b.n	10005aa0 <weak_raw_vprintf+0x1c>
10005aac:	20000b18 	.word	0x20000b18
10005ab0:	1000443d 	.word	0x1000443d

10005ab4 <_exit>:
10005ab4:	be00      	bkpt	0x0000
10005ab6:	e7fd      	b.n	10005ab4 <_exit>

10005ab8 <exit>:
10005ab8:	b510      	push	{r4, lr}
10005aba:	f7ff fffb 	bl	10005ab4 <_exit>
10005abe:	46c0      	nop			@ (mov r8, r8)

10005ac0 <runtime_init>:
10005ac0:	b570      	push	{r4, r5, r6, lr}
10005ac2:	f7fd fe69 	bl	10003798 <runtime_run_initializers>
10005ac6:	4d07      	ldr	r5, [pc, #28]	@ (10005ae4 <runtime_init+0x24>)
10005ac8:	4e07      	ldr	r6, [pc, #28]	@ (10005ae8 <runtime_init+0x28>)
10005aca:	42b5      	cmp	r5, r6
10005acc:	d209      	bcs.n	10005ae2 <runtime_init+0x22>
10005ace:	2400      	movs	r4, #0
10005ad0:	3e01      	subs	r6, #1
10005ad2:	1b76      	subs	r6, r6, r5
10005ad4:	08b6      	lsrs	r6, r6, #2
10005ad6:	cd08      	ldmia	r5!, {r3}
10005ad8:	4798      	blx	r3
10005ada:	0023      	movs	r3, r4
10005adc:	3401      	adds	r4, #1
10005ade:	42b3      	cmp	r3, r6
10005ae0:	d1f9      	bne.n	10005ad6 <runtime_init+0x16>
10005ae2:	bd70      	pop	{r4, r5, r6, pc}
10005ae4:	1000626c 	.word	0x1000626c
10005ae8:	10006278 	.word	0x10006278

10005aec <stdio_out_chars_no_crlf>:
10005aec:	0003      	movs	r3, r0
10005aee:	b510      	push	{r4, lr}
10005af0:	0008      	movs	r0, r1
10005af2:	0011      	movs	r1, r2
10005af4:	681b      	ldr	r3, [r3, #0]
10005af6:	4798      	blx	r3
10005af8:	bd10      	pop	{r4, pc}
10005afa:	46c0      	nop			@ (mov r8, r8)

10005afc <stdio_out_chars_crlf>:
10005afc:	b5f0      	push	{r4, r5, r6, r7, lr}
10005afe:	46c6      	mov	lr, r8
10005b00:	b500      	push	{lr}
10005b02:	7d43      	ldrb	r3, [r0, #21]
10005b04:	0007      	movs	r7, r0
10005b06:	000c      	movs	r4, r1
10005b08:	0016      	movs	r6, r2
10005b0a:	2b00      	cmp	r3, #0
10005b0c:	d046      	beq.n	10005b9c <stdio_out_chars_crlf+0xa0>
10005b0e:	2a00      	cmp	r2, #0
10005b10:	dd17      	ble.n	10005b42 <stdio_out_chars_crlf+0x46>
10005b12:	780b      	ldrb	r3, [r1, #0]
10005b14:	2b0a      	cmp	r3, #10
10005b16:	d024      	beq.n	10005b62 <stdio_out_chars_crlf+0x66>
10005b18:	2300      	movs	r3, #0
10005b1a:	4698      	mov	r8, r3
10005b1c:	2e01      	cmp	r6, #1
10005b1e:	d013      	beq.n	10005b48 <stdio_out_chars_crlf+0x4c>
10005b20:	2501      	movs	r5, #1
10005b22:	0029      	movs	r1, r5
10005b24:	5c63      	ldrb	r3, [r4, r1]
10005b26:	3501      	adds	r5, #1
10005b28:	2b0a      	cmp	r3, #10
10005b2a:	d026      	beq.n	10005b7a <stdio_out_chars_crlf+0x7e>
10005b2c:	42b5      	cmp	r5, r6
10005b2e:	d1f8      	bne.n	10005b22 <stdio_out_chars_crlf+0x26>
10005b30:	4546      	cmp	r6, r8
10005b32:	dc09      	bgt.n	10005b48 <stdio_out_chars_crlf+0x4c>
10005b34:	19a4      	adds	r4, r4, r6
10005b36:	3c01      	subs	r4, #1
10005b38:	7823      	ldrb	r3, [r4, #0]
10005b3a:	3b0d      	subs	r3, #13
10005b3c:	425a      	negs	r2, r3
10005b3e:	4153      	adcs	r3, r2
10005b40:	753b      	strb	r3, [r7, #20]
10005b42:	bc80      	pop	{r7}
10005b44:	46b8      	mov	r8, r7
10005b46:	bdf0      	pop	{r4, r5, r6, r7, pc}
10005b48:	4643      	mov	r3, r8
10005b4a:	18e0      	adds	r0, r4, r3
10005b4c:	19a4      	adds	r4, r4, r6
10005b4e:	1af1      	subs	r1, r6, r3
10005b50:	3c01      	subs	r4, #1
10005b52:	683b      	ldr	r3, [r7, #0]
10005b54:	4798      	blx	r3
10005b56:	7823      	ldrb	r3, [r4, #0]
10005b58:	3b0d      	subs	r3, #13
10005b5a:	425a      	negs	r2, r3
10005b5c:	4153      	adcs	r3, r2
10005b5e:	753b      	strb	r3, [r7, #20]
10005b60:	e7ef      	b.n	10005b42 <stdio_out_chars_crlf+0x46>
10005b62:	7d03      	ldrb	r3, [r0, #20]
10005b64:	2b00      	cmp	r3, #0
10005b66:	d1d7      	bne.n	10005b18 <stdio_out_chars_crlf+0x1c>
10005b68:	2102      	movs	r1, #2
10005b6a:	480f      	ldr	r0, [pc, #60]	@ (10005ba8 <stdio_out_chars_crlf+0xac>)
10005b6c:	683b      	ldr	r3, [r7, #0]
10005b6e:	4798      	blx	r3
10005b70:	2e01      	cmp	r6, #1
10005b72:	d0df      	beq.n	10005b34 <stdio_out_chars_crlf+0x38>
10005b74:	2301      	movs	r3, #1
10005b76:	4698      	mov	r8, r3
10005b78:	e7d2      	b.n	10005b20 <stdio_out_chars_crlf+0x24>
10005b7a:	1e63      	subs	r3, r4, #1
10005b7c:	5c5b      	ldrb	r3, [r3, r1]
10005b7e:	2b0d      	cmp	r3, #13
10005b80:	d0d4      	beq.n	10005b2c <stdio_out_chars_crlf+0x30>
10005b82:	4588      	cmp	r8, r1
10005b84:	da04      	bge.n	10005b90 <stdio_out_chars_crlf+0x94>
10005b86:	4643      	mov	r3, r8
10005b88:	1ac9      	subs	r1, r1, r3
10005b8a:	18e0      	adds	r0, r4, r3
10005b8c:	683b      	ldr	r3, [r7, #0]
10005b8e:	4798      	blx	r3
10005b90:	2102      	movs	r1, #2
10005b92:	4805      	ldr	r0, [pc, #20]	@ (10005ba8 <stdio_out_chars_crlf+0xac>)
10005b94:	683b      	ldr	r3, [r7, #0]
10005b96:	46a8      	mov	r8, r5
10005b98:	4798      	blx	r3
10005b9a:	e7c7      	b.n	10005b2c <stdio_out_chars_crlf+0x30>
10005b9c:	6803      	ldr	r3, [r0, #0]
10005b9e:	0011      	movs	r1, r2
10005ba0:	0020      	movs	r0, r4
10005ba2:	4798      	blx	r3
10005ba4:	e7cd      	b.n	10005b42 <stdio_out_chars_crlf+0x46>
10005ba6:	46c0      	nop			@ (mov r8, r8)
10005ba8:	10006640 	.word	0x10006640

10005bac <stdio_buffered_printer>:
10005bac:	b5f0      	push	{r4, r5, r6, r7, lr}
10005bae:	46c6      	mov	lr, r8
10005bb0:	680b      	ldr	r3, [r1, #0]
10005bb2:	0006      	movs	r6, r0
10005bb4:	000c      	movs	r4, r1
10005bb6:	b500      	push	{lr}
10005bb8:	2b80      	cmp	r3, #128	@ 0x80
10005bba:	d006      	beq.n	10005bca <stdio_buffered_printer+0x1e>
10005bbc:	1c5a      	adds	r2, r3, #1
10005bbe:	6022      	str	r2, [r4, #0]
10005bc0:	18e4      	adds	r4, r4, r3
10005bc2:	7126      	strb	r6, [r4, #4]
10005bc4:	bc80      	pop	{r7}
10005bc6:	46b8      	mov	r8, r7
10005bc8:	bdf0      	pop	{r4, r5, r6, r7, pc}
10005bca:	4b0f      	ldr	r3, [pc, #60]	@ (10005c08 <stdio_buffered_printer+0x5c>)
10005bcc:	681d      	ldr	r5, [r3, #0]
10005bce:	2d00      	cmp	r5, #0
10005bd0:	d016      	beq.n	10005c00 <stdio_buffered_printer+0x54>
10005bd2:	1d0b      	adds	r3, r1, #4
10005bd4:	4698      	mov	r8, r3
10005bd6:	4f0d      	ldr	r7, [pc, #52]	@ (10005c0c <stdio_buffered_printer+0x60>)
10005bd8:	e002      	b.n	10005be0 <stdio_buffered_printer+0x34>
10005bda:	692d      	ldr	r5, [r5, #16]
10005bdc:	2d00      	cmp	r5, #0
10005bde:	d00f      	beq.n	10005c00 <stdio_buffered_printer+0x54>
10005be0:	682b      	ldr	r3, [r5, #0]
10005be2:	2b00      	cmp	r3, #0
10005be4:	d0f9      	beq.n	10005bda <stdio_buffered_printer+0x2e>
10005be6:	683b      	ldr	r3, [r7, #0]
10005be8:	2b00      	cmp	r3, #0
10005bea:	d001      	beq.n	10005bf0 <stdio_buffered_printer+0x44>
10005bec:	42ab      	cmp	r3, r5
10005bee:	d1f4      	bne.n	10005bda <stdio_buffered_printer+0x2e>
10005bf0:	0028      	movs	r0, r5
10005bf2:	4641      	mov	r1, r8
10005bf4:	6822      	ldr	r2, [r4, #0]
10005bf6:	f7ff ff81 	bl	10005afc <stdio_out_chars_crlf>
10005bfa:	692d      	ldr	r5, [r5, #16]
10005bfc:	2d00      	cmp	r5, #0
10005bfe:	d1ef      	bne.n	10005be0 <stdio_buffered_printer+0x34>
10005c00:	2201      	movs	r2, #1
10005c02:	2300      	movs	r3, #0
10005c04:	e7db      	b.n	10005bbe <stdio_buffered_printer+0x12>
10005c06:	46c0      	nop			@ (mov r8, r8)
10005c08:	20000864 	.word	0x20000864
10005c0c:	20000868 	.word	0x20000868

10005c10 <stdio_put_string>:
10005c10:	b5f0      	push	{r4, r5, r6, r7, lr}
10005c12:	4645      	mov	r5, r8
10005c14:	46de      	mov	lr, fp
10005c16:	464e      	mov	r6, r9
10005c18:	4657      	mov	r7, sl
10005c1a:	b5e0      	push	{r5, r6, r7, lr}
10005c1c:	b083      	sub	sp, #12
10005c1e:	4691      	mov	r9, r2
10005c20:	001c      	movs	r4, r3
10005c22:	4680      	mov	r8, r0
10005c24:	000d      	movs	r5, r1
10005c26:	f7fd fb4d 	bl	100032c4 <time_us_64>
10005c2a:	2300      	movs	r3, #0
10005c2c:	4a30      	ldr	r2, [pc, #192]	@ (10005cf0 <stdio_put_string+0xe0>)
10005c2e:	1812      	adds	r2, r2, r0
10005c30:	414b      	adcs	r3, r1
10005c32:	2b00      	cmp	r3, #0
10005c34:	da02      	bge.n	10005c3c <stdio_put_string+0x2c>
10005c36:	2201      	movs	r2, #1
10005c38:	4b2e      	ldr	r3, [pc, #184]	@ (10005cf4 <stdio_put_string+0xe4>)
10005c3a:	4252      	negs	r2, r2
10005c3c:	492e      	ldr	r1, [pc, #184]	@ (10005cf8 <stdio_put_string+0xe8>)
10005c3e:	0008      	movs	r0, r1
10005c40:	468a      	mov	sl, r1
10005c42:	f000 faed 	bl	10006220 <__mutex_try_enter_block_until_veneer>
10005c46:	0007      	movs	r7, r0
10005c48:	1c6b      	adds	r3, r5, #1
10005c4a:	d103      	bne.n	10005c54 <stdio_put_string+0x44>
10005c4c:	4640      	mov	r0, r8
10005c4e:	f000 fa95 	bl	1000617c <strlen>
10005c52:	0005      	movs	r5, r0
10005c54:	2c00      	cmp	r4, #0
10005c56:	d027      	beq.n	10005ca8 <stdio_put_string+0x98>
10005c58:	4e28      	ldr	r6, [pc, #160]	@ (10005cfc <stdio_put_string+0xec>)
10005c5a:	4b29      	ldr	r3, [pc, #164]	@ (10005d00 <stdio_put_string+0xf0>)
10005c5c:	681c      	ldr	r4, [r3, #0]
10005c5e:	2c00      	cmp	r4, #0
10005c60:	d018      	beq.n	10005c94 <stdio_put_string+0x84>
10005c62:	464b      	mov	r3, r9
10005c64:	2b00      	cmp	r3, #0
10005c66:	d121      	bne.n	10005cac <stdio_put_string+0x9c>
10005c68:	4b26      	ldr	r3, [pc, #152]	@ (10005d04 <stdio_put_string+0xf4>)
10005c6a:	4699      	mov	r9, r3
10005c6c:	e002      	b.n	10005c74 <stdio_put_string+0x64>
10005c6e:	6924      	ldr	r4, [r4, #16]
10005c70:	2c00      	cmp	r4, #0
10005c72:	d00f      	beq.n	10005c94 <stdio_put_string+0x84>
10005c74:	6823      	ldr	r3, [r4, #0]
10005c76:	2b00      	cmp	r3, #0
10005c78:	d0f9      	beq.n	10005c6e <stdio_put_string+0x5e>
10005c7a:	464b      	mov	r3, r9
10005c7c:	681b      	ldr	r3, [r3, #0]
10005c7e:	2b00      	cmp	r3, #0
10005c80:	d001      	beq.n	10005c86 <stdio_put_string+0x76>
10005c82:	429c      	cmp	r4, r3
10005c84:	d1f3      	bne.n	10005c6e <stdio_put_string+0x5e>
10005c86:	0020      	movs	r0, r4
10005c88:	002a      	movs	r2, r5
10005c8a:	4641      	mov	r1, r8
10005c8c:	47b0      	blx	r6
10005c8e:	6924      	ldr	r4, [r4, #16]
10005c90:	2c00      	cmp	r4, #0
10005c92:	d1ef      	bne.n	10005c74 <stdio_put_string+0x64>
10005c94:	2f00      	cmp	r7, #0
10005c96:	d126      	bne.n	10005ce6 <stdio_put_string+0xd6>
10005c98:	0028      	movs	r0, r5
10005c9a:	b003      	add	sp, #12
10005c9c:	bcf0      	pop	{r4, r5, r6, r7}
10005c9e:	46bb      	mov	fp, r7
10005ca0:	46b2      	mov	sl, r6
10005ca2:	46a9      	mov	r9, r5
10005ca4:	46a0      	mov	r8, r4
10005ca6:	bdf0      	pop	{r4, r5, r6, r7, pc}
10005ca8:	4e17      	ldr	r6, [pc, #92]	@ (10005d08 <stdio_put_string+0xf8>)
10005caa:	e7d6      	b.n	10005c5a <stdio_put_string+0x4a>
10005cac:	4b15      	ldr	r3, [pc, #84]	@ (10005d04 <stdio_put_string+0xf4>)
10005cae:	4699      	mov	r9, r3
10005cb0:	230a      	movs	r3, #10
10005cb2:	469b      	mov	fp, r3
10005cb4:	e002      	b.n	10005cbc <stdio_put_string+0xac>
10005cb6:	6924      	ldr	r4, [r4, #16]
10005cb8:	2c00      	cmp	r4, #0
10005cba:	d0eb      	beq.n	10005c94 <stdio_put_string+0x84>
10005cbc:	6823      	ldr	r3, [r4, #0]
10005cbe:	2b00      	cmp	r3, #0
10005cc0:	d0f9      	beq.n	10005cb6 <stdio_put_string+0xa6>
10005cc2:	464b      	mov	r3, r9
10005cc4:	681b      	ldr	r3, [r3, #0]
10005cc6:	2b00      	cmp	r3, #0
10005cc8:	d001      	beq.n	10005cce <stdio_put_string+0xbe>
10005cca:	42a3      	cmp	r3, r4
10005ccc:	d1f3      	bne.n	10005cb6 <stdio_put_string+0xa6>
10005cce:	002a      	movs	r2, r5
10005cd0:	4641      	mov	r1, r8
10005cd2:	0020      	movs	r0, r4
10005cd4:	47b0      	blx	r6
10005cd6:	466b      	mov	r3, sp
10005cd8:	465a      	mov	r2, fp
10005cda:	0020      	movs	r0, r4
10005cdc:	71da      	strb	r2, [r3, #7]
10005cde:	1dd9      	adds	r1, r3, #7
10005ce0:	2201      	movs	r2, #1
10005ce2:	47b0      	blx	r6
10005ce4:	e7e7      	b.n	10005cb6 <stdio_put_string+0xa6>
10005ce6:	4650      	mov	r0, sl
10005ce8:	f000 fa82 	bl	100061f0 <__mutex_exit_veneer>
10005cec:	e7d4      	b.n	10005c98 <stdio_put_string+0x88>
10005cee:	46c0      	nop			@ (mov r8, r8)
10005cf0:	000f4240 	.word	0x000f4240
10005cf4:	7fffffff 	.word	0x7fffffff
10005cf8:	20000458 	.word	0x20000458
10005cfc:	10005afd 	.word	0x10005afd
10005d00:	20000864 	.word	0x20000864
10005d04:	20000868 	.word	0x20000868
10005d08:	10005aed 	.word	0x10005aed

10005d0c <stdio_set_driver_enabled>:
10005d0c:	4a0a      	ldr	r2, [pc, #40]	@ (10005d38 <stdio_set_driver_enabled+0x2c>)
10005d0e:	6813      	ldr	r3, [r2, #0]
10005d10:	2b00      	cmp	r3, #0
10005d12:	d105      	bne.n	10005d20 <stdio_set_driver_enabled+0x14>
10005d14:	e00c      	b.n	10005d30 <stdio_set_driver_enabled+0x24>
10005d16:	001a      	movs	r2, r3
10005d18:	691b      	ldr	r3, [r3, #16]
10005d1a:	3210      	adds	r2, #16
10005d1c:	2b00      	cmp	r3, #0
10005d1e:	d007      	beq.n	10005d30 <stdio_set_driver_enabled+0x24>
10005d20:	4283      	cmp	r3, r0
10005d22:	d1f8      	bne.n	10005d16 <stdio_set_driver_enabled+0xa>
10005d24:	2900      	cmp	r1, #0
10005d26:	d102      	bne.n	10005d2e <stdio_set_driver_enabled+0x22>
10005d28:	6918      	ldr	r0, [r3, #16]
10005d2a:	6010      	str	r0, [r2, #0]
10005d2c:	6119      	str	r1, [r3, #16]
10005d2e:	4770      	bx	lr
10005d30:	2900      	cmp	r1, #0
10005d32:	d0fc      	beq.n	10005d2e <stdio_set_driver_enabled+0x22>
10005d34:	6010      	str	r0, [r2, #0]
10005d36:	e7fa      	b.n	10005d2e <stdio_set_driver_enabled+0x22>
10005d38:	20000864 	.word	0x20000864

10005d3c <stdio_init_all>:
10005d3c:	b510      	push	{r4, lr}
10005d3e:	f000 f9ab 	bl	10006098 <stdio_uart_init>
10005d42:	2001      	movs	r0, #1
10005d44:	bd10      	pop	{r4, pc}
10005d46:	46c0      	nop			@ (mov r8, r8)

10005d48 <__wrap_putchar>:
10005d48:	b5f0      	push	{r4, r5, r6, r7, lr}
10005d4a:	46ce      	mov	lr, r9
10005d4c:	4647      	mov	r7, r8
10005d4e:	b580      	push	{r7, lr}
10005d50:	b083      	sub	sp, #12
10005d52:	466b      	mov	r3, sp
10005d54:	0006      	movs	r6, r0
10005d56:	1ddd      	adds	r5, r3, #7
10005d58:	7028      	strb	r0, [r5, #0]
10005d5a:	f7fd fab3 	bl	100032c4 <time_us_64>
10005d5e:	2300      	movs	r3, #0
10005d60:	4a19      	ldr	r2, [pc, #100]	@ (10005dc8 <__wrap_putchar+0x80>)
10005d62:	1812      	adds	r2, r2, r0
10005d64:	414b      	adcs	r3, r1
10005d66:	2b00      	cmp	r3, #0
10005d68:	da02      	bge.n	10005d70 <__wrap_putchar+0x28>
10005d6a:	2201      	movs	r2, #1
10005d6c:	4b17      	ldr	r3, [pc, #92]	@ (10005dcc <__wrap_putchar+0x84>)
10005d6e:	4252      	negs	r2, r2
10005d70:	4917      	ldr	r1, [pc, #92]	@ (10005dd0 <__wrap_putchar+0x88>)
10005d72:	0008      	movs	r0, r1
10005d74:	4688      	mov	r8, r1
10005d76:	f000 fa53 	bl	10006220 <__mutex_try_enter_block_until_veneer>
10005d7a:	4b16      	ldr	r3, [pc, #88]	@ (10005dd4 <__wrap_putchar+0x8c>)
10005d7c:	4681      	mov	r9, r0
10005d7e:	681c      	ldr	r4, [r3, #0]
10005d80:	2c00      	cmp	r4, #0
10005d82:	d014      	beq.n	10005dae <__wrap_putchar+0x66>
10005d84:	4f14      	ldr	r7, [pc, #80]	@ (10005dd8 <__wrap_putchar+0x90>)
10005d86:	e002      	b.n	10005d8e <__wrap_putchar+0x46>
10005d88:	6924      	ldr	r4, [r4, #16]
10005d8a:	2c00      	cmp	r4, #0
10005d8c:	d00f      	beq.n	10005dae <__wrap_putchar+0x66>
10005d8e:	6823      	ldr	r3, [r4, #0]
10005d90:	2b00      	cmp	r3, #0
10005d92:	d0f9      	beq.n	10005d88 <__wrap_putchar+0x40>
10005d94:	683b      	ldr	r3, [r7, #0]
10005d96:	2b00      	cmp	r3, #0
10005d98:	d001      	beq.n	10005d9e <__wrap_putchar+0x56>
10005d9a:	429c      	cmp	r4, r3
10005d9c:	d1f4      	bne.n	10005d88 <__wrap_putchar+0x40>
10005d9e:	0020      	movs	r0, r4
10005da0:	2201      	movs	r2, #1
10005da2:	0029      	movs	r1, r5
10005da4:	f7ff feaa 	bl	10005afc <stdio_out_chars_crlf>
10005da8:	6924      	ldr	r4, [r4, #16]
10005daa:	2c00      	cmp	r4, #0
10005dac:	d1ef      	bne.n	10005d8e <__wrap_putchar+0x46>
10005dae:	464b      	mov	r3, r9
10005db0:	2b00      	cmp	r3, #0
10005db2:	d105      	bne.n	10005dc0 <__wrap_putchar+0x78>
10005db4:	0030      	movs	r0, r6
10005db6:	b003      	add	sp, #12
10005db8:	bcc0      	pop	{r6, r7}
10005dba:	46b9      	mov	r9, r7
10005dbc:	46b0      	mov	r8, r6
10005dbe:	bdf0      	pop	{r4, r5, r6, r7, pc}
10005dc0:	4640      	mov	r0, r8
10005dc2:	f000 fa15 	bl	100061f0 <__mutex_exit_veneer>
10005dc6:	e7f5      	b.n	10005db4 <__wrap_putchar+0x6c>
10005dc8:	000f4240 	.word	0x000f4240
10005dcc:	7fffffff 	.word	0x7fffffff
10005dd0:	20000458 	.word	0x20000458
10005dd4:	20000864 	.word	0x20000864
10005dd8:	20000868 	.word	0x20000868

10005ddc <__wrap_puts>:
10005ddc:	b570      	push	{r4, r5, r6, lr}
10005dde:	0004      	movs	r4, r0
10005de0:	f000 f9cc 	bl	1000617c <strlen>
10005de4:	2301      	movs	r3, #1
10005de6:	0001      	movs	r1, r0
10005de8:	0005      	movs	r5, r0
10005dea:	2201      	movs	r2, #1
10005dec:	0020      	movs	r0, r4
10005dee:	f7ff ff0f 	bl	10005c10 <stdio_put_string>
10005df2:	4b08      	ldr	r3, [pc, #32]	@ (10005e14 <__wrap_puts+0x38>)
10005df4:	681c      	ldr	r4, [r3, #0]
10005df6:	2c00      	cmp	r4, #0
10005df8:	d006      	beq.n	10005e08 <__wrap_puts+0x2c>
10005dfa:	6863      	ldr	r3, [r4, #4]
10005dfc:	2b00      	cmp	r3, #0
10005dfe:	d005      	beq.n	10005e0c <__wrap_puts+0x30>
10005e00:	4798      	blx	r3
10005e02:	6924      	ldr	r4, [r4, #16]
10005e04:	2c00      	cmp	r4, #0
10005e06:	d1f8      	bne.n	10005dfa <__wrap_puts+0x1e>
10005e08:	0028      	movs	r0, r5
10005e0a:	bd70      	pop	{r4, r5, r6, pc}
10005e0c:	6924      	ldr	r4, [r4, #16]
10005e0e:	2c00      	cmp	r4, #0
10005e10:	d1f3      	bne.n	10005dfa <__wrap_puts+0x1e>
10005e12:	e7f9      	b.n	10005e08 <__wrap_puts+0x2c>
10005e14:	20000864 	.word	0x20000864

10005e18 <__wrap_vprintf>:
10005e18:	b5f0      	push	{r4, r5, r6, r7, lr}
10005e1a:	46ce      	mov	lr, r9
10005e1c:	4647      	mov	r7, r8
10005e1e:	b580      	push	{r7, lr}
10005e20:	b0a3      	sub	sp, #140	@ 0x8c
10005e22:	0004      	movs	r4, r0
10005e24:	000d      	movs	r5, r1
10005e26:	f7fd fa4d 	bl	100032c4 <time_us_64>
10005e2a:	2300      	movs	r3, #0
10005e2c:	4a27      	ldr	r2, [pc, #156]	@ (10005ecc <__wrap_vprintf+0xb4>)
10005e2e:	1812      	adds	r2, r2, r0
10005e30:	414b      	adcs	r3, r1
10005e32:	2b00      	cmp	r3, #0
10005e34:	da02      	bge.n	10005e3c <__wrap_vprintf+0x24>
10005e36:	2201      	movs	r2, #1
10005e38:	4b25      	ldr	r3, [pc, #148]	@ (10005ed0 <__wrap_vprintf+0xb8>)
10005e3a:	4252      	negs	r2, r2
10005e3c:	4e25      	ldr	r6, [pc, #148]	@ (10005ed4 <__wrap_vprintf+0xbc>)
10005e3e:	0030      	movs	r0, r6
10005e40:	f000 f9ee 	bl	10006220 <__mutex_try_enter_block_until_veneer>
10005e44:	2300      	movs	r3, #0
10005e46:	0022      	movs	r2, r4
10005e48:	9301      	str	r3, [sp, #4]
10005e4a:	0007      	movs	r7, r0
10005e4c:	002b      	movs	r3, r5
10005e4e:	4822      	ldr	r0, [pc, #136]	@ (10005ed8 <__wrap_vprintf+0xc0>)
10005e50:	a901      	add	r1, sp, #4
10005e52:	f7ff fe05 	bl	10005a60 <vfctprintf>
10005e56:	4b21      	ldr	r3, [pc, #132]	@ (10005edc <__wrap_vprintf+0xc4>)
10005e58:	4680      	mov	r8, r0
10005e5a:	4699      	mov	r9, r3
10005e5c:	681c      	ldr	r4, [r3, #0]
10005e5e:	9b01      	ldr	r3, [sp, #4]
10005e60:	2b00      	cmp	r3, #0
10005e62:	d01a      	beq.n	10005e9a <__wrap_vprintf+0x82>
10005e64:	2c00      	cmp	r4, #0
10005e66:	d02f      	beq.n	10005ec8 <__wrap_vprintf+0xb0>
10005e68:	4d1d      	ldr	r5, [pc, #116]	@ (10005ee0 <__wrap_vprintf+0xc8>)
10005e6a:	e002      	b.n	10005e72 <__wrap_vprintf+0x5a>
10005e6c:	6924      	ldr	r4, [r4, #16]
10005e6e:	2c00      	cmp	r4, #0
10005e70:	d00f      	beq.n	10005e92 <__wrap_vprintf+0x7a>
10005e72:	6823      	ldr	r3, [r4, #0]
10005e74:	2b00      	cmp	r3, #0
10005e76:	d0f9      	beq.n	10005e6c <__wrap_vprintf+0x54>
10005e78:	682b      	ldr	r3, [r5, #0]
10005e7a:	2b00      	cmp	r3, #0
10005e7c:	d001      	beq.n	10005e82 <__wrap_vprintf+0x6a>
10005e7e:	42a3      	cmp	r3, r4
10005e80:	d1f4      	bne.n	10005e6c <__wrap_vprintf+0x54>
10005e82:	0020      	movs	r0, r4
10005e84:	9a01      	ldr	r2, [sp, #4]
10005e86:	a902      	add	r1, sp, #8
10005e88:	f7ff fe38 	bl	10005afc <stdio_out_chars_crlf>
10005e8c:	6924      	ldr	r4, [r4, #16]
10005e8e:	2c00      	cmp	r4, #0
10005e90:	d1ef      	bne.n	10005e72 <__wrap_vprintf+0x5a>
10005e92:	464b      	mov	r3, r9
10005e94:	681c      	ldr	r4, [r3, #0]
10005e96:	2300      	movs	r3, #0
10005e98:	9301      	str	r3, [sp, #4]
10005e9a:	2c00      	cmp	r4, #0
10005e9c:	d006      	beq.n	10005eac <__wrap_vprintf+0x94>
10005e9e:	6863      	ldr	r3, [r4, #4]
10005ea0:	2b00      	cmp	r3, #0
10005ea2:	d00b      	beq.n	10005ebc <__wrap_vprintf+0xa4>
10005ea4:	4798      	blx	r3
10005ea6:	6924      	ldr	r4, [r4, #16]
10005ea8:	2c00      	cmp	r4, #0
10005eaa:	d1f8      	bne.n	10005e9e <__wrap_vprintf+0x86>
10005eac:	2f00      	cmp	r7, #0
10005eae:	d107      	bne.n	10005ec0 <__wrap_vprintf+0xa8>
10005eb0:	4640      	mov	r0, r8
10005eb2:	b023      	add	sp, #140	@ 0x8c
10005eb4:	bcc0      	pop	{r6, r7}
10005eb6:	46b9      	mov	r9, r7
10005eb8:	46b0      	mov	r8, r6
10005eba:	bdf0      	pop	{r4, r5, r6, r7, pc}
10005ebc:	6924      	ldr	r4, [r4, #16]
10005ebe:	e7ec      	b.n	10005e9a <__wrap_vprintf+0x82>
10005ec0:	0030      	movs	r0, r6
10005ec2:	f000 f995 	bl	100061f0 <__mutex_exit_veneer>
10005ec6:	e7f3      	b.n	10005eb0 <__wrap_vprintf+0x98>
10005ec8:	9401      	str	r4, [sp, #4]
10005eca:	e7ef      	b.n	10005eac <__wrap_vprintf+0x94>
10005ecc:	000f4240 	.word	0x000f4240
10005ed0:	7fffffff 	.word	0x7fffffff
10005ed4:	20000458 	.word	0x20000458
10005ed8:	10005bad 	.word	0x10005bad
10005edc:	20000864 	.word	0x20000864
10005ee0:	20000868 	.word	0x20000868

10005ee4 <__wrap_printf>:
10005ee4:	b40f      	push	{r0, r1, r2, r3}
10005ee6:	b500      	push	{lr}
10005ee8:	b083      	sub	sp, #12
10005eea:	a904      	add	r1, sp, #16
10005eec:	c901      	ldmia	r1!, {r0}
10005eee:	9101      	str	r1, [sp, #4]
10005ef0:	f7ff ff92 	bl	10005e18 <__wrap_vprintf>
10005ef4:	b003      	add	sp, #12
10005ef6:	bc08      	pop	{r3}
10005ef8:	b004      	add	sp, #16
10005efa:	4718      	bx	r3

10005efc <stdio_uart_out_chars>:
10005efc:	b5f0      	push	{r4, r5, r6, r7, lr}
10005efe:	2900      	cmp	r1, #0
10005f00:	dd15      	ble.n	10005f2e <stdio_uart_out_chars+0x32>
10005f02:	4b0e      	ldr	r3, [pc, #56]	@ (10005f3c <stdio_uart_out_chars+0x40>)
10005f04:	270d      	movs	r7, #13
10005f06:	681a      	ldr	r2, [r3, #0]
10005f08:	4b0d      	ldr	r3, [pc, #52]	@ (10005f40 <stdio_uart_out_chars+0x44>)
10005f0a:	4c0e      	ldr	r4, [pc, #56]	@ (10005f44 <stdio_uart_out_chars+0x48>)
10005f0c:	18d3      	adds	r3, r2, r3
10005f0e:	425d      	negs	r5, r3
10005f10:	416b      	adcs	r3, r5
10005f12:	1845      	adds	r5, r0, r1
10005f14:	2120      	movs	r1, #32
10005f16:	005b      	lsls	r3, r3, #1
10005f18:	5f1e      	ldrsh	r6, [r3, r4]
10005f1a:	7804      	ldrb	r4, [r0, #0]
10005f1c:	42a6      	cmp	r6, r4
10005f1e:	d007      	beq.n	10005f30 <stdio_uart_out_chars+0x34>
10005f20:	6993      	ldr	r3, [r2, #24]
10005f22:	4219      	tst	r1, r3
10005f24:	d1fc      	bne.n	10005f20 <stdio_uart_out_chars+0x24>
10005f26:	3001      	adds	r0, #1
10005f28:	6014      	str	r4, [r2, #0]
10005f2a:	42a8      	cmp	r0, r5
10005f2c:	d1f5      	bne.n	10005f1a <stdio_uart_out_chars+0x1e>
10005f2e:	bdf0      	pop	{r4, r5, r6, r7, pc}
10005f30:	6993      	ldr	r3, [r2, #24]
10005f32:	4219      	tst	r1, r3
10005f34:	d1fc      	bne.n	10005f30 <stdio_uart_out_chars+0x34>
10005f36:	6017      	str	r7, [r2, #0]
10005f38:	e7f2      	b.n	10005f20 <stdio_uart_out_chars+0x24>
10005f3a:	46c0      	nop			@ (mov r8, r8)
10005f3c:	20001150 	.word	0x20001150
10005f40:	bffc8000 	.word	0xbffc8000
10005f44:	2000114c 	.word	0x2000114c

10005f48 <stdio_uart_in_chars>:
10005f48:	4b20      	ldr	r3, [pc, #128]	@ (10005fcc <stdio_uart_in_chars+0x84>)
10005f4a:	b570      	push	{r4, r5, r6, lr}
10005f4c:	0004      	movs	r4, r0
10005f4e:	1e0d      	subs	r5, r1, #0
10005f50:	681e      	ldr	r6, [r3, #0]
10005f52:	dd2a      	ble.n	10005faa <stdio_uart_in_chars+0x62>
10005f54:	2000      	movs	r0, #0
10005f56:	2110      	movs	r1, #16
10005f58:	4b1d      	ldr	r3, [pc, #116]	@ (10005fd0 <stdio_uart_in_chars+0x88>)
10005f5a:	3c01      	subs	r4, #1
10005f5c:	681a      	ldr	r2, [r3, #0]
10005f5e:	6993      	ldr	r3, [r2, #24]
10005f60:	4219      	tst	r1, r3
10005f62:	d114      	bne.n	10005f8e <stdio_uart_in_chars+0x46>
10005f64:	3001      	adds	r0, #1
10005f66:	6993      	ldr	r3, [r2, #24]
10005f68:	4219      	tst	r1, r3
10005f6a:	d1fc      	bne.n	10005f66 <stdio_uart_in_chars+0x1e>
10005f6c:	6813      	ldr	r3, [r2, #0]
10005f6e:	5423      	strb	r3, [r4, r0]
10005f70:	4285      	cmp	r5, r0
10005f72:	d1f4      	bne.n	10005f5e <stdio_uart_in_chars+0x16>
10005f74:	2e00      	cmp	r6, #0
10005f76:	d008      	beq.n	10005f8a <stdio_uart_in_chars+0x42>
10005f78:	2350      	movs	r3, #80	@ 0x50
10005f7a:	6393      	str	r3, [r2, #56]	@ 0x38
10005f7c:	6b51      	ldr	r1, [r2, #52]	@ 0x34
10005f7e:	3b18      	subs	r3, #24
10005f80:	400b      	ands	r3, r1
10005f82:	4914      	ldr	r1, [pc, #80]	@ (10005fd4 <stdio_uart_in_chars+0x8c>)
10005f84:	468c      	mov	ip, r1
10005f86:	4462      	add	r2, ip
10005f88:	6013      	str	r3, [r2, #0]
10005f8a:	0028      	movs	r0, r5
10005f8c:	bd70      	pop	{r4, r5, r6, pc}
10005f8e:	2e00      	cmp	r6, #0
10005f90:	d008      	beq.n	10005fa4 <stdio_uart_in_chars+0x5c>
10005f92:	2350      	movs	r3, #80	@ 0x50
10005f94:	6393      	str	r3, [r2, #56]	@ 0x38
10005f96:	6b51      	ldr	r1, [r2, #52]	@ 0x34
10005f98:	3b18      	subs	r3, #24
10005f9a:	400b      	ands	r3, r1
10005f9c:	490d      	ldr	r1, [pc, #52]	@ (10005fd4 <stdio_uart_in_chars+0x8c>)
10005f9e:	468c      	mov	ip, r1
10005fa0:	4462      	add	r2, ip
10005fa2:	6013      	str	r3, [r2, #0]
10005fa4:	2800      	cmp	r0, #0
10005fa6:	d1f1      	bne.n	10005f8c <stdio_uart_in_chars+0x44>
10005fa8:	e00c      	b.n	10005fc4 <stdio_uart_in_chars+0x7c>
10005faa:	2e00      	cmp	r6, #0
10005fac:	d00a      	beq.n	10005fc4 <stdio_uart_in_chars+0x7c>
10005fae:	2250      	movs	r2, #80	@ 0x50
10005fb0:	4b07      	ldr	r3, [pc, #28]	@ (10005fd0 <stdio_uart_in_chars+0x88>)
10005fb2:	681b      	ldr	r3, [r3, #0]
10005fb4:	639a      	str	r2, [r3, #56]	@ 0x38
10005fb6:	6b59      	ldr	r1, [r3, #52]	@ 0x34
10005fb8:	3a18      	subs	r2, #24
10005fba:	400a      	ands	r2, r1
10005fbc:	4905      	ldr	r1, [pc, #20]	@ (10005fd4 <stdio_uart_in_chars+0x8c>)
10005fbe:	468c      	mov	ip, r1
10005fc0:	4463      	add	r3, ip
10005fc2:	601a      	str	r2, [r3, #0]
10005fc4:	2003      	movs	r0, #3
10005fc6:	4240      	negs	r0, r0
10005fc8:	e7e0      	b.n	10005f8c <stdio_uart_in_chars+0x44>
10005fca:	46c0      	nop			@ (mov r8, r8)
10005fcc:	20000830 	.word	0x20000830
10005fd0:	20001150 	.word	0x20001150
10005fd4:	00001034 	.word	0x00001034

10005fd8 <on_uart_rx>:
10005fd8:	4b06      	ldr	r3, [pc, #24]	@ (10005ff4 <on_uart_rx+0x1c>)
10005fda:	b510      	push	{r4, lr}
10005fdc:	681b      	ldr	r3, [r3, #0]
10005fde:	2b00      	cmp	r3, #0
10005fe0:	d006      	beq.n	10005ff0 <on_uart_rx+0x18>
10005fe2:	2100      	movs	r1, #0
10005fe4:	4a04      	ldr	r2, [pc, #16]	@ (10005ff8 <on_uart_rx+0x20>)
10005fe6:	6812      	ldr	r2, [r2, #0]
10005fe8:	6391      	str	r1, [r2, #56]	@ 0x38
10005fea:	4a04      	ldr	r2, [pc, #16]	@ (10005ffc <on_uart_rx+0x24>)
10005fec:	6810      	ldr	r0, [r2, #0]
10005fee:	4798      	blx	r3
10005ff0:	bd10      	pop	{r4, pc}
10005ff2:	46c0      	nop			@ (mov r8, r8)
10005ff4:	20000830 	.word	0x20000830
10005ff8:	20001150 	.word	0x20001150
10005ffc:	20000834 	.word	0x20000834

10006000 <stdio_uart_out_flush>:
10006000:	2208      	movs	r2, #8
10006002:	4b03      	ldr	r3, [pc, #12]	@ (10006010 <stdio_uart_out_flush+0x10>)
10006004:	6819      	ldr	r1, [r3, #0]
10006006:	698b      	ldr	r3, [r1, #24]
10006008:	421a      	tst	r2, r3
1000600a:	d1fc      	bne.n	10006006 <stdio_uart_out_flush+0x6>
1000600c:	4770      	bx	lr
1000600e:	46c0      	nop			@ (mov r8, r8)
10006010:	20001150 	.word	0x20001150

10006014 <stdio_uart_set_chars_available_callback>:
10006014:	b5f8      	push	{r3, r4, r5, r6, r7, lr}
10006016:	4f1a      	ldr	r7, [pc, #104]	@ (10006080 <stdio_uart_set_chars_available_callback+0x6c>)
10006018:	4b1a      	ldr	r3, [pc, #104]	@ (10006084 <stdio_uart_set_chars_available_callback+0x70>)
1000601a:	683a      	ldr	r2, [r7, #0]
1000601c:	0005      	movs	r5, r0
1000601e:	18d3      	adds	r3, r2, r3
10006020:	4258      	negs	r0, r3
10006022:	4143      	adcs	r3, r0
10006024:	4e18      	ldr	r6, [pc, #96]	@ (10006088 <stdio_uart_set_chars_available_callback+0x74>)
10006026:	3314      	adds	r3, #20
10006028:	001c      	movs	r4, r3
1000602a:	6833      	ldr	r3, [r6, #0]
1000602c:	2d00      	cmp	r5, #0
1000602e:	d002      	beq.n	10006036 <stdio_uart_set_chars_available_callback+0x22>
10006030:	2b00      	cmp	r3, #0
10006032:	d00f      	beq.n	10006054 <stdio_uart_set_chars_available_callback+0x40>
10006034:	bdf8      	pop	{r3, r4, r5, r6, r7, pc}
10006036:	2b00      	cmp	r3, #0
10006038:	d0fc      	beq.n	10006034 <stdio_uart_set_chars_available_callback+0x20>
1000603a:	2100      	movs	r1, #0
1000603c:	0020      	movs	r0, r4
1000603e:	6395      	str	r5, [r2, #56]	@ 0x38
10006040:	f7fc fc64 	bl	1000290c <irq_set_enabled>
10006044:	0020      	movs	r0, r4
10006046:	4911      	ldr	r1, [pc, #68]	@ (1000608c <stdio_uart_set_chars_available_callback+0x78>)
10006048:	f7fc fc9c 	bl	10002984 <irq_remove_handler>
1000604c:	4b10      	ldr	r3, [pc, #64]	@ (10006090 <stdio_uart_set_chars_available_callback+0x7c>)
1000604e:	6035      	str	r5, [r6, #0]
10006050:	601d      	str	r5, [r3, #0]
10006052:	e7ef      	b.n	10006034 <stdio_uart_set_chars_available_callback+0x20>
10006054:	4b0e      	ldr	r3, [pc, #56]	@ (10006090 <stdio_uart_set_chars_available_callback+0x7c>)
10006056:	0020      	movs	r0, r4
10006058:	6019      	str	r1, [r3, #0]
1000605a:	490c      	ldr	r1, [pc, #48]	@ (1000608c <stdio_uart_set_chars_available_callback+0x78>)
1000605c:	6035      	str	r5, [r6, #0]
1000605e:	f7fc fc67 	bl	10002930 <irq_set_exclusive_handler>
10006062:	2101      	movs	r1, #1
10006064:	0020      	movs	r0, r4
10006066:	f7fc fc51 	bl	1000290c <irq_set_enabled>
1000606a:	2250      	movs	r2, #80	@ 0x50
1000606c:	683b      	ldr	r3, [r7, #0]
1000606e:	639a      	str	r2, [r3, #56]	@ 0x38
10006070:	6b59      	ldr	r1, [r3, #52]	@ 0x34
10006072:	3a18      	subs	r2, #24
10006074:	400a      	ands	r2, r1
10006076:	4907      	ldr	r1, [pc, #28]	@ (10006094 <stdio_uart_set_chars_available_callback+0x80>)
10006078:	468c      	mov	ip, r1
1000607a:	4463      	add	r3, ip
1000607c:	601a      	str	r2, [r3, #0]
1000607e:	e7d9      	b.n	10006034 <stdio_uart_set_chars_available_callback+0x20>
10006080:	20001150 	.word	0x20001150
10006084:	bffc8000 	.word	0xbffc8000
10006088:	20000830 	.word	0x20000830
1000608c:	10005fd9 	.word	0x10005fd9
10006090:	20000834 	.word	0x20000834
10006094:	00001034 	.word	0x00001034

10006098 <stdio_uart_init>:
10006098:	4b0d      	ldr	r3, [pc, #52]	@ (100060d0 <stdio_uart_init+0x38>)
1000609a:	b510      	push	{r4, lr}
1000609c:	781b      	ldrb	r3, [r3, #0]
1000609e:	4b0d      	ldr	r3, [pc, #52]	@ (100060d4 <stdio_uart_init+0x3c>)
100060a0:	4c0d      	ldr	r4, [pc, #52]	@ (100060d8 <stdio_uart_init+0x40>)
100060a2:	781b      	ldrb	r3, [r3, #0]
100060a4:	4b0d      	ldr	r3, [pc, #52]	@ (100060dc <stdio_uart_init+0x44>)
100060a6:	2102      	movs	r1, #2
100060a8:	781b      	ldrb	r3, [r3, #0]
100060aa:	4b0d      	ldr	r3, [pc, #52]	@ (100060e0 <stdio_uart_init+0x48>)
100060ac:	2000      	movs	r0, #0
100060ae:	6023      	str	r3, [r4, #0]
100060b0:	f7fc fb86 	bl	100027c0 <gpio_set_function>
100060b4:	2102      	movs	r1, #2
100060b6:	2001      	movs	r0, #1
100060b8:	f7fc fb82 	bl	100027c0 <gpio_set_function>
100060bc:	21e1      	movs	r1, #225	@ 0xe1
100060be:	6820      	ldr	r0, [r4, #0]
100060c0:	0249      	lsls	r1, r1, #9
100060c2:	f7fd f93d 	bl	10003340 <uart_init>
100060c6:	2101      	movs	r1, #1
100060c8:	4806      	ldr	r0, [pc, #24]	@ (100060e4 <stdio_uart_init+0x4c>)
100060ca:	f7ff fe1f 	bl	10005d0c <stdio_set_driver_enabled>
100060ce:	bd10      	pop	{r4, pc}
100060d0:	10006684 	.word	0x10006684
100060d4:	10006680 	.word	0x10006680
100060d8:	20001150 	.word	0x20001150
100060dc:	1000667c 	.word	0x1000667c
100060e0:	40034000 	.word	0x40034000
100060e4:	20000440 	.word	0x20000440

100060e8 <_retrieve_unique_id_on_boot>:
100060e8:	b510      	push	{r4, lr}
100060ea:	4802      	ldr	r0, [pc, #8]	@ (100060f4 <_retrieve_unique_id_on_boot+0xc>)
100060ec:	f000 f804 	bl	100060f8 <flash_get_unique_id>
100060f0:	bd10      	pop	{r4, pc}
100060f2:	46c0      	nop			@ (mov r8, r8)
100060f4:	20000bc4 	.word	0x20000bc4

100060f8 <flash_get_unique_id>:
100060f8:	b510      	push	{r4, lr}
100060fa:	b088      	sub	sp, #32
100060fc:	0004      	movs	r4, r0
100060fe:	220d      	movs	r2, #13
10006100:	2100      	movs	r1, #0
10006102:	4668      	mov	r0, sp
10006104:	f7fe f850 	bl	100041a8 <__wrap_memset>
10006108:	220d      	movs	r2, #13
1000610a:	2100      	movs	r1, #0
1000610c:	a804      	add	r0, sp, #16
1000610e:	f7fe f84b 	bl	100041a8 <__wrap_memset>
10006112:	234b      	movs	r3, #75	@ 0x4b
10006114:	466a      	mov	r2, sp
10006116:	4668      	mov	r0, sp
10006118:	7013      	strb	r3, [r2, #0]
1000611a:	a904      	add	r1, sp, #16
1000611c:	220d      	movs	r2, #13
1000611e:	f000 f85f 	bl	100061e0 <__flash_do_cmd_veneer>
10006122:	2115      	movs	r1, #21
10006124:	2208      	movs	r2, #8
10006126:	0020      	movs	r0, r4
10006128:	4469      	add	r1, sp
1000612a:	f7fe f843 	bl	100041b4 <__wrap___aeabi_memcpy>
1000612e:	b008      	add	sp, #32
10006130:	bd10      	pop	{r4, pc}
10006132:	46c0      	nop			@ (mov r8, r8)

10006134 <exception_set_exclusive_handler>:
10006134:	b5f8      	push	{r3, r4, r5, r6, r7, lr}
10006136:	000e      	movs	r6, r1
10006138:	f3ef 8710 	mrs	r7, PRIMASK
1000613c:	b672      	cpsid	i
1000613e:	4b0c      	ldr	r3, [pc, #48]	@ (10006170 <exception_set_exclusive_handler+0x3c>)
10006140:	0084      	lsls	r4, r0, #2
10006142:	689b      	ldr	r3, [r3, #8]
10006144:	591d      	ldr	r5, [r3, r4]
10006146:	42a9      	cmp	r1, r5
10006148:	d004      	beq.n	10006154 <exception_set_exclusive_handler+0x20>
1000614a:	4b0a      	ldr	r3, [pc, #40]	@ (10006174 <exception_set_exclusive_handler+0x40>)
1000614c:	429d      	cmp	r5, r3
1000614e:	d20a      	bcs.n	10006166 <exception_set_exclusive_handler+0x32>
10006150:	f7fd fb1c 	bl	1000378c <hard_assertion_failure>
10006154:	4b06      	ldr	r3, [pc, #24]	@ (10006170 <exception_set_exclusive_handler+0x3c>)
10006156:	689b      	ldr	r3, [r3, #8]
10006158:	511e      	str	r6, [r3, r4]
1000615a:	f3bf 8f5f 	dmb	sy
1000615e:	f387 8810 	msr	PRIMASK, r7
10006162:	0028      	movs	r0, r5
10006164:	bdf8      	pop	{r3, r4, r5, r6, r7, pc}
10006166:	4b04      	ldr	r3, [pc, #16]	@ (10006178 <exception_set_exclusive_handler+0x44>)
10006168:	429d      	cmp	r5, r3
1000616a:	d3f3      	bcc.n	10006154 <exception_set_exclusive_handler+0x20>
1000616c:	e7f0      	b.n	10006150 <exception_set_exclusive_handler+0x1c>
1000616e:	46c0      	nop			@ (mov r8, r8)
10006170:	e000ed00 	.word	0xe000ed00
10006174:	100001c0 	.word	0x100001c0
10006178:	100001d4 	.word	0x100001d4

1000617c <strlen>:
1000617c:	b510      	push	{r4, lr}
1000617e:	0783      	lsls	r3, r0, #30
10006180:	d00a      	beq.n	10006198 <strlen+0x1c>
10006182:	0003      	movs	r3, r0
10006184:	2103      	movs	r1, #3
10006186:	e002      	b.n	1000618e <strlen+0x12>
10006188:	3301      	adds	r3, #1
1000618a:	420b      	tst	r3, r1
1000618c:	d005      	beq.n	1000619a <strlen+0x1e>
1000618e:	781a      	ldrb	r2, [r3, #0]
10006190:	2a00      	cmp	r2, #0
10006192:	d1f9      	bne.n	10006188 <strlen+0xc>
10006194:	1a18      	subs	r0, r3, r0
10006196:	bd10      	pop	{r4, pc}
10006198:	0003      	movs	r3, r0
1000619a:	6819      	ldr	r1, [r3, #0]
1000619c:	4a0c      	ldr	r2, [pc, #48]	@ (100061d0 <strlen+0x54>)
1000619e:	4c0d      	ldr	r4, [pc, #52]	@ (100061d4 <strlen+0x58>)
100061a0:	188a      	adds	r2, r1, r2
100061a2:	438a      	bics	r2, r1
100061a4:	4222      	tst	r2, r4
100061a6:	d10f      	bne.n	100061c8 <strlen+0x4c>
100061a8:	6859      	ldr	r1, [r3, #4]
100061aa:	4a09      	ldr	r2, [pc, #36]	@ (100061d0 <strlen+0x54>)
100061ac:	3304      	adds	r3, #4
100061ae:	188a      	adds	r2, r1, r2
100061b0:	438a      	bics	r2, r1
100061b2:	4222      	tst	r2, r4
100061b4:	d108      	bne.n	100061c8 <strlen+0x4c>
100061b6:	6859      	ldr	r1, [r3, #4]
100061b8:	4a05      	ldr	r2, [pc, #20]	@ (100061d0 <strlen+0x54>)
100061ba:	3304      	adds	r3, #4
100061bc:	188a      	adds	r2, r1, r2
100061be:	438a      	bics	r2, r1
100061c0:	4222      	tst	r2, r4
100061c2:	d0f1      	beq.n	100061a8 <strlen+0x2c>
100061c4:	e000      	b.n	100061c8 <strlen+0x4c>
100061c6:	3301      	adds	r3, #1
100061c8:	781a      	ldrb	r2, [r3, #0]
100061ca:	2a00      	cmp	r2, #0
100061cc:	d1fb      	bne.n	100061c6 <strlen+0x4a>
100061ce:	e7e1      	b.n	10006194 <strlen+0x18>
100061d0:	fefefeff 	.word	0xfefefeff
100061d4:	80808080 	.word	0x80808080

100061d8 <_fini>:
100061d8:	b5f8      	push	{r3, r4, r5, r6, r7, lr}
100061da:	46c0      	nop			@ (mov r8, r8)
100061dc:	0000      	movs	r0, r0
	...

100061e0 <__flash_do_cmd_veneer>:
100061e0:	b401      	push	{r0}
100061e2:	4802      	ldr	r0, [pc, #8]	@ (100061ec <__flash_do_cmd_veneer+0xc>)
100061e4:	4684      	mov	ip, r0
100061e6:	bc01      	pop	{r0}
100061e8:	4760      	bx	ip
100061ea:	bf00      	nop
100061ec:	20000235 	.word	0x20000235

100061f0 <__mutex_exit_veneer>:
100061f0:	b401      	push	{r0}
100061f2:	4802      	ldr	r0, [pc, #8]	@ (100061fc <__mutex_exit_veneer+0xc>)
100061f4:	4684      	mov	ip, r0
100061f6:	bc01      	pop	{r0}
100061f8:	4760      	bx	ip
100061fa:	bf00      	nop
100061fc:	20000159 	.word	0x20000159

10006200 <____aeabi_ldiv0_veneer>:
10006200:	b401      	push	{r0}
10006202:	4802      	ldr	r0, [pc, #8]	@ (1000620c <____aeabi_ldiv0_veneer+0xc>)
10006204:	4684      	mov	ip, r0
10006206:	bc01      	pop	{r0}
10006208:	4760      	bx	ip
1000620a:	bf00      	nop
1000620c:	20000371 	.word	0x20000371

10006210 <____aeabi_idiv0_veneer>:
10006210:	b401      	push	{r0}
10006212:	4802      	ldr	r0, [pc, #8]	@ (1000621c <____aeabi_idiv0_veneer+0xc>)
10006214:	4684      	mov	ip, r0
10006216:	bc01      	pop	{r0}
10006218:	4760      	bx	ip
1000621a:	bf00      	nop
1000621c:	20000371 	.word	0x20000371

10006220 <__mutex_try_enter_block_until_veneer>:
10006220:	b401      	push	{r0}
10006222:	4802      	ldr	r0, [pc, #8]	@ (1000622c <__mutex_try_enter_block_until_veneer+0xc>)
10006224:	4684      	mov	ip, r0
10006226:	bc01      	pop	{r0}
10006228:	4760      	bx	ip
1000622a:	bf00      	nop
1000622c:	200000c1 	.word	0x200000c1

10006230 <__pre_init_runtime_init_early_resets>:
10006230:	100037c1                                .7..

10006234 <__pre_init_runtime_init_usb_power_down>:
10006234:	100037ed 100039d1 10004199 10004059     .7...9...A..Y@..
10006244:	1000413d                                =A..

10006248 <__pre_init_runtime_init_clocks>:
10006248:	100038f9                                .8..

1000624c <__pre_init_runtime_init_post_clock_resets>:
1000624c:	10003809                                .8..

10006250 <__pre_init_runtime_init_rp2040_gpio_ie_disable>:
10006250:	10003829                                )8..

10006254 <__pre_init_runtime_init_spin_locks_reset>:
10006254:	1000383d                                =8..

10006258 <__pre_init_runtime_init_mutex>:
10006258:	10002c1d                                .,..

1000625c <__pre_init_runtime_init_install_ram_vector_table>:
1000625c:	10003845                                E8..

10006260 <__pre_init_runtime_init_default_alarm_pool>:
10006260:	10002f95                                ./..

10006264 <__pre_init_first_per_core_initializer>:
10006264:	10003789                                .7..

10006268 <__pre_init_runtime_init_per_core_irq_priorities>:
10006268:	100028e9                                .(..

1000626c <__init_array_start>:
1000626c:	100060e9 	.word	0x100060e9

10006270 <__frame_dummy_init_array_entry>:
10006270:	100002b1 100025c5                       .....%..

Disassembly of section .data:

200000c0 <mutex_try_enter_block_until>:
200000c0:	b5f0      	push	{r4, r5, r6, r7, lr}
200000c2:	46c6      	mov	lr, r8
200000c4:	0015      	movs	r5, r2
200000c6:	b500      	push	{lr}
200000c8:	0004      	movs	r4, r0
200000ca:	001e      	movs	r6, r3
200000cc:	6802      	ldr	r2, [r0, #0]
200000ce:	f3ef 8110 	mrs	r1, PRIMASK
200000d2:	b672      	cpsid	i
200000d4:	6813      	ldr	r3, [r2, #0]
200000d6:	2b00      	cmp	r3, #0
200000d8:	d0fc      	beq.n	200000d4 <mutex_try_enter_block_until+0x14>
200000da:	f3bf 8f5f 	dmb	sy
200000de:	2304      	movs	r3, #4
200000e0:	56e3      	ldrsb	r3, [r4, r3]
200000e2:	6822      	ldr	r2, [r4, #0]
200000e4:	2b00      	cmp	r3, #0
200000e6:	db2b      	blt.n	20000140 <mutex_try_enter_block_until+0x80>
200000e8:	f3bf 8f5f 	dmb	sy
200000ec:	2000      	movs	r0, #0
200000ee:	6010      	str	r0, [r2, #0]
200000f0:	f381 8810 	msr	PRIMASK, r1
200000f4:	22d0      	movs	r2, #208	@ 0xd0
200000f6:	0612      	lsls	r2, r2, #24
200000f8:	7812      	ldrb	r2, [r2, #0]
200000fa:	2700      	movs	r7, #0
200000fc:	b252      	sxtb	r2, r2
200000fe:	4690      	mov	r8, r2
20000100:	429a      	cmp	r2, r3
20000102:	d10e      	bne.n	20000122 <mutex_try_enter_block_until+0x62>
20000104:	2000      	movs	r0, #0
20000106:	bc80      	pop	{r7}
20000108:	46b8      	mov	r8, r7
2000010a:	bdf0      	pop	{r4, r5, r6, r7, pc}
2000010c:	f3bf 8f5f 	dmb	sy
20000110:	6017      	str	r7, [r2, #0]
20000112:	f381 8810 	msr	PRIMASK, r1
20000116:	0028      	movs	r0, r5
20000118:	0031      	movs	r1, r6
2000011a:	f000 f92d 	bl	20000378 <__best_effort_wfe_or_timeout_veneer>
2000011e:	2800      	cmp	r0, #0
20000120:	d1f0      	bne.n	20000104 <mutex_try_enter_block_until+0x44>
20000122:	6822      	ldr	r2, [r4, #0]
20000124:	f3ef 8110 	mrs	r1, PRIMASK
20000128:	b672      	cpsid	i
2000012a:	6813      	ldr	r3, [r2, #0]
2000012c:	2b00      	cmp	r3, #0
2000012e:	d0fc      	beq.n	2000012a <mutex_try_enter_block_until+0x6a>
20000130:	f3bf 8f5f 	dmb	sy
20000134:	7923      	ldrb	r3, [r4, #4]
20000136:	6822      	ldr	r2, [r4, #0]
20000138:	2b7f      	cmp	r3, #127	@ 0x7f
2000013a:	d9e7      	bls.n	2000010c <mutex_try_enter_block_until+0x4c>
2000013c:	4643      	mov	r3, r8
2000013e:	e002      	b.n	20000146 <mutex_try_enter_block_until+0x86>
20000140:	23d0      	movs	r3, #208	@ 0xd0
20000142:	061b      	lsls	r3, r3, #24
20000144:	681b      	ldr	r3, [r3, #0]
20000146:	7123      	strb	r3, [r4, #4]
20000148:	f3bf 8f5f 	dmb	sy
2000014c:	2300      	movs	r3, #0
2000014e:	6013      	str	r3, [r2, #0]
20000150:	f381 8810 	msr	PRIMASK, r1
20000154:	2001      	movs	r0, #1
20000156:	e7d6      	b.n	20000106 <mutex_try_enter_block_until+0x46>

20000158 <mutex_exit>:
20000158:	6802      	ldr	r2, [r0, #0]
2000015a:	f3ef 8110 	mrs	r1, PRIMASK
2000015e:	b672      	cpsid	i
20000160:	6813      	ldr	r3, [r2, #0]
20000162:	2b00      	cmp	r3, #0
20000164:	d0fc      	beq.n	20000160 <mutex_exit+0x8>
20000166:	f3bf 8f5f 	dmb	sy
2000016a:	23ff      	movs	r3, #255	@ 0xff
2000016c:	7103      	strb	r3, [r0, #4]
2000016e:	6803      	ldr	r3, [r0, #0]
20000170:	f3bf 8f5f 	dmb	sy
20000174:	2200      	movs	r2, #0
20000176:	601a      	str	r2, [r3, #0]
20000178:	f381 8810 	msr	PRIMASK, r1
2000017c:	bf40      	sev
2000017e:	4770      	bx	lr

20000180 <flash_init_boot2_copyout>:
20000180:	b510      	push	{r4, lr}
20000182:	4c08      	ldr	r4, [pc, #32]	@ (200001a4 <flash_init_boot2_copyout+0x24>)
20000184:	7823      	ldrb	r3, [r4, #0]
20000186:	2b00      	cmp	r3, #0
20000188:	d10a      	bne.n	200001a0 <flash_init_boot2_copyout+0x20>
2000018a:	2380      	movs	r3, #128	@ 0x80
2000018c:	4806      	ldr	r0, [pc, #24]	@ (200001a8 <flash_init_boot2_copyout+0x28>)
2000018e:	4907      	ldr	r1, [pc, #28]	@ (200001ac <flash_init_boot2_copyout+0x2c>)
20000190:	055b      	lsls	r3, r3, #21
20000192:	681a      	ldr	r2, [r3, #0]
20000194:	50c2      	str	r2, [r0, r3]
20000196:	3304      	adds	r3, #4
20000198:	428b      	cmp	r3, r1
2000019a:	d1fa      	bne.n	20000192 <flash_init_boot2_copyout+0x12>
2000019c:	2301      	movs	r3, #1
2000019e:	7023      	strb	r3, [r4, #0]
200001a0:	bd10      	pop	{r4, pc}
200001a2:	46c0      	nop			@ (mov r8, r8)
200001a4:	20008b4c 	.word	0x20008b4c
200001a8:	10000730 	.word	0x10000730
200001ac:	10000100 	.word	0x10000100

200001b0 <flash_enable_xip_via_boot2>:
200001b0:	b510      	push	{r4, lr}
200001b2:	4b01      	ldr	r3, [pc, #4]	@ (200001b8 <flash_enable_xip_via_boot2+0x8>)
200001b4:	4798      	blx	r3
200001b6:	bd10      	pop	{r4, pc}
200001b8:	20000731 	.word	0x20000731

200001bc <flash_save_hardware_state>:
200001bc:	4b06      	ldr	r3, [pc, #24]	@ (200001d8 <flash_save_hardware_state+0x1c>)
200001be:	685a      	ldr	r2, [r3, #4]
200001c0:	6002      	str	r2, [r0, #0]
200001c2:	689a      	ldr	r2, [r3, #8]
200001c4:	6042      	str	r2, [r0, #4]
200001c6:	68da      	ldr	r2, [r3, #12]
200001c8:	6082      	str	r2, [r0, #8]
200001ca:	691a      	ldr	r2, [r3, #16]
200001cc:	60c2      	str	r2, [r0, #12]
200001ce:	695a      	ldr	r2, [r3, #20]
200001d0:	6102      	str	r2, [r0, #16]
200001d2:	699b      	ldr	r3, [r3, #24]
200001d4:	6143      	str	r3, [r0, #20]
200001d6:	4770      	bx	lr
200001d8:	40020000 	.word	0x40020000

200001dc <flash_restore_hardware_state>:
200001dc:	6802      	ldr	r2, [r0, #0]
200001de:	4b06      	ldr	r3, [pc, #24]	@ (200001f8 <flash_restore_hardware_state+0x1c>)
200001e0:	605a      	str	r2, [r3, #4]
200001e2:	6842      	ldr	r2, [r0, #4]
200001e4:	609a      	str	r2, [r3, #8]
200001e6:	6882      	ldr	r2, [r0, #8]
200001e8:	60da      	str	r2, [r3, #12]
200001ea:	68c2      	ldr	r2, [r0, #12]
200001ec:	611a      	str	r2, [r3, #16]
200001ee:	6902      	ldr	r2, [r0, #16]
200001f0:	615a      	str	r2, [r3, #20]
200001f2:	6942      	ldr	r2, [r0, #20]
200001f4:	619a      	str	r2, [r3, #24]
200001f6:	4770      	bx	lr
200001f8:	40020000 	.word	0x40020000

200001fc <flash_cs_force.constprop.0>:
200001fc:	4b03      	ldr	r3, [pc, #12]	@ (2000020c <flash_cs_force.constprop.0+0x10>)
200001fe:	681a      	ldr	r2, [r3, #0]
20000200:	23c0      	movs	r3, #192	@ 0xc0
20000202:	009b      	lsls	r3, r3, #2
20000204:	4393      	bics	r3, r2
20000206:	4a02      	ldr	r2, [pc, #8]	@ (20000210 <flash_cs_force.constprop.0+0x14>)
20000208:	6013      	str	r3, [r2, #0]
2000020a:	4770      	bx	lr
2000020c:	4001800c 	.word	0x4001800c
20000210:	4001900c 	.word	0x4001900c

20000214 <flash_cs_force.constprop.1>:
20000214:	4b05      	ldr	r3, [pc, #20]	@ (2000022c <flash_cs_force.constprop.1+0x18>)
20000216:	681a      	ldr	r2, [r3, #0]
20000218:	2380      	movs	r3, #128	@ 0x80
2000021a:	009b      	lsls	r3, r3, #2
2000021c:	4053      	eors	r3, r2
2000021e:	22c0      	movs	r2, #192	@ 0xc0
20000220:	0092      	lsls	r2, r2, #2
20000222:	4013      	ands	r3, r2
20000224:	4a02      	ldr	r2, [pc, #8]	@ (20000230 <flash_cs_force.constprop.1+0x1c>)
20000226:	6013      	str	r3, [r2, #0]
20000228:	4770      	bx	lr
2000022a:	46c0      	nop			@ (mov r8, r8)
2000022c:	4001800c 	.word	0x4001800c
20000230:	4001900c 	.word	0x4001900c

20000234 <flash_do_cmd>:
20000234:	2300      	movs	r3, #0
20000236:	b5f0      	push	{r4, r5, r6, r7, lr}
20000238:	46de      	mov	lr, fp
2000023a:	4657      	mov	r7, sl
2000023c:	464e      	mov	r6, r9
2000023e:	4645      	mov	r5, r8
20000240:	469a      	mov	sl, r3
20000242:	b5e0      	push	{r5, r6, r7, lr}
20000244:	b089      	sub	sp, #36	@ 0x24
20000246:	9001      	str	r0, [sp, #4]
20000248:	000e      	movs	r6, r1
2000024a:	8a98      	ldrh	r0, [r3, #20]
2000024c:	4945      	ldr	r1, [pc, #276]	@ (20000364 <flash_do_cmd+0x130>)
2000024e:	8b1b      	ldrh	r3, [r3, #24]
20000250:	0014      	movs	r4, r2
20000252:	4798      	blx	r3
20000254:	4653      	mov	r3, sl
20000256:	4681      	mov	r9, r0
20000258:	4943      	ldr	r1, [pc, #268]	@ (20000368 <flash_do_cmd+0x134>)
2000025a:	8a98      	ldrh	r0, [r3, #20]
2000025c:	8b1b      	ldrh	r3, [r3, #24]
2000025e:	4798      	blx	r3
20000260:	4653      	mov	r3, sl
20000262:	4942      	ldr	r1, [pc, #264]	@ (2000036c <flash_do_cmd+0x138>)
20000264:	0005      	movs	r5, r0
20000266:	8a98      	ldrh	r0, [r3, #20]
20000268:	8b1b      	ldrh	r3, [r3, #24]
2000026a:	4798      	blx	r3
2000026c:	4680      	mov	r8, r0
2000026e:	f7ff ff87 	bl	20000180 <flash_init_boot2_copyout>
20000272:	a802      	add	r0, sp, #8
20000274:	f7ff ffa2 	bl	200001bc <flash_save_hardware_state>
20000278:	47c8      	blx	r9
2000027a:	47a8      	blx	r5
2000027c:	f7ff ffca 	bl	20000214 <flash_cs_force.constprop.1>
20000280:	1e25      	subs	r5, r4, #0
20000282:	d022      	beq.n	200002ca <flash_do_cmd+0x96>
20000284:	2308      	movs	r3, #8
20000286:	21c0      	movs	r1, #192	@ 0xc0
20000288:	469c      	mov	ip, r3
2000028a:	2002      	movs	r0, #2
2000028c:	0549      	lsls	r1, r1, #21
2000028e:	4662      	mov	r2, ip
20000290:	6a8b      	ldr	r3, [r1, #40]	@ 0x28
20000292:	401a      	ands	r2, r3
20000294:	4218      	tst	r0, r3
20000296:	d03f      	beq.n	20000318 <flash_do_cmd+0xe4>
20000298:	1b63      	subs	r3, r4, r5
2000029a:	2d00      	cmp	r5, #0
2000029c:	d12f      	bne.n	200002fe <flash_do_cmd+0xca>
2000029e:	2a00      	cmp	r2, #0
200002a0:	d111      	bne.n	200002c6 <flash_do_cmd+0x92>
200002a2:	2c00      	cmp	r4, #0
200002a4:	d011      	beq.n	200002ca <flash_do_cmd+0x96>
200002a6:	23c0      	movs	r3, #192	@ 0xc0
200002a8:	055b      	lsls	r3, r3, #21
200002aa:	469b      	mov	fp, r3
200002ac:	2302      	movs	r3, #2
200002ae:	469a      	mov	sl, r3
200002b0:	3306      	adds	r3, #6
200002b2:	4699      	mov	r9, r3
200002b4:	465b      	mov	r3, fp
200002b6:	464a      	mov	r2, r9
200002b8:	4657      	mov	r7, sl
200002ba:	6a9b      	ldr	r3, [r3, #40]	@ 0x28
200002bc:	401a      	ands	r2, r3
200002be:	421f      	tst	r7, r3
200002c0:	d042      	beq.n	20000348 <flash_do_cmd+0x114>
200002c2:	2a00      	cmp	r2, #0
200002c4:	d0f6      	beq.n	200002b4 <flash_do_cmd+0x80>
200002c6:	2c00      	cmp	r4, #0
200002c8:	d130      	bne.n	2000032c <flash_do_cmd+0xf8>
200002ca:	f7ff ff97 	bl	200001fc <flash_cs_force.constprop.0>
200002ce:	47c0      	blx	r8
200002d0:	f7ff ff6e 	bl	200001b0 <flash_enable_xip_via_boot2>
200002d4:	a802      	add	r0, sp, #8
200002d6:	f7ff ff81 	bl	200001dc <flash_restore_hardware_state>
200002da:	b009      	add	sp, #36	@ 0x24
200002dc:	bcf0      	pop	{r4, r5, r6, r7}
200002de:	46bb      	mov	fp, r7
200002e0:	46b2      	mov	sl, r6
200002e2:	46a9      	mov	r9, r5
200002e4:	46a0      	mov	r8, r4
200002e6:	bdf0      	pop	{r4, r5, r6, r7, pc}
200002e8:	2c00      	cmp	r4, #0
200002ea:	d12f      	bne.n	2000034c <flash_do_cmd+0x118>
200002ec:	22c0      	movs	r2, #192	@ 0xc0
200002ee:	0552      	lsls	r2, r2, #21
200002f0:	6a92      	ldr	r2, [r2, #40]	@ 0x28
200002f2:	4691      	mov	r9, r2
200002f4:	2208      	movs	r2, #8
200002f6:	464f      	mov	r7, r9
200002f8:	403a      	ands	r2, r7
200002fa:	07bf      	lsls	r7, r7, #30
200002fc:	d52d      	bpl.n	2000035a <flash_do_cmd+0x126>
200002fe:	2b0d      	cmp	r3, #13
20000300:	d91b      	bls.n	2000033a <flash_do_cmd+0x106>
20000302:	2a00      	cmp	r2, #0
20000304:	d1f0      	bne.n	200002e8 <flash_do_cmd+0xb4>
20000306:	22c0      	movs	r2, #192	@ 0xc0
20000308:	0552      	lsls	r2, r2, #21
2000030a:	6a92      	ldr	r2, [r2, #40]	@ 0x28
2000030c:	4691      	mov	r9, r2
2000030e:	2208      	movs	r2, #8
20000310:	464f      	mov	r7, r9
20000312:	403a      	ands	r2, r7
20000314:	07bf      	lsls	r7, r7, #30
20000316:	d4f2      	bmi.n	200002fe <flash_do_cmd+0xca>
20000318:	2a00      	cmp	r2, #0
2000031a:	d104      	bne.n	20000326 <flash_do_cmd+0xf2>
2000031c:	002b      	movs	r3, r5
2000031e:	4323      	orrs	r3, r4
20000320:	2b00      	cmp	r3, #0
20000322:	d1b4      	bne.n	2000028e <flash_do_cmd+0x5a>
20000324:	e7d1      	b.n	200002ca <flash_do_cmd+0x96>
20000326:	002b      	movs	r3, r5
20000328:	2c00      	cmp	r4, #0
2000032a:	d0f9      	beq.n	20000320 <flash_do_cmd+0xec>
2000032c:	6e0b      	ldr	r3, [r1, #96]	@ 0x60
2000032e:	3c01      	subs	r4, #1
20000330:	7033      	strb	r3, [r6, #0]
20000332:	0023      	movs	r3, r4
20000334:	3601      	adds	r6, #1
20000336:	432b      	orrs	r3, r5
20000338:	e7f2      	b.n	20000320 <flash_do_cmd+0xec>
2000033a:	9f01      	ldr	r7, [sp, #4]
2000033c:	3d01      	subs	r5, #1
2000033e:	783b      	ldrb	r3, [r7, #0]
20000340:	3701      	adds	r7, #1
20000342:	660b      	str	r3, [r1, #96]	@ 0x60
20000344:	9701      	str	r7, [sp, #4]
20000346:	e7e7      	b.n	20000318 <flash_do_cmd+0xe4>
20000348:	2500      	movs	r5, #0
2000034a:	e7e5      	b.n	20000318 <flash_do_cmd+0xe4>
2000034c:	23c0      	movs	r3, #192	@ 0xc0
2000034e:	055b      	lsls	r3, r3, #21
20000350:	6e1b      	ldr	r3, [r3, #96]	@ 0x60
20000352:	3c01      	subs	r4, #1
20000354:	7033      	strb	r3, [r6, #0]
20000356:	3601      	adds	r6, #1
20000358:	e799      	b.n	2000028e <flash_do_cmd+0x5a>
2000035a:	002b      	movs	r3, r5
2000035c:	2a00      	cmp	r2, #0
2000035e:	d1df      	bne.n	20000320 <flash_do_cmd+0xec>
20000360:	e7dc      	b.n	2000031c <flash_do_cmd+0xe8>
20000362:	46c0      	nop			@ (mov r8, r8)
20000364:	00004649 	.word	0x00004649
20000368:	00005845 	.word	0x00005845
2000036c:	00004346 	.word	0x00004346

20000370 <__aeabi_idiv0>:
20000370:	4770      	bx	lr
20000372:	46c0      	nop			@ (mov r8, r8)
20000374:	0000      	movs	r0, r0
	...

20000378 <__best_effort_wfe_or_timeout_veneer>:
20000378:	b401      	push	{r0}
2000037a:	4802      	ldr	r0, [pc, #8]	@ (20000384 <__best_effort_wfe_or_timeout_veneer+0xc>)
2000037c:	4684      	mov	ip, r0
2000037e:	bc01      	pop	{r0}
20000380:	4760      	bx	ip
20000382:	bf00      	nop
20000384:	10003195 	.word	0x10003195

20000388 <m3.0>:
20000388:	0d0c0b0a 00000000 000007d0 00000000     ................

20000398 <m2.1>:
20000398:	09080706 00000000 000007d0 00000000     ................

200003a8 <m1.2>:
200003a8:	05040302 00000000 000007d0 00000000     ................

200003b8 <ucPrimaryCoreNum>:
200003b8:	                                         .

200003b9 <striped_spin_lock_num>:
200003b9:	                                         ...

200003bc <irq_handler_chain_slots>:
200003bc:	00000000 	.word	0x00000000
200003c0:	00010000 	.word	0x00010000
	...
200003cc:	00020000 	.word	0x00020000
	...
200003d8:	00030000 	.word	0x00030000
	...
200003e4:	00ff0000 	.word	0x00ff0000
200003e8:	00000000 	.word	0x00000000

200003ec <irq_handler_chain_first_slot>:
200003ec:	b501      	push	{r0, lr}
200003ee:	6848      	ldr	r0, [r1, #4]
200003f0:	3101      	adds	r1, #1
200003f2:	468e      	mov	lr, r1
200003f4:	4700      	bx	r0

200003f6 <irq_handler_chain_remove_tail>:
200003f6:	4670      	mov	r0, lr
200003f8:	3809      	subs	r0, #9
200003fa:	4901      	ldr	r1, [pc, #4]	@ (20000400 <irq_handler_chain_remove_tail+0xa>)
200003fc:	4788      	blx	r1
200003fe:	bd01      	pop	{r0, pc}
20000400:	10002b59 	.word	0x10002b59

20000404 <default_alarm_pool>:
	...
20000418:	20000460 00000000                       `.. ....

20000420 <aeabi_bits_funcs>:
20000420:	00003350 	.word	0x00003350
20000424:	0000334c 	.word	0x0000334c
20000428:	00003354 	.word	0x00003354
2000042c:	00003352 	.word	0x00003352

20000430 <aeabi_bits_funcs_end>:
20000430:	0000534d 	.word	0x0000534d
20000434:	0000434d 	.word	0x0000434d
20000438:	00003453 	.word	0x00003453
2000043c:	00003443 	.word	0x00003443

20000440 <stdio_uart>:
20000440:	10005efd 10006001 10005f49 10006015     .^...`..I_...`..
20000450:	00000000 00000100                       ........

20000458 <print_mutex>:
	...
